---
triple:          'arm64-apple-darwin'
binary-path:     '/Users/runner/Library/Developer/Xcode/DerivedData/v8ios-evcyqrxvhopiysgptalckyjckask/ArchiveIntermediates/NativeScript/InstallationBuildProductsLocation/Library/Frameworks/NativeScript.framework/NativeScript'
relocations:
  - { offsetInCU: 0x33, offset: 0x33, size: 0x8, addend: 0x0, symName: _NativeScriptVersionString, symObjAddr: 0x0, symBinAddr: 0xB6F8C0, symSize: 0x0 }
  - { offsetInCU: 0x67, offset: 0x67, size: 0x8, addend: 0x0, symName: _NativeScriptVersionNumber, symObjAddr: 0x30, symBinAddr: 0xB6F8F0, symSize: 0x0 }
  - { offsetInCU: 0x50, offset: 0xCC, size: 0x8, addend: 0x0, symName: __ZN3ada4idna3mapENSt3__117basic_string_viewIDiNS1_11char_traitsIDiEEEE, symObjAddr: 0x514, symBinAddr: 0x4514, symSize: 0x220 }
  - { offsetInCU: 0x7B, offset: 0xF7, size: 0x8, addend: 0x0, symName: __ZZN3ada4idna3mapENSt3__117basic_string_viewIDiNS1_11char_traitsIDiEEEEE5error, symObjAddr: 0x513DA0, symBinAddr: 0x159CFA8, symSize: 0x0 }
  - { offsetInCU: 0x658, offset: 0x6D4, size: 0x8, addend: 0x0, symName: __ZN3ada4idna14is_label_validENSt3__117basic_string_viewIDiNS1_11char_traitsIDiEEEE, symObjAddr: 0x1BA8, symBinAddr: 0x5BA8, symSize: 0x5DC }
  - { offsetInCU: 0x683, offset: 0x6FF, size: 0x8, addend: 0x0, symName: __ZZN3ada4idna14is_label_validENSt3__117basic_string_viewIDiNS1_11char_traitsIDiEEEEE9combining, symObjAddr: 0x4EC28, symBinAddr: 0xB99878, symSize: 0x0 }
  - { offsetInCU: 0x699, offset: 0x715, size: 0x8, addend: 0x0, symName: __ZZN3ada4idna14is_label_validENSt3__117basic_string_viewIDiNS1_11char_traitsIDiEEEEE6virama, symObjAddr: 0x51004, symBinAddr: 0xB9BC54, symSize: 0x0 }
  - { offsetInCU: 0x6AF, offset: 0x72B, size: 0x8, addend: 0x0, symName: __ZZN3ada4idna14is_label_validENSt3__117basic_string_viewIDiNS1_11char_traitsIDiEEEEE1R, symObjAddr: 0x510F8, symBinAddr: 0xB9BD48, symSize: 0x0 }
  - { offsetInCU: 0x6D1, offset: 0x74D, size: 0x8, addend: 0x0, symName: __ZZN3ada4idna14is_label_validENSt3__117basic_string_viewIDiNS1_11char_traitsIDiEEEEE1D, symObjAddr: 0x51214, symBinAddr: 0xB9BE64, symSize: 0x0 }
  - { offsetInCU: 0x18A4, offset: 0x1920, size: 0x8, addend: 0x0, symName: __ZN3ada4idna8to_asciiENSt3__117basic_string_viewIcNS1_11char_traitsIcEEEE, symObjAddr: 0x2240, symBinAddr: 0x6240, symSize: 0xC44 }
  - { offsetInCU: 0x18CF, offset: 0x194B, size: 0x8, addend: 0x0, symName: __ZZN3ada4idna8to_asciiENSt3__117basic_string_viewIcNS1_11char_traitsIcEEEEE5error, symObjAddr: 0x513DC0, symBinAddr: 0x159CFC8, symSize: 0x0 }
  - { offsetInCU: 0x3E28, offset: 0x3EA4, size: 0x8, addend: 0x0, symName: __ZN3ada4idnaL5tableE, symObjAddr: 0x24D48, symBinAddr: 0xB6F998, symSize: 0x0 }
  - { offsetInCU: 0x3E42, offset: 0x3EBE, size: 0x8, addend: 0x0, symName: __ZN3ada4idnaL8mappingsE, symObjAddr: 0x3474C, symBinAddr: 0xB7F39C, symSize: 0x0 }
  - { offsetInCU: 0x3E5C, offset: 0x3ED8, size: 0x8, addend: 0x0, symName: __ZN3ada4idnaL19decomposition_indexE, symObjAddr: 0x397FC, symBinAddr: 0xB8444C, symSize: 0x0 }
  - { offsetInCU: 0x3E76, offset: 0x3EF2, size: 0x8, addend: 0x0, symName: __ZN3ada4idnaL19decomposition_blockE, symObjAddr: 0x3A8FC, symBinAddr: 0xB8554C, symSize: 0x0 }
  - { offsetInCU: 0x3E90, offset: 0x3F0C, size: 0x8, addend: 0x0, symName: __ZN3ada4idnaL18decomposition_dataE, symObjAddr: 0x42F84, symBinAddr: 0xB8DBD4, symSize: 0x0 }
  - { offsetInCU: 0x3EAA, offset: 0x3F26, size: 0x8, addend: 0x0, symName: __ZN3ada4idnaL31canonical_combining_class_blockE, symObjAddr: 0x51BE0, symBinAddr: 0xB9C820, symSize: 0x0 }
  - { offsetInCU: 0x3EC4, offset: 0x3F40, size: 0x8, addend: 0x0, symName: __ZN3ada4idnaL31canonical_combining_class_indexE, symObjAddr: 0x55EE0, symBinAddr: 0xBA0B20, symSize: 0x0 }
  - { offsetInCU: 0x3EDE, offset: 0x3F5A, size: 0x8, addend: 0x0, symName: __ZN3ada4idnaL17composition_blockE, symObjAddr: 0x56FE0, symBinAddr: 0xBA1C20, symSize: 0x0 }
  - { offsetInCU: 0x3EF8, offset: 0x3F74, size: 0x8, addend: 0x0, symName: __ZN3ada4idnaL17composition_indexE, symObjAddr: 0x4BDBC, symBinAddr: 0xB96A0C, symSize: 0x0 }
  - { offsetInCU: 0x3F12, offset: 0x3F8E, size: 0x8, addend: 0x0, symName: __ZN3ada4idnaL16composition_dataE, symObjAddr: 0x4CEBC, symBinAddr: 0xB97B0C, symSize: 0x0 }
  - { offsetInCU: 0x3F47, offset: 0x3FC3, size: 0x8, addend: 0x0, symName: __ZN3ada4idnaL9dir_tableE, symObjAddr: 0x5F694, symBinAddr: 0xBAA2BC, symSize: 0x0 }
  - { offsetInCU: 0x4031, offset: 0x40AD, size: 0x8, addend: 0x0, symName: __ZN3ada4idnaL36is_forbidden_domain_code_point_tableE, symObjAddr: 0x63A80, symBinAddr: 0xBAE6A8, symSize: 0x0 }
  - { offsetInCU: 0x403E, offset: 0x40BA, size: 0x8, addend: 0x0, symName: __ZN3ada4idna13utf8_to_utf32EPKcmPDi, symObjAddr: 0x0, symBinAddr: 0x4000, symSize: 0x1B0 }
  - { offsetInCU: 0x416E, offset: 0x41EA, size: 0x8, addend: 0x0, symName: __ZN3ada4idna22utf8_length_from_utf32EPKDim, symObjAddr: 0x1B0, symBinAddr: 0x41B0, symSize: 0x38 }
  - { offsetInCU: 0x41BD, offset: 0x4239, size: 0x8, addend: 0x0, symName: __ZN3ada4idna22utf32_length_from_utf8EPKcm, symObjAddr: 0x1E8, symBinAddr: 0x41E8, symSize: 0x24 }
  - { offsetInCU: 0x4247, offset: 0x42C3, size: 0x8, addend: 0x0, symName: __ZN3ada4idna13utf32_to_utf8EPKDimPc, symObjAddr: 0x20C, symBinAddr: 0x420C, symSize: 0x120 }
  - { offsetInCU: 0x42F6, offset: 0x4372, size: 0x8, addend: 0x0, symName: __ZN3ada4idna16find_range_indexEj, symObjAddr: 0x32C, symBinAddr: 0x432C, symSize: 0x4C }
  - { offsetInCU: 0x434C, offset: 0x43C8, size: 0x8, addend: 0x0, symName: __ZN3ada4idna20ascii_has_upper_caseEPcm, symObjAddr: 0x378, symBinAddr: 0x4378, symSize: 0xC0 }
  - { offsetInCU: 0x4452, offset: 0x44CE, size: 0x8, addend: 0x0, symName: __ZN3ada4idna9ascii_mapEPcm, symObjAddr: 0x438, symBinAddr: 0x4438, symSize: 0xDC }
  - { offsetInCU: 0x45A0, offset: 0x461C, size: 0x8, addend: 0x0, symName: __ZN3ada4idna28compute_decomposition_lengthENSt3__117basic_string_viewIDiNS1_11char_traitsIDiEEEE, symObjAddr: 0x998, symBinAddr: 0x4998, symSize: 0xDC }
  - { offsetInCU: 0x45EE, offset: 0x466A, size: 0x8, addend: 0x0, symName: __ZN3ada4idna28compute_decomposition_lengthENSt3__117basic_string_viewIDiNS1_11char_traitsIDiEEEE, symObjAddr: 0x998, symBinAddr: 0x4998, symSize: 0xDC }
  - { offsetInCU: 0x4684, offset: 0x4700, size: 0x8, addend: 0x0, symName: __ZN3ada4idna9decomposeERNSt3__112basic_stringIDiNS1_11char_traitsIDiEENS1_9allocatorIDiEEEEm, symObjAddr: 0xA74, symBinAddr: 0x4A74, symSize: 0x240 }
  - { offsetInCU: 0x4989, offset: 0x4A05, size: 0x8, addend: 0x0, symName: __ZN3ada4idna7get_cccEDi, symObjAddr: 0xCB4, symBinAddr: 0x4CB4, symSize: 0x40 }
  - { offsetInCU: 0x49C4, offset: 0x4A40, size: 0x8, addend: 0x0, symName: __ZN3ada4idna10sort_marksERNSt3__112basic_stringIDiNS1_11char_traitsIDiEENS1_9allocatorIDiEEEE, symObjAddr: 0xCF4, symBinAddr: 0x4CF4, symSize: 0x110 }
  - { offsetInCU: 0x4C43, offset: 0x4CBF, size: 0x8, addend: 0x0, symName: __ZN3ada4idna13decompose_nfcERNSt3__112basic_stringIDiNS1_11char_traitsIDiEENS1_9allocatorIDiEEEE, symObjAddr: 0xE04, symBinAddr: 0x4E04, symSize: 0x4C }
  - { offsetInCU: 0x4D27, offset: 0x4DA3, size: 0x8, addend: 0x0, symName: __ZN3ada4idna7composeERNSt3__112basic_stringIDiNS1_11char_traitsIDiEENS1_9allocatorIDiEEEE, symObjAddr: 0xE50, symBinAddr: 0x4E50, symSize: 0x444 }
  - { offsetInCU: 0x52D4, offset: 0x5350, size: 0x8, addend: 0x0, symName: __ZN3ada4idna9normalizeERNSt3__112basic_stringIDiNS1_11char_traitsIDiEENS1_9allocatorIDiEEEE, symObjAddr: 0x1294, symBinAddr: 0x5294, symSize: 0x24 }
  - { offsetInCU: 0x536B, offset: 0x53E7, size: 0x8, addend: 0x0, symName: __ZN3ada4idna17punycode_to_utf32ENSt3__117basic_string_viewIcNS1_11char_traitsIcEEEERNS1_12basic_stringIDiNS3_IDiEENS1_9allocatorIDiEEEE, symObjAddr: 0x12B8, symBinAddr: 0x52B8, symSize: 0x2C8 }
  - { offsetInCU: 0x56EB, offset: 0x5767, size: 0x8, addend: 0x0, symName: __ZN3ada4idna15verify_punycodeENSt3__117basic_string_viewIcNS1_11char_traitsIcEEEE, symObjAddr: 0x1674, symBinAddr: 0x5674, symSize: 0x220 }
  - { offsetInCU: 0x598A, offset: 0x5A06, size: 0x8, addend: 0x0, symName: __ZN3ada4idna17utf32_to_punycodeENSt3__117basic_string_viewIDiNS1_11char_traitsIDiEEEERNS1_12basic_stringIcNS3_IcEENS1_9allocatorIcEEEE, symObjAddr: 0x1894, symBinAddr: 0x5894, symSize: 0x314 }
  - { offsetInCU: 0x5CB5, offset: 0x5D31, size: 0x8, addend: 0x0, symName: __ZN3ada4idna11begins_withENSt3__117basic_string_viewIDiNS1_11char_traitsIDiEEEES5_, symObjAddr: 0x2184, symBinAddr: 0x6184, symSize: 0x40 }
  - { offsetInCU: 0x5D6D, offset: 0x5DE9, size: 0x8, addend: 0x0, symName: __ZN3ada4idna11begins_withENSt3__117basic_string_viewIcNS1_11char_traitsIcEEEES5_, symObjAddr: 0x21C4, symBinAddr: 0x61C4, symSize: 0x3C }
  - { offsetInCU: 0x5E18, offset: 0x5E94, size: 0x8, addend: 0x0, symName: __ZN3ada4idna36contains_forbidden_domain_code_pointENSt3__117basic_string_viewIcNS1_11char_traitsIcEEEE, symObjAddr: 0x2200, symBinAddr: 0x6200, symSize: 0x40 }
  - { offsetInCU: 0x5E4A, offset: 0x5EC6, size: 0x8, addend: 0x0, symName: __ZN3ada4idna36contains_forbidden_domain_code_pointENSt3__117basic_string_viewIcNS1_11char_traitsIcEEEE, symObjAddr: 0x2200, symBinAddr: 0x6200, symSize: 0x40 }
  - { offsetInCU: 0x60C1, offset: 0x613D, size: 0x8, addend: 0x0, symName: __ZN3ada4idna10to_unicodeENSt3__117basic_string_viewIcNS1_11char_traitsIcEEEE, symObjAddr: 0x2E84, symBinAddr: 0x6E84, symSize: 0x288 }
  - { offsetInCU: 0x6C42, offset: 0x6CBE, size: 0x8, addend: 0x0, symName: __ZN3ada22url_search_params_iterINSt3__117basic_string_viewIcNS1_11char_traitsIcEEEELNS_27url_search_params_iter_typeE0EE5EMPTYE, symObjAddr: 0x65148, symBinAddr: 0xD26BC8, symSize: 0x0 }
  - { offsetInCU: 0x71D2, offset: 0x724E, size: 0x8, addend: 0x0, symName: __ZN3ada22url_search_params_iterINSt3__117basic_string_viewIcNS1_11char_traitsIcEEEELNS_27url_search_params_iter_typeE1EE5EMPTYE, symObjAddr: 0x65168, symBinAddr: 0xD26BE8, symSize: 0x0 }
  - { offsetInCU: 0x71E5, offset: 0x7261, size: 0x8, addend: 0x0, symName: __ZN3ada22url_search_params_iterINSt3__14pairINS1_17basic_string_viewIcNS1_11char_traitsIcEEEES6_EELNS_27url_search_params_iter_typeE2EE5EMPTYE, symObjAddr: 0x65188, symBinAddr: 0xD26C08, symSize: 0x0 }
  - { offsetInCU: 0x7204, offset: 0x7280, size: 0x8, addend: 0x0, symName: __ZN3ada7unicodeL19hex_to_binary_tableE, symObjAddr: 0x63B80, symBinAddr: 0xBAE7A8, symSize: 0x0 }
  - { offsetInCU: 0x721E, offset: 0x729A, size: 0x8, addend: 0x0, symName: __ZN3ada7unicodeL36is_forbidden_domain_code_point_tableE, symObjAddr: 0x63BB7, symBinAddr: 0xBAE7DF, symSize: 0x0 }
  - { offsetInCU: 0x7238, offset: 0x72B4, size: 0x8, addend: 0x0, symName: __ZN3ada7unicodeL32table_is_double_dot_path_segmentE, symObjAddr: 0x64FB0, symBinAddr: 0xCC05C0, symSize: 0x0 }
  - { offsetInCU: 0x7252, offset: 0x72CE, size: 0x8, addend: 0x0, symName: __ZN3ada7unicodeL34is_forbidden_host_code_point_tableE, symObjAddr: 0x63DD7, symBinAddr: 0xBAE9FF, symSize: 0x0 }
  - { offsetInCU: 0x726C, offset: 0x72E8, size: 0x8, addend: 0x0, symName: __ZN3ada7unicodeL19is_alnum_plus_tableE, symObjAddr: 0x63EEF, symBinAddr: 0xBAEB17, symSize: 0x0 }
  - { offsetInCU: 0x7286, offset: 0x7302, size: 0x8, addend: 0x0, symName: __ZN3ada7unicodeL45is_forbidden_domain_code_point_table_or_upperE, symObjAddr: 0x64328, symBinAddr: 0xBAEF50, symSize: 0x0 }
  - { offsetInCU: 0x72CF, offset: 0x734B, size: 0x8, addend: 0x0, symName: __ZN3ada7unicode14percent_decodeENSt3__117basic_string_viewIcNS1_11char_traitsIcEEEEm, symObjAddr: 0x310C, symBinAddr: 0x710C, symSize: 0x1C8 }
  - { offsetInCU: 0x7931, offset: 0x79AD, size: 0x8, addend: 0x0, symName: __ZN3ada7unicode14percent_encodeENSt3__117basic_string_viewIcNS1_11char_traitsIcEEEEPKh, symObjAddr: 0x336C, symBinAddr: 0x736C, symSize: 0x17C }
  - { offsetInCU: 0x7F41, offset: 0x7FBD, size: 0x8, addend: 0x0, symName: __ZN3ada7unicode8to_asciiERNSt3__18optionalINS1_12basic_stringIcNS1_11char_traitsIcEENS1_9allocatorIcEEEEEENS1_17basic_string_viewIcS5_EEm, symObjAddr: 0x34E8, symBinAddr: 0x74E8, symSize: 0x1A8 }
  - { offsetInCU: 0x8562, offset: 0x85DE, size: 0x8, addend: 0x0, symName: __ZN3ada7unicode14percent_encodeENSt3__117basic_string_viewIcNS1_11char_traitsIcEEEEPKhm, symObjAddr: 0x3708, symBinAddr: 0x7708, symSize: 0xD0 }
  - { offsetInCU: 0x891A, offset: 0x8996, size: 0x8, addend: 0x0, symName: __ZN3ada7unicode14percent_encodeILb0EEEbNSt3__117basic_string_viewIcNS2_11char_traitsIcEEEEPKhRNS2_12basic_stringIcS5_NS2_9allocatorIcEEEE, symObjAddr: 0x1EDC8, symBinAddr: 0x22DC0, symSize: 0xF8 }
  - { offsetInCU: 0x8B8A, offset: 0x8C06, size: 0x8, addend: 0x0, symName: __ZN3ada7unicode14to_lower_asciiEPcm, symObjAddr: 0x1EF84, symBinAddr: 0x22F7C, symSize: 0xFC }
  - { offsetInCU: 0x8CA7, offset: 0x8D23, size: 0x8, addend: 0x0, symName: __ZN3ada7unicode14percent_encodeILb1EEEbNSt3__117basic_string_viewIcNS2_11char_traitsIcEEEEPKhRNS2_12basic_stringIcS5_NS2_9allocatorIcEEEE, symObjAddr: 0x1F248, symBinAddr: 0x23240, symSize: 0xD8 }
  - { offsetInCU: 0x8EC9, offset: 0x8F45, size: 0x8, addend: 0x0, symName: __ZN3ada14character_setsL3hexE, symObjAddr: 0x51740, symBinAddr: 0xB9C380, symSize: 0x0 }
  - { offsetInCU: 0x8EE3, offset: 0x8F5F, size: 0x8, addend: 0x0, symName: __ZN3ada14character_setsL19PATH_PERCENT_ENCODEE, symObjAddr: 0x63CB7, symBinAddr: 0xBAE8DF, symSize: 0x0 }
  - { offsetInCU: 0x8EFD, offset: 0x8F79, size: 0x8, addend: 0x0, symName: __ZN3ada14character_setsL25C0_CONTROL_PERCENT_ENCODEE, symObjAddr: 0x51B40, symBinAddr: 0xB9C780, symSize: 0x0 }
  - { offsetInCU: 0x8F17, offset: 0x8F93, size: 0x8, addend: 0x0, symName: __ZN3ada14character_setsL23USERINFO_PERCENT_ENCODEE, symObjAddr: 0x51B60, symBinAddr: 0xB9C7A0, symSize: 0x0 }
  - { offsetInCU: 0x8F31, offset: 0x8FAD, size: 0x8, addend: 0x0, symName: __ZN3ada14character_setsL23FRAGMENT_PERCENT_ENCODEE, symObjAddr: 0x51B80, symBinAddr: 0xB9C7C0, symSize: 0x0 }
  - { offsetInCU: 0x8F4B, offset: 0x8FC7, size: 0x8, addend: 0x0, symName: __ZN3ada14character_setsL28SPECIAL_QUERY_PERCENT_ENCODEE, symObjAddr: 0x51BA0, symBinAddr: 0xB9C7E0, symSize: 0x0 }
  - { offsetInCU: 0x8F65, offset: 0x8FE1, size: 0x8, addend: 0x0, symName: __ZN3ada14character_setsL20QUERY_PERCENT_ENCODEE, symObjAddr: 0x51BC0, symBinAddr: 0xB9C800, symSize: 0x0 }
  - { offsetInCU: 0x8F7F, offset: 0x8FFB, size: 0x8, addend: 0x0, symName: __ZN3ada14character_setsL34WWW_FORM_URLENCODED_PERCENT_ENCODEE, symObjAddr: 0x64489, symBinAddr: 0xBAF099, symSize: 0x0 }
  - { offsetInCU: 0x8FC8, offset: 0x9044, size: 0x8, addend: 0x0, symName: __ZN3ada8checkersL20path_signature_tableE, symObjAddr: 0x63CD7, symBinAddr: 0xBAE8FF, symSize: 0x0 }
  - { offsetInCU: 0x91AF, offset: 0x922B, size: 0x8, addend: 0x0, symName: __ZN3ada8checkers23is_windows_drive_letterENSt3__117basic_string_viewIcNS1_11char_traitsIcEEEE, symObjAddr: 0x13F64, symBinAddr: 0x17F64, symSize: 0x70 }
  - { offsetInCU: 0x920F, offset: 0x928B, size: 0x8, addend: 0x0, symName: __ZN3ada6scheme7detailsL15is_special_listE, symObjAddr: 0x64DB8, symBinAddr: 0xCC03F0, symSize: 0x0 }
  - { offsetInCU: 0x9229, offset: 0x92A5, size: 0x8, addend: 0x0, symName: __ZN3ada6scheme7detailsL13special_portsE, symObjAddr: 0x64218, symBinAddr: 0xBAEE40, symSize: 0x0 }
  - { offsetInCU: 0x928D, offset: 0x9309, size: 0x8, addend: 0x0, symName: __ZN3ada6scheme15get_scheme_typeENSt3__117basic_string_viewIcNS1_11char_traitsIcEEEE, symObjAddr: 0x231A8, symBinAddr: 0x271A0, symSize: 0x88 }
  - { offsetInCU: 0x93D9, offset: 0x9455, size: 0x8, addend: 0x0, symName: __ZN3ada7helpersL27authority_delimiter_specialE, symObjAddr: 0x63FEF, symBinAddr: 0xBAEC17, symSize: 0x0 }
  - { offsetInCU: 0x93F3, offset: 0x946F, size: 0x8, addend: 0x0, symName: __ZN3ada7helpersL19authority_delimiterE, symObjAddr: 0x640EF, symBinAddr: 0xBAED17, symSize: 0x0 }
  - { offsetInCU: 0x94B8, offset: 0x9534, size: 0x8, addend: 0x0, symName: __ZZN3ada7helpers16fast_digit_countEjE5table, symObjAddr: 0x64228, symBinAddr: 0xBAEE50, symSize: 0x0 }
  - { offsetInCU: 0x9B15, offset: 0x9B91, size: 0x8, addend: 0x0, symName: __ZN3ada7helpers6concatIJPKcNSt3__117basic_string_viewIcNS4_11char_traitsIcEEEEEEENS4_12basic_stringIcS7_NS4_9allocatorIcEEEEDpT_, symObjAddr: 0x15E30, symBinAddr: 0x19E30, symSize: 0x6C }
  - { offsetInCU: 0x9D43, offset: 0x9DBF, size: 0x8, addend: 0x0, symName: __ZN3ada7helpers9get_stateENS_5stateE, symObjAddr: 0xD96C, symBinAddr: 0x1196C, symSize: 0x2C }
  - { offsetInCU: 0x9D8C, offset: 0x9E08, size: 0x8, addend: 0x0, symName: __ZN3ada7helpers8overlapsENSt3__117basic_string_viewIcNS1_11char_traitsIcEEEERKNS1_12basic_stringIcS4_NS1_9allocatorIcEEEE, symObjAddr: 0xD998, symBinAddr: 0x11998, symSize: 0x44 }
  - { offsetInCU: 0x9E33, offset: 0x9EAF, size: 0x8, addend: 0x0, symName: __ZN3ada7helpers11encode_jsonINSt3__120back_insert_iteratorINS2_12basic_stringIcNS2_11char_traitsIcEENS2_9allocatorIcEEEEEEEEvNS2_17basic_string_viewIcS6_EET_, symObjAddr: 0xE674, symBinAddr: 0x12674, symSize: 0xE0 }
  - { offsetInCU: 0x9F8C, offset: 0xA008, size: 0x8, addend: 0x0, symName: __ZN3ada7helpers6concatIJNSt3__117basic_string_viewIcNS2_11char_traitsIcEEEEPKcEEENS2_12basic_stringIcS5_NS2_9allocatorIcEEEEDpT_, symObjAddr: 0xED6C, symBinAddr: 0x12D6C, symSize: 0x60 }
  - { offsetInCU: 0xA1B8, offset: 0xA234, size: 0x8, addend: 0x0, symName: __ZN3ada7helpers6concatIJNSt3__112basic_stringIcNS2_11char_traitsIcEENS2_9allocatorIcEEEEPKcEEES8_DpT_, symObjAddr: 0xEDCC, symBinAddr: 0x12DCC, symSize: 0xCC }
  - { offsetInCU: 0xA706, offset: 0xA782, size: 0x8, addend: 0x0, symName: __ZN3ada7helpers6concatIJNSt3__112basic_stringIcNS2_11char_traitsIcEENS2_9allocatorIcEEEEPKcS8_EEES8_DpT_, symObjAddr: 0xEA78, symBinAddr: 0x12A78, symSize: 0x10C }
  - { offsetInCU: 0xAE86, offset: 0xAF02, size: 0x8, addend: 0x0, symName: __ZN3ada7helpers12inner_concatINSt3__112basic_stringIcNS2_11char_traitsIcEENS2_9allocatorIcEEEEJPKcS8_EEEvRS8_T_DpT0_, symObjAddr: 0x22ED8, symBinAddr: 0x26ED0, symSize: 0x124 }
  - { offsetInCU: 0xB6DF, offset: 0xB75B, size: 0x8, addend: 0x0, symName: __ZN3ada7helpers6concatIJPKcNSt3__112basic_stringIcNS4_11char_traitsIcEENS4_9allocatorIcEEEEEEESA_DpT_, symObjAddr: 0x1F3DC, symBinAddr: 0x233D4, symSize: 0x120 }
  - { offsetInCU: 0xBFEB, offset: 0xC067, size: 0x8, addend: 0x0, symName: __ZN3ada7helpers6concatIJNSt3__117basic_string_viewIcNS2_11char_traitsIcEEEEPKcS6_EEENS2_12basic_stringIcS5_NS2_9allocatorIcEEEEDpT_, symObjAddr: 0x1A844, symBinAddr: 0x1E844, symSize: 0x80 }
  - { offsetInCU: 0xD00A, offset: 0xD086, size: 0x8, addend: 0x0, symName: __ZN3ada11serializers36find_longest_sequence_of_ipv6_piecesERKNSt3__15arrayItLm8EEERmS6_, symObjAddr: 0x37D8, symBinAddr: 0x77D8, symSize: 0x7C }
  - { offsetInCU: 0xD0B4, offset: 0xD130, size: 0x8, addend: 0x0, symName: __ZN3ada11serializers4ipv6ERKNSt3__15arrayItLm8EEE, symObjAddr: 0x3854, symBinAddr: 0x7854, symSize: 0x19C }
  - { offsetInCU: 0xD406, offset: 0xD482, size: 0x8, addend: 0x0, symName: __ZN3ada11serializers4ipv4Ey, symObjAddr: 0x39FC, symBinAddr: 0x79FC, symSize: 0xF4 }
  - { offsetInCU: 0xDDFE, offset: 0xDE7A, size: 0x8, addend: 0x0, symName: __ZN3ada5parseINS_3urlEEEN2tl8expectedIT_NS_6errorsEEENSt3__117basic_string_viewIcNS7_11char_traitsIcEEEEPKS4_, symObjAddr: 0x3AF0, symBinAddr: 0x7AF0, symSize: 0x58 }
  - { offsetInCU: 0xE13A, offset: 0xE1B6, size: 0x8, addend: 0x0, symName: __ZN3ada6parser14parse_url_implINS_3urlELb1EEET_NSt3__117basic_string_viewIcNS4_11char_traitsIcEEEEPKS3_, symObjAddr: 0x3B48, symBinAddr: 0x7B48, symSize: 0x3364 }
  - { offsetInCU: 0x15979, offset: 0x159F5, size: 0x8, addend: 0x0, symName: __ZN3ada6parser14parse_url_implINS_14url_aggregatorELb1EEET_NSt3__117basic_string_viewIcNS4_11char_traitsIcEEEEPKS3_, symObjAddr: 0x6F48, symBinAddr: 0xAF48, symSize: 0x2F20 }
  - { offsetInCU: 0x1BF4C, offset: 0x1BFC8, size: 0x8, addend: 0x0, symName: __ZN3ada6parser14parse_url_implINS_14url_aggregatorELb0EEET_NSt3__117basic_string_viewIcNS4_11char_traitsIcEEEEPKS3_, symObjAddr: 0xACF8, symBinAddr: 0xECF8, symSize: 0x2C60 }
  - { offsetInCU: 0x21E1D, offset: 0x21E99, size: 0x8, addend: 0x0, symName: __ZN3ada6parser9parse_urlINS_3urlEEET_NSt3__117basic_string_viewIcNS4_11char_traitsIcEEEEPKS3_, symObjAddr: 0x15F8C, symBinAddr: 0x19F8C, symSize: 0x4 }
  - { offsetInCU: 0x21E59, offset: 0x21ED5, size: 0x8, addend: 0x0, symName: __ZN3ada6parser9parse_urlINS_3urlEEET_NSt3__117basic_string_viewIcNS4_11char_traitsIcEEEEPKS3_, symObjAddr: 0x15F8C, symBinAddr: 0x19F8C, symSize: 0x4 }
  - { offsetInCU: 0x21E6C, offset: 0x21EE8, size: 0x8, addend: 0x0, symName: __ZN3ada6parser9parse_urlINS_14url_aggregatorEEET_NSt3__117basic_string_viewIcNS4_11char_traitsIcEEEEPKS3_, symObjAddr: 0x15F90, symBinAddr: 0x19F90, symSize: 0x4 }
  - { offsetInCU: 0x21EA8, offset: 0x21F24, size: 0x8, addend: 0x0, symName: __ZN3ada6parser9parse_urlINS_14url_aggregatorEEET_NSt3__117basic_string_viewIcNS4_11char_traitsIcEEEEPKS3_, symObjAddr: 0x15F90, symBinAddr: 0x19F90, symSize: 0x4 }
  - { offsetInCU: 0x21EBC, offset: 0x21F38, size: 0x8, addend: 0x0, symName: __ZN3ada5parseINS_14url_aggregatorEEEN2tl8expectedIT_NS_6errorsEEENSt3__117basic_string_viewIcNS7_11char_traitsIcEEEEPKS4_, symObjAddr: 0x6EB0, symBinAddr: 0xAEB0, symSize: 0x98 }
  - { offsetInCU: 0x2237A, offset: 0x223F6, size: 0x8, addend: 0x0, symName: __ZN3ada14href_from_fileENSt3__117basic_string_viewIcNS0_11char_traitsIcEEEE, symObjAddr: 0x9EA4, symBinAddr: 0xDEA4, symSize: 0xD28 }
  - { offsetInCU: 0x240A1, offset: 0x2411D, size: 0x8, addend: 0x0, symName: __ZN3ada9can_parseENSt3__117basic_string_viewIcNS0_11char_traitsIcEEEEPKS4_, symObjAddr: 0xABCC, symBinAddr: 0xEBCC, symSize: 0x12C }
  - { offsetInCU: 0x24636, offset: 0x246B2, size: 0x8, addend: 0x0, symName: __ZN3ada9to_stringENS_13encoding_typeE, symObjAddr: 0xD958, symBinAddr: 0x11958, symSize: 0x14 }
  - { offsetInCU: 0x24672, offset: 0x246EE, size: 0x8, addend: 0x0, symName: __ZN3ada9to_stringENS_5stateE, symObjAddr: 0xD9DC, symBinAddr: 0x119DC, symSize: 0x4 }
  - { offsetInCU: 0x246A2, offset: 0x2471E, size: 0x8, addend: 0x0, symName: __ZN3ada9to_stringENS_5stateE, symObjAddr: 0xD9DC, symBinAddr: 0x119DC, symSize: 0x4 }
  - { offsetInCU: 0x2DF93, offset: 0x2E00F, size: 0x8, addend: 0x0, symName: __ZNSt3__16__itoa10__pow10_32E, symObjAddr: 0x641F0, symBinAddr: 0xBAEE18, symSize: 0x0 }
  - { offsetInCU: 0x2DFAD, offset: 0x2E029, size: 0x8, addend: 0x0, symName: __ZNSt3__16__itoa16__digits_base_10E, symObjAddr: 0x644A9, symBinAddr: 0xBAF0B9, symSize: 0x0 }
  - { offsetInCU: 0x2DFC7, offset: 0x2E043, size: 0x8, addend: 0x0, symName: __ZNSt3__16__itoa13__base_16_lutE, symObjAddr: 0x64571, symBinAddr: 0xBAF181, symSize: 0x0 }
  - { offsetInCU: 0x2E208, offset: 0x2E284, size: 0x8, addend: 0x0, symName: __ZNSt3__16__itoa13__base_10_u32B8ue170006EPcj, symObjAddr: 0x229A8, symBinAddr: 0x269A0, symSize: 0x2F4 }
  - { offsetInCU: 0x2FF8F, offset: 0x3000B, size: 0x8, addend: 0x0, symName: __ZNSt3__16__itoa10__append10B8ue170006IjEEPcS2_T_, symObjAddr: 0x22C9C, symBinAddr: 0x26C94, symSize: 0xA4 }
  - { offsetInCU: 0x31B4D, offset: 0x31BC9, size: 0x8, addend: 0x0, symName: __ZNSt3__113__stable_sortINS_17_ClassicAlgPolicyERZN3ada17url_search_params4sortEvEUlRKNS_4pairINS_12basic_stringIcNS_11char_traitsIcEENS_9allocatorIcEEEESA_EESD_E_NS_11__wrap_iterIPSB_EEEEvT1_SJ_T0_NS_15iterator_traitsISJ_E15difference_typeEPNSM_10value_typeEl, symObjAddr: 0x20264, symBinAddr: 0x2425C, symSize: 0x24C }
  - { offsetInCU: 0x32194, offset: 0x32210, size: 0x8, addend: 0x0, symName: __ZNSt3__124__buffered_inplace_mergeB8ue170006INS_17_ClassicAlgPolicyERZN3ada17url_search_params4sortEvEUlRKNS_4pairINS_12basic_stringIcNS_11char_traitsIcEENS_9allocatorIcEEEESA_EESD_E_NS_11__wrap_iterIPSB_EEEEvT1_SJ_SJ_OT0_NS_15iterator_traitsISJ_E15difference_typeESO_PNSN_10value_typeE, symObjAddr: 0x2119C, symBinAddr: 0x25194, symSize: 0x184 }
  - { offsetInCU: 0x33FB7, offset: 0x34033, size: 0x8, addend: 0x0, symName: __ZNSt3__119__allocate_at_leastB8ue170006INS_9allocatorIDiEEEENS_19__allocation_resultINS_16allocator_traitsIT_E7pointerEEERS5_m, symObjAddr: 0x22508, symBinAddr: 0x26500, symSize: 0x34 }
  - { offsetInCU: 0x34054, offset: 0x340D0, size: 0x8, addend: 0x0, symName: __ZNSt3__112basic_stringIDiNS_11char_traitsIDiEENS_9allocatorIDiEEE9__grow_byEmmmmmm, symObjAddr: 0x2253C, symBinAddr: 0x26534, symSize: 0x114 }
  - { offsetInCU: 0x35E62, offset: 0x35EDE, size: 0x8, addend: 0x0, symName: __ZNSt3__19remove_ifB8ue170006INS_11__wrap_iterIPcEEZN3ada7helpers27remove_ascii_tab_or_newlineERNS_12basic_stringIcNS_11char_traitsIcEENS_9allocatorIcEEEEEUlcE_EET_SE_SE_T0_, symObjAddr: 0x1EC80, symBinAddr: 0x22C78, symSize: 0x88 }
  - { offsetInCU: 0x35EAA, offset: 0x35F26, size: 0x8, addend: 0x0, symName: __ZNSt3__19remove_ifB8ue170006INS_11__wrap_iterIPcEEZN3ada7helpers27remove_ascii_tab_or_newlineERNS_12basic_stringIcNS_11char_traitsIcEENS_9allocatorIcEEEEEUlcE_EET_SE_SE_T0_, symObjAddr: 0x1EC80, symBinAddr: 0x22C78, symSize: 0x88 }
  - { offsetInCU: 0x35F20, offset: 0x35F9C, size: 0x8, addend: 0x0, symName: __ZNSt3__120__throw_out_of_rangeB8ue170006EPKc, symObjAddr: 0x1EA14, symBinAddr: 0x22A14, symSize: 0x50 }
  - { offsetInCU: 0x35F59, offset: 0x35FD5, size: 0x8, addend: 0x0, symName: __ZNSt3__127__throw_bad_optional_accessB8ue170006Ev, symObjAddr: 0x1EEC0, symBinAddr: 0x22EB8, symSize: 0x34 }
  - { offsetInCU: 0x36614, offset: 0x36690, size: 0x8, addend: 0x0, symName: __ZNSt3__1eqB8ue170006IcNS_11char_traitsIcEENS_9allocatorIcEEEEbRKNS_12basic_stringIT_T0_T1_EEPKS6_, symObjAddr: 0xECDC, symBinAddr: 0x12CDC, symSize: 0x90 }
  - { offsetInCU: 0x36F07, offset: 0x36F83, size: 0x8, addend: 0x0, symName: __ZNSt3__120get_temporary_bufferB8ue170006INS_4pairINS_12basic_stringIcNS_11char_traitsIcEENS_9allocatorIcEEEES7_EEEENS1_IPT_lEEl, symObjAddr: 0x201FC, symBinAddr: 0x241F4, symSize: 0x68 }
  - { offsetInCU: 0x370CB, offset: 0x37147, size: 0x8, addend: 0x0, symName: __ZNSt3__19remove_ifB8ue170006INS_11__wrap_iterIPNS_4pairINS_12basic_stringIcNS_11char_traitsIcEENS_9allocatorIcEEEES8_EEEEZN3ada17url_search_params3setENS_17basic_string_viewIcS5_EESF_EUlRT_E_EESG_SG_SG_T0_, symObjAddr: 0x21B4C, symBinAddr: 0x25B44, symSize: 0xE8 }
  - { offsetInCU: 0x37393, offset: 0x3740F, size: 0x8, addend: 0x0, symName: __ZNSt3__19remove_ifB8ue170006INS_11__wrap_iterIPNS_4pairINS_12basic_stringIcNS_11char_traitsIcEENS_9allocatorIcEEEES8_EEEEZN3ada17url_search_params6removeENS_17basic_string_viewIcS5_EEEUlRT_E_EESG_SG_SG_T0_, symObjAddr: 0x21C90, symBinAddr: 0x25C88, symSize: 0xE8 }
  - { offsetInCU: 0x3765B, offset: 0x376D7, size: 0x8, addend: 0x0, symName: __ZNSt3__19remove_ifB8ue170006INS_11__wrap_iterIPNS_4pairINS_12basic_stringIcNS_11char_traitsIcEENS_9allocatorIcEEEES8_EEEEZN3ada17url_search_params6removeENS_17basic_string_viewIcS5_EESF_EUlRT_E_EESG_SG_SG_T0_, symObjAddr: 0x21D78, symBinAddr: 0x25D70, symSize: 0x170 }
  - { offsetInCU: 0x37C92, offset: 0x37D0E, size: 0x8, addend: 0x0, symName: __ZNSt3__119__allocate_at_leastB8ue170006INS_9allocatorINS_4pairINS_12basic_stringIcNS_11char_traitsIcEENS1_IcEEEES7_EEEEEENS_19__allocation_resultINS_16allocator_traitsIT_E7pointerEEERSC_m, symObjAddr: 0x1FF1C, symBinAddr: 0x23F14, symSize: 0x44 }
  - { offsetInCU: 0x37D2F, offset: 0x37DAB, size: 0x8, addend: 0x0, symName: __ZSt28__throw_bad_array_new_lengthB8ue170006v, symObjAddr: 0x1FF60, symBinAddr: 0x23F58, symSize: 0x28 }
  - { offsetInCU: 0x37D88, offset: 0x37E04, size: 0x8, addend: 0x0, symName: __ZNSt3__142__uninitialized_allocator_move_if_noexceptB8ue170006INS_9allocatorINS_4pairINS_12basic_stringIcNS_11char_traitsIcEENS1_IcEEEES7_EEEENS_16reverse_iteratorIPS8_EESC_SC_EET2_RT_T0_T1_SD_, symObjAddr: 0x1FF88, symBinAddr: 0x23F80, symSize: 0xB4 }
  - { offsetInCU: 0x3800D, offset: 0x38089, size: 0x8, addend: 0x0, symName: __ZNSt3__120__throw_length_errorB8ue170006EPKc, symObjAddr: 0x1FEA8, symBinAddr: 0x23EA0, symSize: 0x50 }
  - { offsetInCU: 0x3864B, offset: 0x386C7, size: 0x8, addend: 0x0, symName: __ZNSt3__115__inplace_mergeINS_17_ClassicAlgPolicyERZN3ada17url_search_params4sortEvEUlRKNS_4pairINS_12basic_stringIcNS_11char_traitsIcEENS_9allocatorIcEEEESA_EESD_E_NS_11__wrap_iterIPSB_EEEEvT1_SJ_SJ_OT0_NS_15iterator_traitsISJ_E15difference_typeESO_PNSN_10value_typeEl, symObjAddr: 0x209E8, symBinAddr: 0x249E0, symSize: 0x2EC }
  - { offsetInCU: 0x38C12, offset: 0x38C8E, size: 0x8, addend: 0x0, symName: __ZNSt3__116__insertion_sortB8ue170006INS_17_ClassicAlgPolicyERZN3ada17url_search_params4sortEvEUlRKNS_4pairINS_12basic_stringIcNS_11char_traitsIcEENS_9allocatorIcEEEESA_EESD_E_NS_11__wrap_iterIPSB_EEEEvT1_SJ_T0_, symObjAddr: 0x204B0, symBinAddr: 0x244A8, symSize: 0x1BC }
  - { offsetInCU: 0x392E5, offset: 0x39361, size: 0x8, addend: 0x0, symName: __ZNSt3__118__stable_sort_moveINS_17_ClassicAlgPolicyERZN3ada17url_search_params4sortEvEUlRKNS_4pairINS_12basic_stringIcNS_11char_traitsIcEENS_9allocatorIcEEEESA_EESD_E_NS_11__wrap_iterIPSB_EEEEvT1_SJ_T0_NS_15iterator_traitsISJ_E15difference_typeEPNSM_10value_typeE, symObjAddr: 0x2066C, symBinAddr: 0x24664, symSize: 0x258 }
  - { offsetInCU: 0x39AA3, offset: 0x39B1F, size: 0x8, addend: 0x0, symName: __ZNSt3__119__merge_move_assignB8ue170006INS_17_ClassicAlgPolicyERZN3ada17url_search_params4sortEvEUlRKNS_4pairINS_12basic_stringIcNS_11char_traitsIcEENS_9allocatorIcEEEESA_EESD_E_PSB_SG_NS_11__wrap_iterISG_EEEEvT1_SJ_T2_SK_T3_T0_, symObjAddr: 0x208C4, symBinAddr: 0x248BC, symSize: 0x124 }
  - { offsetInCU: 0x39CED, offset: 0x39D69, size: 0x8, addend: 0x0, symName: __ZNSt3__121__insertion_sort_moveB8ue170006INS_17_ClassicAlgPolicyERZN3ada17url_search_params4sortEvEUlRKNS_4pairINS_12basic_stringIcNS_11char_traitsIcEENS_9allocatorIcEEEESA_EESD_E_NS_11__wrap_iterIPSB_EEEEvT1_SJ_PNS_15iterator_traitsISJ_E10value_typeET0_, symObjAddr: 0x20D54, symBinAddr: 0x24D4C, symSize: 0x21C }
  - { offsetInCU: 0x3A363, offset: 0x3A3DF, size: 0x8, addend: 0x0, symName: __ZNSt3__122__merge_move_constructB8ue170006INS_17_ClassicAlgPolicyERZN3ada17url_search_params4sortEvEUlRKNS_4pairINS_12basic_stringIcNS_11char_traitsIcEENS_9allocatorIcEEEESA_EESD_E_NS_11__wrap_iterIPSB_EESI_EEvT1_SJ_T2_SK_PNS_15iterator_traitsISJ_E10value_typeET0_, symObjAddr: 0x20F70, symBinAddr: 0x24F68, symSize: 0x1C4 }
  - { offsetInCU: 0x3AC8C, offset: 0x3AD08, size: 0x8, addend: 0x0, symName: __ZNSt3__113__upper_boundB8ue170006INS_17_ClassicAlgPolicyERZN3ada17url_search_params4sortEvEUlRKNS_4pairINS_12basic_stringIcNS_11char_traitsIcEENS_9allocatorIcEEEESA_EESD_E_NS_11__wrap_iterIPSB_EESI_SB_NS_10__identityEEET1_SK_T2_RKT3_OT0_OT4_, symObjAddr: 0x21320, symBinAddr: 0x25318, symSize: 0xD8 }
  - { offsetInCU: 0x3AFCF, offset: 0x3B04B, size: 0x8, addend: 0x0, symName: __ZNSt3__113__lower_boundB8ue170006INS_17_ClassicAlgPolicyENS_11__wrap_iterIPNS_4pairINS_12basic_stringIcNS_11char_traitsIcEENS_9allocatorIcEEEES9_EEEESC_SA_NS_10__identityEZN3ada17url_search_params4sortEvEUlRKSA_SH_E_EET0_SJ_T1_RKT2_RT4_RT3_, symObjAddr: 0x21680, symBinAddr: 0x25678, symSize: 0xD8 }
  - { offsetInCU: 0x3B2B9, offset: 0x3B335, size: 0x8, addend: 0x0, symName: __ZNSt3__116__rotate_forwardB8ue170006INS_17_ClassicAlgPolicyENS_11__wrap_iterIPNS_4pairINS_12basic_stringIcNS_11char_traitsIcEENS_9allocatorIcEEEES9_EEEEEET0_SD_SD_SD_, symObjAddr: 0x21758, symBinAddr: 0x25750, symSize: 0x110 }
  - { offsetInCU: 0x3B65F, offset: 0x3B6DB, size: 0x8, addend: 0x0, symName: __ZNSt3__120__half_inplace_mergeB8ue170006INS_17_ClassicAlgPolicyENS_8__invertIRZN3ada17url_search_params4sortEvEUlRKNS_4pairINS_12basic_stringIcNS_11char_traitsIcEENS_9allocatorIcEEEESB_EESE_E_EENS_16reverse_iteratorIPSC_EESK_NSI_INS_11__wrap_iterISJ_EEEESN_SN_EEvT1_T2_T3_T4_T5_OT0_, symObjAddr: 0x214FC, symBinAddr: 0x254F4, symSize: 0xB8 }
  - { offsetInCU: 0x3B7FA, offset: 0x3B876, size: 0x8, addend: 0x0, symName: __ZNSt3__120__half_inplace_mergeB8ue170006INS_17_ClassicAlgPolicyERZN3ada17url_search_params4sortEvEUlRKNS_4pairINS_12basic_stringIcNS_11char_traitsIcEENS_9allocatorIcEEEESA_EESD_E_PSB_SG_NS_11__wrap_iterISG_EESI_SI_EEvT1_T2_T3_T4_T5_OT0_, symObjAddr: 0x213F8, symBinAddr: 0x253F0, symSize: 0x104 }
  - { offsetInCU: 0x3BCEA, offset: 0x3BD66, size: 0x8, addend: 0x0, symName: __ZNSt3__121__unwrap_and_dispatchB8ue170006INS_10__overloadINS_11__move_loopINS_17_ClassicAlgPolicyEEENS_14__move_trivialEEEPNS_4pairINS_12basic_stringIcNS_11char_traitsIcEENS_9allocatorIcEEEESD_EESF_NS_11__wrap_iterISF_EELi0EEENS7_IT0_T2_EESI_T1_SJ_, symObjAddr: 0x215B4, symBinAddr: 0x255AC, symSize: 0x64 }
  - { offsetInCU: 0x3C296, offset: 0x3C312, size: 0x8, addend: 0x0, symName: __ZNSt3__121__unwrap_and_dispatchB8ue170006INS_10__overloadINS_11__move_loopINS_17_ClassicAlgPolicyEEENS_14__move_trivialEEEPNS_4pairINS_12basic_stringIcNS_11char_traitsIcEENS_9allocatorIcEEEESD_EESF_SF_Li0EEENS7_IT0_T2_EESG_T1_SH_, symObjAddr: 0x21C34, symBinAddr: 0x25C2C, symSize: 0x5C }
  - { offsetInCU: 0x3C45C, offset: 0x3C4D8, size: 0x8, addend: 0x0, symName: __ZNSt3__119__allocate_at_leastB8ue170006INS_9allocatorINS_12basic_stringIcNS_11char_traitsIcEENS1_IcEEEEEEEENS_19__allocation_resultINS_16allocator_traitsIT_E7pointerEEERSA_m, symObjAddr: 0x22084, symBinAddr: 0x2607C, symSize: 0x44 }
  - { offsetInCU: 0x3C4F9, offset: 0x3C575, size: 0x8, addend: 0x0, symName: __ZNSt3__142__uninitialized_allocator_move_if_noexceptB8ue170006INS_9allocatorINS_12basic_stringIcNS_11char_traitsIcEENS1_IcEEEEEENS_16reverse_iteratorIPS6_EESA_SA_EET2_RT_T0_T1_SB_, symObjAddr: 0x220C8, symBinAddr: 0x260C0, symSize: 0x9C }
  - { offsetInCU: 0x3C552, offset: 0x3C5CE, size: 0x8, addend: 0x0, symName: __ZNSt3__142__uninitialized_allocator_move_if_noexceptB8ue170006INS_9allocatorINS_12basic_stringIcNS_11char_traitsIcEENS1_IcEEEEEENS_16reverse_iteratorIPS6_EESA_SA_EET2_RT_T0_T1_SB_, symObjAddr: 0x220C8, symBinAddr: 0x260C0, symSize: 0x9C }
  - { offsetInCU: 0x3D1E7, offset: 0x3D263, size: 0x8, addend: 0x0, symName: __ZSt28__throw_bad_array_new_lengthB8ue170006v, symObjAddr: 0x1FF60, symBinAddr: 0x23F58, symSize: 0x28 }
  - { offsetInCU: 0x40A02, offset: 0x40A7E, size: 0x8, addend: 0x0, symName: __ZN2tl6detail15throw_exceptionINS_19bad_expected_accessIN3ada6errorsEEEEEvOT_, symObjAddr: 0x1F5CC, symBinAddr: 0x235C4, symSize: 0x44 }
  - { offsetInCU: 0x42E60, offset: 0x42EDC, size: 0x8, addend: 0x0, symName: __ZNSt3__16vectorINS_4pairINS_12basic_stringIcNS_11char_traitsIcEENS_9allocatorIcEEEES7_EENS5_IS8_EEE26__swap_out_circular_bufferERNS_14__split_bufferIS8_RS9_EE, symObjAddr: 0x1FE20, symBinAddr: 0x23E18, symSize: 0x74 }
  - { offsetInCU: 0x42FEB, offset: 0x43067, size: 0x8, addend: 0x0, symName: __ZNSt3__16vectorINS_12basic_stringIcNS_11char_traitsIcEENS_9allocatorIcEEEENS4_IS6_EEE26__swap_out_circular_bufferERNS_14__split_bufferIS6_RS7_EE, symObjAddr: 0x21FFC, symBinAddr: 0x25FF4, symSize: 0x74 }
  - { offsetInCU: 0x45744, offset: 0x457C0, size: 0x8, addend: 0x0, symName: __ZNSt3__112basic_stringIDiNS_11char_traitsIDiEENS_9allocatorIDiEEE7reserveEm, symObjAddr: 0x764, symBinAddr: 0x4764, symSize: 0x190 }
  - { offsetInCU: 0x45B96, offset: 0x45C12, size: 0x8, addend: 0x0, symName: __ZNSt3__112basic_stringIDiNS_11char_traitsIDiEENS_9allocatorIDiEEE9push_backEDi, symObjAddr: 0x8F4, symBinAddr: 0x48F4, symSize: 0xA4 }
  - { offsetInCU: 0x45D07, offset: 0x45D83, size: 0x8, addend: 0x0, symName: __ZNSt3__112basic_stringIDiNS_11char_traitsIDiEENS_9allocatorIDiEEE25__init_copy_ctor_externalEPKDim, symObjAddr: 0x22650, symBinAddr: 0x26648, symSize: 0x80 }
  - { offsetInCU: 0x45FE1, offset: 0x4605D, size: 0x8, addend: 0x0, symName: __ZNSt3__112basic_stringIDiNS_11char_traitsIDiEENS_9allocatorIDiEEE6resizeEmDi, symObjAddr: 0x226D0, symBinAddr: 0x266C8, symSize: 0x44 }
  - { offsetInCU: 0x45FEC, offset: 0x46068, size: 0x8, addend: 0x0, symName: __ZNSt3__112basic_stringIDiNS_11char_traitsIDiEENS_9allocatorIDiEEEC2B8ue170006ILi0EEEPKDi, symObjAddr: 0x22424, symBinAddr: 0x2641C, symSize: 0xD0 }
  - { offsetInCU: 0x46260, offset: 0x462DC, size: 0x8, addend: 0x0, symName: __ZNKSt3__112basic_stringIDiNS_11char_traitsIDiEENS_9allocatorIDiEEE20__throw_length_errorB8ue170006Ev, symObjAddr: 0x224F4, symBinAddr: 0x264EC, symSize: 0x14 }
  - { offsetInCU: 0x46271, offset: 0x462ED, size: 0x8, addend: 0x0, symName: __ZNSt3__112basic_stringIDiNS_11char_traitsIDiEENS_9allocatorIDiEEED1Ev, symObjAddr: 0x734, symBinAddr: 0x4734, symSize: 0x30 }
  - { offsetInCU: 0x465E6, offset: 0x46662, size: 0x8, addend: 0x0, symName: __ZNKSt3__112basic_stringIDiNS_11char_traitsIDiEENS_9allocatorIDiEEE20__throw_length_errorB8ue170006Ev, symObjAddr: 0x224F4, symBinAddr: 0x264EC, symSize: 0x14 }
  - { offsetInCU: 0x4660F, offset: 0x4668B, size: 0x8, addend: 0x0, symName: __ZNSt3__119__allocate_at_leastB8ue170006INS_9allocatorIDiEEEENS_19__allocation_resultINS_16allocator_traitsIT_E7pointerEEERS5_m, symObjAddr: 0x22508, symBinAddr: 0x26500, symSize: 0x34 }
  - { offsetInCU: 0x466BC, offset: 0x46738, size: 0x8, addend: 0x0, symName: __ZNSt3__112basic_stringIDiNS_11char_traitsIDiEENS_9allocatorIDiEEE9__grow_byEmmmmmm, symObjAddr: 0x2253C, symBinAddr: 0x26534, symSize: 0x114 }
  - { offsetInCU: 0x46C49, offset: 0x46CC5, size: 0x8, addend: 0x0, symName: __ZNSt3__112basic_stringIDiNS_11char_traitsIDiEENS_9allocatorIDiEEE25__init_copy_ctor_externalEPKDim, symObjAddr: 0x22650, symBinAddr: 0x26648, symSize: 0x80 }
  - { offsetInCU: 0x46C98, offset: 0x46D14, size: 0x8, addend: 0x0, symName: __ZNSt3__112basic_stringIDiNS_11char_traitsIDiEENS_9allocatorIDiEEE6resizeEmDi, symObjAddr: 0x226D0, symBinAddr: 0x266C8, symSize: 0x44 }
  - { offsetInCU: 0x46D07, offset: 0x46D83, size: 0x8, addend: 0x0, symName: __ZNSt3__112basic_stringIDiNS_11char_traitsIDiEENS_9allocatorIDiEEE6resizeEmDi, symObjAddr: 0x226D0, symBinAddr: 0x266C8, symSize: 0x44 }
  - { offsetInCU: 0x46FC6, offset: 0x47042, size: 0x8, addend: 0x0, symName: __ZNSt3__112basic_stringIDiNS_11char_traitsIDiEENS_9allocatorIDiEEE6insertENS_11__wrap_iterIPKDiEEDi, symObjAddr: 0x1580, symBinAddr: 0x5580, symSize: 0xF4 }
  - { offsetInCU: 0x47BB9, offset: 0x47C35, size: 0x8, addend: 0x0, symName: __ZNSt3__112basic_stringIcNS_11char_traitsIcEENS_9allocatorIcEEE25__init_copy_ctor_externalEPKcm, symObjAddr: 0x22300, symBinAddr: 0x262F8, symSize: 0x7C }
  - { offsetInCU: 0x47EF3, offset: 0x47F6F, size: 0x8, addend: 0x0, symName: __ZNKSt3__112basic_stringIcNS_11char_traitsIcEENS_9allocatorIcEEE20__throw_length_errorB8ue170006Ev, symObjAddr: 0x2237C, symBinAddr: 0x26374, symSize: 0x14 }
  - { offsetInCU: 0x47EFE, offset: 0x47F7A, size: 0x8, addend: 0x0, symName: __ZNSt3__112basic_stringIDiNS_11char_traitsIDiEENS_9allocatorIDiEEEC2B8ue170006EmDi, symObjAddr: 0x22880, symBinAddr: 0x26878, symSize: 0x90 }
  - { offsetInCU: 0x480A0, offset: 0x4811C, size: 0x8, addend: 0x0, symName: __ZNSt3__112basic_stringIcNS_11char_traitsIcEENS_9allocatorIcEEEC2B8ue170006Emc, symObjAddr: 0x22910, symBinAddr: 0x26908, symSize: 0x98 }
  - { offsetInCU: 0x480AB, offset: 0x48127, size: 0x8, addend: 0x0, symName: __ZNSt3__112basic_stringIcNS_11char_traitsIcEENS_9allocatorIcEEEC2B8ue170006ILi0EEEPKc, symObjAddr: 0x227E0, symBinAddr: 0x267D8, symSize: 0xA0 }
  - { offsetInCU: 0x48403, offset: 0x4847F, size: 0x8, addend: 0x0, symName: __ZNSt3__112basic_stringIDiNS_11char_traitsIDiEENS_9allocatorIDiEEEC2B8ue170006EmDi, symObjAddr: 0x22880, symBinAddr: 0x26878, symSize: 0x90 }
  - { offsetInCU: 0x48414, offset: 0x48490, size: 0x8, addend: 0x0, symName: __ZNKSt3__112basic_stringIcNS_11char_traitsIcEENS_9allocatorIcEEE20__throw_length_errorB8ue170006Ev, symObjAddr: 0x2237C, symBinAddr: 0x26374, symSize: 0x14 }
  - { offsetInCU: 0x4843D, offset: 0x484B9, size: 0x8, addend: 0x0, symName: __ZNSt3__16vectorINS_12basic_stringIcNS_11char_traitsIcEENS_9allocatorIcEEEENS4_IS6_EEE16__destroy_vectorclB8ue170006Ev, symObjAddr: 0x22390, symBinAddr: 0x26388, symSize: 0x40 }
  - { offsetInCU: 0x485AB, offset: 0x48627, size: 0x8, addend: 0x0, symName: __ZNSt3__112basic_stringIcNS_11char_traitsIcEENS_9allocatorIcEEEC2B8ue170006Emc, symObjAddr: 0x22910, symBinAddr: 0x26908, symSize: 0x98 }
  - { offsetInCU: 0x487A6, offset: 0x48822, size: 0x8, addend: 0x0, symName: __ZNSt3__16__itoa13__base_10_u32B8ue170006EPcj, symObjAddr: 0x229A8, symBinAddr: 0x269A0, symSize: 0x2F4 }
  - { offsetInCU: 0x487B1, offset: 0x4882D, size: 0x8, addend: 0x0, symName: __ZNSt3__112basic_stringIcNS_11char_traitsIcEENS_9allocatorIcEEEC1INS_17basic_string_viewIcS2_EELi0EEERKT_, symObjAddr: 0x32D4, symBinAddr: 0x72D4, symSize: 0x98 }
  - { offsetInCU: 0x48AEF, offset: 0x48B6B, size: 0x8, addend: 0x0, symName: __ZN3ada7unicode14percent_encodeENSt3__117basic_string_viewIcNS1_11char_traitsIcEEEEPKh, symObjAddr: 0x336C, symBinAddr: 0x736C, symSize: 0x17C }
  - { offsetInCU: 0x48BB2, offset: 0x48C2E, size: 0x8, addend: 0x0, symName: __ZNSt3__18optionalINS_12basic_stringIcNS_11char_traitsIcEENS_9allocatorIcEEEEEaSB8ue170006IS6_vEERS7_OT_, symObjAddr: 0x3690, symBinAddr: 0x7690, symSize: 0x78 }
  - { offsetInCU: 0x48F5D, offset: 0x48FD9, size: 0x8, addend: 0x0, symName: __ZNSt3__16__itoa10__integralILj16EE10__to_charsB8ue170006IjEENS_15to_chars_resultEPcS5_T_, symObjAddr: 0x22D40, symBinAddr: 0x26D38, symSize: 0xA4 }
  - { offsetInCU: 0x48FDD, offset: 0x49059, size: 0x8, addend: 0x0, symName: __ZNSt3__16__itoa10__integralILj16EE10__to_charsB8ue170006IjEENS_15to_chars_resultEPcS5_T_, symObjAddr: 0x22D40, symBinAddr: 0x26D38, symSize: 0xA4 }
  - { offsetInCU: 0x496DF, offset: 0x4975B, size: 0x8, addend: 0x0, symName: __ZN3ada3urlC2EOS0_, symObjAddr: 0x1EA88, symBinAddr: 0x22A88, symSize: 0x12C }
  - { offsetInCU: 0x49718, offset: 0x49794, size: 0x8, addend: 0x0, symName: __ZN3ada3urlC2EOS0_, symObjAddr: 0x1EA88, symBinAddr: 0x22A88, symSize: 0x12C }
  - { offsetInCU: 0x49F1E, offset: 0x49F9A, size: 0x8, addend: 0x0, symName: __ZN3ada3urlD2Ev, symObjAddr: 0x1EBCC, symBinAddr: 0x22BC4, symSize: 0xB4 }
  - { offsetInCU: 0x4B87E, offset: 0x4B8FA, size: 0x8, addend: 0x0, symName: __ZNSt3__18optionalINS_12basic_stringIcNS_11char_traitsIcEENS_9allocatorIcEEEEEaSB8ue170006IRA1_KcvEERS7_OT_, symObjAddr: 0x13FD4, symBinAddr: 0x17FD4, symSize: 0x44 }
  - { offsetInCU: 0x4B95C, offset: 0x4B9D8, size: 0x8, addend: 0x0, symName: __ZNSt3__123__optional_storage_baseINS_12basic_stringIcNS_11char_traitsIcEENS_9allocatorIcEEEELb0EE13__assign_fromB8ue170006IRKNS_27__optional_copy_assign_baseIS6_Lb0EEEEEvOT_, symObjAddr: 0x1EEF4, symBinAddr: 0x22EEC, symSize: 0x90 }
  - { offsetInCU: 0x4BBA7, offset: 0x4BC23, size: 0x8, addend: 0x0, symName: __ZNKSt3__117basic_string_viewIcNS_11char_traitsIcEEE13find_first_ofB8ue170006EPKcm, symObjAddr: 0x11958, symBinAddr: 0x15958, symSize: 0x90 }
  - { offsetInCU: 0x4BCD8, offset: 0x4BD54, size: 0x8, addend: 0x0, symName: __ZN3ada3url10parse_ipv6ENSt3__117basic_string_viewIcNS1_11char_traitsIcEEEE, symObjAddr: 0xDF84, symBinAddr: 0x11F84, symSize: 0x30C }
  - { offsetInCU: 0x4BFE7, offset: 0x4C063, size: 0x8, addend: 0x0, symName: __ZN3ada3url17parse_opaque_hostENSt3__117basic_string_viewIcNS1_11char_traitsIcEEEE, symObjAddr: 0xD9E0, symBinAddr: 0x119E0, symSize: 0x98 }
  - { offsetInCU: 0x4C1A0, offset: 0x4C21C, size: 0x8, addend: 0x0, symName: __ZNSt3__16__itoa8__traitsItE6__readB8ue170006EPKcS4_RjS5_, symObjAddr: 0x1F154, symBinAddr: 0x2314C, symSize: 0xF4 }
  - { offsetInCU: 0x4C268, offset: 0x4C2E4, size: 0x8, addend: 0x0, symName: __ZNKSt3__117basic_string_viewIcNS_11char_traitsIcEEE4findB8ue170006EPKcm, symObjAddr: 0x1ED08, symBinAddr: 0x22D00, symSize: 0xC0 }
  - { offsetInCU: 0x4C405, offset: 0x4C481, size: 0x8, addend: 0x0, symName: __ZNSt3__18optionalINS_12basic_stringIcNS_11char_traitsIcEENS_9allocatorIcEEEEEaSB8ue170006IRNS_17basic_string_viewIcS3_EEvEERS7_OT_, symObjAddr: 0xDF40, symBinAddr: 0x11F40, symSize: 0x44 }
  - { offsetInCU: 0x4C4C6, offset: 0x4C542, size: 0x8, addend: 0x0, symName: __ZNKSt3__112basic_stringIcNS_11char_traitsIcEENS_9allocatorIcEEE4findB8ue170006EPKcm, symObjAddr: 0x1F080, symBinAddr: 0x23078, symSize: 0xD4 }
  - { offsetInCU: 0x4C6AF, offset: 0x4C72B, size: 0x8, addend: 0x0, symName: __ZN3ada3url10parse_ipv4ENSt3__117basic_string_viewIcNS1_11char_traitsIcEEEE, symObjAddr: 0xDA78, symBinAddr: 0x11A78, symSize: 0x4C8 }
  - { offsetInCU: 0x4CE04, offset: 0x4CE80, size: 0x8, addend: 0x0, symName: __ZN3ada3url26update_unencoded_base_hashENSt3__117basic_string_viewIcNS1_11char_traitsIcEEEE, symObjAddr: 0x13D14, symBinAddr: 0x17D14, symSize: 0x5C }
  - { offsetInCU: 0x4CF69, offset: 0x4CFE5, size: 0x8, addend: 0x0, symName: __ZN3ada3urlD1Ev, symObjAddr: 0x6EAC, symBinAddr: 0xAEAC, symSize: 0x4 }
  - { offsetInCU: 0x4CF8B, offset: 0x4D007, size: 0x8, addend: 0x0, symName: __ZN3ada3urlD1Ev, symObjAddr: 0x6EAC, symBinAddr: 0xAEAC, symSize: 0x4 }
  - { offsetInCU: 0x4D97A, offset: 0x4D9F6, size: 0x8, addend: 0x0, symName: __ZN3ada14url_aggregator20append_base_passwordENSt3__117basic_string_viewIcNS1_11char_traitsIcEEEE, symObjAddr: 0x145F8, symBinAddr: 0x185F8, symSize: 0x1BC }
  - { offsetInCU: 0x4DC34, offset: 0x4DCB0, size: 0x8, addend: 0x0, symName: __ZN3ada14url_aggregator20append_base_usernameENSt3__117basic_string_viewIcNS1_11char_traitsIcEEEE, symObjAddr: 0x147B4, symBinAddr: 0x187B4, symSize: 0x170 }
  - { offsetInCU: 0x4DE50, offset: 0x4DECC, size: 0x8, addend: 0x0, symName: __ZNK3ada14url_aggregator8get_hostEv, symObjAddr: 0x15D4C, symBinAddr: 0x19D4C, symSize: 0x5C }
  - { offsetInCU: 0x4DFB4, offset: 0x4E030, size: 0x8, addend: 0x0, symName: __ZN3ada14url_aggregator20set_host_or_hostnameILb0EEEbNSt3__117basic_string_viewIcNS2_11char_traitsIcEEEE, symObjAddr: 0x17CA0, symBinAddr: 0x1BCA0, symSize: 0x1518 }
  - { offsetInCU: 0x5137A, offset: 0x513F6, size: 0x8, addend: 0x0, symName: __ZN3ada14url_aggregator10parse_ipv6ENSt3__117basic_string_viewIcNS1_11char_traitsIcEEEE, symObjAddr: 0x1B750, symBinAddr: 0x1F750, symSize: 0x340 }
  - { offsetInCU: 0x51829, offset: 0x518A5, size: 0x8, addend: 0x0, symName: __ZN3ada14url_aggregator20update_base_hostnameENSt3__117basic_string_viewIcNS1_11char_traitsIcEEEE, symObjAddr: 0x14FE4, symBinAddr: 0x18FE4, symSize: 0x204 }
  - { offsetInCU: 0x51B12, offset: 0x51B8E, size: 0x8, addend: 0x0, symName: __ZNK3ada14url_aggregator12get_hostnameEv, symObjAddr: 0x14B54, symBinAddr: 0x18B54, symSize: 0x48 }
  - { offsetInCU: 0x51C6D, offset: 0x51CE9, size: 0x8, addend: 0x0, symName: __ZN3ada14url_aggregator20set_host_or_hostnameILb1EEEbNSt3__117basic_string_viewIcNS2_11char_traitsIcEEEE, symObjAddr: 0x191B8, symBinAddr: 0x1D1B8, symSize: 0x145C }
  - { offsetInCU: 0x54DD2, offset: 0x54E4E, size: 0x8, addend: 0x0, symName: __ZN3ada14url_aggregator21consume_prepared_pathENSt3__117basic_string_viewIcNS1_11char_traitsIcEEEE, symObjAddr: 0x153E0, symBinAddr: 0x193E0, symSize: 0x968 }
  - { offsetInCU: 0x56760, offset: 0x567DC, size: 0x8, addend: 0x0, symName: __ZN3ada14url_aggregator20update_base_pathnameENSt3__117basic_string_viewIcNS1_11char_traitsIcEEEE, symObjAddr: 0x14118, symBinAddr: 0x18118, symSize: 0x240 }
  - { offsetInCU: 0x56C85, offset: 0x56D01, size: 0x8, addend: 0x0, symName: __ZNK3ada14url_aggregator12get_pathnameEv, symObjAddr: 0x14358, symBinAddr: 0x18358, symSize: 0x50 }
  - { offsetInCU: 0x56C90, offset: 0x56D0C, size: 0x8, addend: 0x0, symName: __ZN3ada14url_aggregator17parse_opaque_hostENSt3__117basic_string_viewIcNS1_11char_traitsIcEEEE, symObjAddr: 0x1BA90, symBinAddr: 0x1FA90, symSize: 0x128 }
  - { offsetInCU: 0x570BF, offset: 0x5713B, size: 0x8, addend: 0x0, symName: __ZN3ada14url_aggregator21update_base_authorityENSt3__117basic_string_viewIcNS1_11char_traitsIcEEEERKNS_14url_componentsE, symObjAddr: 0x14924, symBinAddr: 0x18924, symSize: 0x22C }
  - { offsetInCU: 0x57475, offset: 0x574F1, size: 0x8, addend: 0x0, symName: __ZN3ada14url_aggregator12set_hostnameENSt3__117basic_string_viewIcNS1_11char_traitsIcEEEE, symObjAddr: 0x14B50, symBinAddr: 0x18B50, symSize: 0x4 }
  - { offsetInCU: 0x57480, offset: 0x574FC, size: 0x8, addend: 0x0, symName: __ZN3ada14url_aggregator16update_base_portEj, symObjAddr: 0x14B9C, symBinAddr: 0x18B9C, symSize: 0x1AC }
  - { offsetInCU: 0x578BE, offset: 0x5793A, size: 0x8, addend: 0x0, symName: __ZNK3ada14url_aggregator10get_searchEv, symObjAddr: 0x144D8, symBinAddr: 0x184D8, symSize: 0x78 }
  - { offsetInCU: 0x579C0, offset: 0x57A3C, size: 0x8, addend: 0x0, symName: __ZN3ada14url_aggregator18update_base_searchENSt3__117basic_string_viewIcNS1_11char_traitsIcEEEE, symObjAddr: 0x143A8, symBinAddr: 0x183A8, symSize: 0x130 }
  - { offsetInCU: 0x57B1C, offset: 0x57B98, size: 0x8, addend: 0x0, symName: __ZN3ada14url_aggregator20append_base_pathnameENSt3__117basic_string_viewIcNS1_11char_traitsIcEEEE, symObjAddr: 0x15DA8, symBinAddr: 0x19DA8, symSize: 0x88 }
  - { offsetInCU: 0x57C08, offset: 0x57C84, size: 0x8, addend: 0x0, symName: __ZN3ada14url_aggregator10set_schemeENSt3__117basic_string_viewIcNS1_11char_traitsIcEEEE, symObjAddr: 0x2335C, symBinAddr: 0x27354, symSize: 0x16C }
  - { offsetInCU: 0x57E02, offset: 0x57E7E, size: 0x8, addend: 0x0, symName: __ZN3ada14url_aggregator14clear_pathnameEv, symObjAddr: 0x15E9C, symBinAddr: 0x19E9C, symSize: 0xF0 }
  - { offsetInCU: 0x57F21, offset: 0x57F9D, size: 0x8, addend: 0x0, symName: __ZNK3ada14url_aggregator12get_pathnameEv, symObjAddr: 0x14358, symBinAddr: 0x18358, symSize: 0x50 }
  - { offsetInCU: 0x57F4E, offset: 0x57FCA, size: 0x8, addend: 0x0, symName: __ZNK3ada14url_aggregator12get_pathnameEv, symObjAddr: 0x14358, symBinAddr: 0x18358, symSize: 0x50 }
  - { offsetInCU: 0x57F63, offset: 0x57FDF, size: 0x8, addend: 0x0, symName: __ZNK3ada14url_aggregator12get_pathnameEv, symObjAddr: 0x14358, symBinAddr: 0x18358, symSize: 0x50 }
  - { offsetInCU: 0x58021, offset: 0x5809D, size: 0x8, addend: 0x0, symName: __ZN3ada14url_aggregator10parse_ipv4ENSt3__117basic_string_viewIcNS1_11char_traitsIcEEEEb, symObjAddr: 0x1B244, symBinAddr: 0x1F244, symSize: 0x50C }
  - { offsetInCU: 0x58901, offset: 0x5897D, size: 0x8, addend: 0x0, symName: __ZN3ada14url_aggregator18update_base_searchENSt3__117basic_string_viewIcNS1_11char_traitsIcEEEEPKh, symObjAddr: 0x14DA4, symBinAddr: 0x18DA4, symSize: 0x240 }
  - { offsetInCU: 0x58EFC, offset: 0x58F78, size: 0x8, addend: 0x0, symName: __ZN3ada14url_aggregator26update_unencoded_base_hashENSt3__117basic_string_viewIcNS1_11char_traitsIcEEEE, symObjAddr: 0x14550, symBinAddr: 0x18550, symSize: 0xA8 }
  - { offsetInCU: 0x59025, offset: 0x590A1, size: 0x8, addend: 0x0, symName: __ZN3ada14url_aggregator11copy_schemeERKS0_, symObjAddr: 0x1403C, symBinAddr: 0x1803C, symSize: 0xDC }
  - { offsetInCU: 0x5911C, offset: 0x59198, size: 0x8, addend: 0x0, symName: __ZN3ada14url_aggregatorD1Ev, symObjAddr: 0x9E68, symBinAddr: 0xDE68, symSize: 0x3C }
  - { offsetInCU: 0x59486, offset: 0x59502, size: 0x8, addend: 0x0, symName: __ZNSt3__16__itoa8__traitsIjE6__readB8ue170006EPKcS4_RjS5_, symObjAddr: 0x22DE4, symBinAddr: 0x26DDC, symSize: 0xF4 }
  - { offsetInCU: 0x5954C, offset: 0x595C8, size: 0x8, addend: 0x0, symName: __ZNSt3__123__optional_storage_baseINS_12basic_stringIcNS_11char_traitsIcEENS_9allocatorIcEEEELb0EE11__constructB8ue170006IJRNS_17basic_string_viewIcS3_EEEEEvDpOT_, symObjAddr: 0x22264, symBinAddr: 0x2625C, symSize: 0x9C }
  - { offsetInCU: 0x598B6, offset: 0x59932, size: 0x8, addend: 0x0, symName: __ZNSt3__112basic_stringIcNS_11char_traitsIcEENS_9allocatorIcEEE25__init_copy_ctor_externalEPKcm, symObjAddr: 0x22300, symBinAddr: 0x262F8, symSize: 0x7C }
  - { offsetInCU: 0x5998E, offset: 0x59A0A, size: 0x8, addend: 0x0, symName: __ZNK3ada3url9to_stringEv, symObjAddr: 0xE290, symBinAddr: 0x12290, symSize: 0x3E4 }
  - { offsetInCU: 0x5A429, offset: 0x5A4A5, size: 0x8, addend: 0x0, symName: __ZNK3ada3url12get_protocolEv, symObjAddr: 0xE754, symBinAddr: 0x12754, symSize: 0xA8 }
  - { offsetInCU: 0x5A661, offset: 0x5A6DD, size: 0x8, addend: 0x0, symName: __ZNK3ada3url16has_valid_domainEv, symObjAddr: 0xE7FC, symBinAddr: 0x127FC, symSize: 0xB0 }
  - { offsetInCU: 0x5A955, offset: 0x5A9D1, size: 0x8, addend: 0x0, symName: __ZNK3ada3url10get_originEv, symObjAddr: 0xE8AC, symBinAddr: 0x128AC, symSize: 0x1CC }
  - { offsetInCU: 0x5B247, offset: 0x5B2C3, size: 0x8, addend: 0x0, symName: __ZNK3ada3url8get_hostEv, symObjAddr: 0xEB84, symBinAddr: 0x12B84, symSize: 0x158 }
  - { offsetInCU: 0x5BAB8, offset: 0x5BB34, size: 0x8, addend: 0x0, symName: __ZNSt3__112basic_stringIcNS_11char_traitsIcEENS_9allocatorIcEEEC2B8ue170006ENS_24__uninitialized_size_tagEmRKS4_, symObjAddr: 0x22FFC, symBinAddr: 0x26FF4, symSize: 0x74 }
  - { offsetInCU: 0x5BC4C, offset: 0x5BCC8, size: 0x8, addend: 0x0, symName: __ZNSt3__120__optional_copy_baseINS_12basic_stringIcNS_11char_traitsIcEENS_9allocatorIcEEEELb0EEC2B8ue170006ERKS7_, symObjAddr: 0x23070, symBinAddr: 0x27068, symSize: 0x48 }
  - { offsetInCU: 0x5BC57, offset: 0x5BCD3, size: 0x8, addend: 0x0, symName: __ZNK3ada3url8get_portEv, symObjAddr: 0xEE98, symBinAddr: 0x12E98, symSize: 0x38 }
  - { offsetInCU: 0x5BCF4, offset: 0x5BD70, size: 0x8, addend: 0x0, symName: __ZNKSt3__112basic_stringIcNS_11char_traitsIcEENS_9allocatorIcEEE20__throw_out_of_rangeB8ue170006Ev, symObjAddr: 0x1F4FC, symBinAddr: 0x234F4, symSize: 0x14 }
  - { offsetInCU: 0x5BD1D, offset: 0x5BD99, size: 0x8, addend: 0x0, symName: __ZN2tl6detail18expected_copy_baseIN3ada14url_aggregatorENS2_6errorsELb0EEC2ERKS5_, symObjAddr: 0x1F510, symBinAddr: 0x23508, symSize: 0x3C }
  - { offsetInCU: 0x5BD28, offset: 0x5BDA4, size: 0x8, addend: 0x0, symName: __ZNK3ada3url12get_hostnameEv, symObjAddr: 0xEED0, symBinAddr: 0x12ED0, symSize: 0x24 }
  - { offsetInCU: 0x5BD5F, offset: 0x5BDDB, size: 0x8, addend: 0x0, symName: __ZNKRSt3__18optionalINS_12basic_stringIcNS_11char_traitsIcEENS_9allocatorIcEEEEE8value_orB8ue170006IRA1_KcEES6_OT_, symObjAddr: 0xEEF4, symBinAddr: 0x12EF4, symSize: 0x38 }
  - { offsetInCU: 0x5BD98, offset: 0x5BE14, size: 0x8, addend: 0x0, symName: __ZNKRSt3__18optionalINS_12basic_stringIcNS_11char_traitsIcEENS_9allocatorIcEEEEE8value_orB8ue170006IRA1_KcEES6_OT_, symObjAddr: 0xEEF4, symBinAddr: 0x12EF4, symSize: 0x38 }
  - { offsetInCU: 0x5BE74, offset: 0x5BEF0, size: 0x8, addend: 0x0, symName: __ZNK3ada3url12get_pathnameEv, symObjAddr: 0xEF2C, symBinAddr: 0x12F2C, symSize: 0x20 }
  - { offsetInCU: 0x5BF08, offset: 0x5BF84, size: 0x8, addend: 0x0, symName: __ZNK3ada3url10get_searchEv, symObjAddr: 0xEF4C, symBinAddr: 0x12F4C, symSize: 0x58 }
  - { offsetInCU: 0x5BFE2, offset: 0x5C05E, size: 0x8, addend: 0x0, symName: __ZNK3ada3url12get_usernameEv, symObjAddr: 0xEFA4, symBinAddr: 0x12FA4, symSize: 0x8 }
  - { offsetInCU: 0x5C00C, offset: 0x5C088, size: 0x8, addend: 0x0, symName: __ZNK3ada3url12get_passwordEv, symObjAddr: 0xEFAC, symBinAddr: 0x12FAC, symSize: 0x8 }
  - { offsetInCU: 0x5C036, offset: 0x5C0B2, size: 0x8, addend: 0x0, symName: __ZNK3ada3url8get_hashEv, symObjAddr: 0xEFB4, symBinAddr: 0x12FB4, symSize: 0x58 }
  - { offsetInCU: 0x5C110, offset: 0x5C18C, size: 0x8, addend: 0x0, symName: __ZN3ada3url8set_hostENSt3__117basic_string_viewIcNS1_11char_traitsIcEEEE, symObjAddr: 0xF00C, symBinAddr: 0x1300C, symSize: 0x4 }
  - { offsetInCU: 0x5C146, offset: 0x5C1C2, size: 0x8, addend: 0x0, symName: __ZN3ada3url8set_hostENSt3__117basic_string_viewIcNS1_11char_traitsIcEEEE, symObjAddr: 0xF00C, symBinAddr: 0x1300C, symSize: 0x4 }
  - { offsetInCU: 0x5C151, offset: 0x5C1CD, size: 0x8, addend: 0x0, symName: __ZN3ada3url20set_host_or_hostnameILb0EEEbNSt3__117basic_string_viewIcNS2_11char_traitsIcEEEE, symObjAddr: 0xF010, symBinAddr: 0x13010, symSize: 0x1340 }
  - { offsetInCU: 0x5F39F, offset: 0x5F41B, size: 0x8, addend: 0x0, symName: __ZNSt3__120__optional_copy_baseINS_12basic_stringIcNS_11char_traitsIcEENS_9allocatorIcEEEELb0EEC2B8ue170006ERKS7_, symObjAddr: 0x23070, symBinAddr: 0x27068, symSize: 0x48 }
  - { offsetInCU: 0x5F47D, offset: 0x5F4F9, size: 0x8, addend: 0x0, symName: __ZNSt3__112basic_stringIcNS_11char_traitsIcEENS_9allocatorIcEEEC2B8ue170006EPKcm, symObjAddr: 0x23110, symBinAddr: 0x27108, symSize: 0x98 }
  - { offsetInCU: 0x5F7B5, offset: 0x5F831, size: 0x8, addend: 0x0, symName: __ZN3ada6scheme15get_scheme_typeENSt3__117basic_string_viewIcNS1_11char_traitsIcEEEE, symObjAddr: 0x231A8, symBinAddr: 0x271A0, symSize: 0x88 }
  - { offsetInCU: 0x5F7C0, offset: 0x5F83C, size: 0x8, addend: 0x0, symName: __ZN3ada3url8set_portENSt3__117basic_string_viewIcNS1_11char_traitsIcEEEE, symObjAddr: 0x1175C, symBinAddr: 0x1575C, symSize: 0x1FC }
  - { offsetInCU: 0x6003A, offset: 0x600B6, size: 0x8, addend: 0x0, symName: __ZN3ada3url12set_hostnameENSt3__117basic_string_viewIcNS1_11char_traitsIcEEEE, symObjAddr: 0x10350, symBinAddr: 0x14350, symSize: 0x4 }
  - { offsetInCU: 0x60070, offset: 0x600EC, size: 0x8, addend: 0x0, symName: __ZN3ada3url12set_hostnameENSt3__117basic_string_viewIcNS1_11char_traitsIcEEEE, symObjAddr: 0x10350, symBinAddr: 0x14350, symSize: 0x4 }
  - { offsetInCU: 0x6007B, offset: 0x600F7, size: 0x8, addend: 0x0, symName: __ZN3ada3url20set_host_or_hostnameILb1EEEbNSt3__117basic_string_viewIcNS2_11char_traitsIcEEEE, symObjAddr: 0x10354, symBinAddr: 0x14354, symSize: 0x12C8 }
  - { offsetInCU: 0x63176, offset: 0x631F2, size: 0x8, addend: 0x0, symName: __ZN3ada3url12set_usernameENSt3__117basic_string_viewIcNS1_11char_traitsIcEEEE, symObjAddr: 0x1161C, symBinAddr: 0x1561C, symSize: 0xA0 }
  - { offsetInCU: 0x633A7, offset: 0x63423, size: 0x8, addend: 0x0, symName: __ZN3ada3url12set_passwordENSt3__117basic_string_viewIcNS1_11char_traitsIcEEEE, symObjAddr: 0x116BC, symBinAddr: 0x156BC, symSize: 0xA0 }
  - { offsetInCU: 0x6363A, offset: 0x636B6, size: 0x8, addend: 0x0, symName: __ZN3ada3url8set_hashENSt3__117basic_string_viewIcNS1_11char_traitsIcEEEE, symObjAddr: 0x119E8, symBinAddr: 0x159E8, symSize: 0x27C }
  - { offsetInCU: 0x64218, offset: 0x64294, size: 0x8, addend: 0x0, symName: __ZN3ada3url10set_searchENSt3__117basic_string_viewIcNS1_11char_traitsIcEEEE, symObjAddr: 0x11C64, symBinAddr: 0x15C64, symSize: 0x290 }
  - { offsetInCU: 0x64E60, offset: 0x64EDC, size: 0x8, addend: 0x0, symName: __ZN3ada3url12set_pathnameENSt3__117basic_string_viewIcNS1_11char_traitsIcEEEE, symObjAddr: 0x11EF4, symBinAddr: 0x15EF4, symSize: 0x1800 }
  - { offsetInCU: 0x68090, offset: 0x6810C, size: 0x8, addend: 0x0, symName: __ZN3ada3url12set_protocolENSt3__117basic_string_viewIcNS1_11char_traitsIcEEEE, symObjAddr: 0x136F4, symBinAddr: 0x176F4, symSize: 0x4C0 }
  - { offsetInCU: 0x6946C, offset: 0x694E8, size: 0x8, addend: 0x0, symName: __ZN3ada3url10set_schemeEONSt3__112basic_stringIcNS1_11char_traitsIcEENS1_9allocatorIcEEEE, symObjAddr: 0x23230, symBinAddr: 0x27228, symSize: 0x58 }
  - { offsetInCU: 0x69518, offset: 0x69594, size: 0x8, addend: 0x0, symName: __ZN3ada3url8set_hrefENSt3__117basic_string_viewIcNS1_11char_traitsIcEEEE, symObjAddr: 0x13BB4, symBinAddr: 0x17BB4, symSize: 0x160 }
  - { offsetInCU: 0x69AA6, offset: 0x69B22, size: 0x8, addend: 0x0, symName: __ZN3ada3url12clear_searchEv, symObjAddr: 0x13D70, symBinAddr: 0x17D70, symSize: 0x38 }
  - { offsetInCU: 0x69C30, offset: 0x69CAC, size: 0x8, addend: 0x0, symName: __ZN3ada3url10parse_portENSt3__117basic_string_viewIcNS1_11char_traitsIcEEEEb, symObjAddr: 0x13DA8, symBinAddr: 0x17DA8, symSize: 0x1BC }
  - { offsetInCU: 0x69E27, offset: 0x69EA3, size: 0x8, addend: 0x0, symName: __ZN3ada3url14clear_pathnameEv, symObjAddr: 0x14018, symBinAddr: 0x18018, symSize: 0x24 }
  - { offsetInCU: 0x69E60, offset: 0x69EDC, size: 0x8, addend: 0x0, symName: __ZN3ada3url14clear_pathnameEv, symObjAddr: 0x14018, symBinAddr: 0x18018, symSize: 0x24 }
  - { offsetInCU: 0x6A053, offset: 0x6A0CF, size: 0x8, addend: 0x0, symName: __ZN3ada14url_aggregator15delete_dash_dotEv, symObjAddr: 0x1CDC4, symBinAddr: 0x20DC4, symSize: 0x5C }
  - { offsetInCU: 0x6A0AD, offset: 0x6A129, size: 0x8, addend: 0x0, symName: __ZN3ada14url_aggregator12set_hostnameENSt3__117basic_string_viewIcNS1_11char_traitsIcEEEE, symObjAddr: 0x14B50, symBinAddr: 0x18B50, symSize: 0x4 }
  - { offsetInCU: 0x6A0D4, offset: 0x6A150, size: 0x8, addend: 0x0, symName: __ZN3ada14url_aggregator12set_hostnameENSt3__117basic_string_viewIcNS1_11char_traitsIcEEEE, symObjAddr: 0x14B50, symBinAddr: 0x18B50, symSize: 0x4 }
  - { offsetInCU: 0x6A10D, offset: 0x6A189, size: 0x8, addend: 0x0, symName: __ZN3ada14url_aggregator12clear_searchEv, symObjAddr: 0x14D48, symBinAddr: 0x18D48, symSize: 0x5C }
  - { offsetInCU: 0x6A1F9, offset: 0x6A275, size: 0x8, addend: 0x0, symName: __ZN3ada14url_aggregator10parse_portENSt3__117basic_string_viewIcNS1_11char_traitsIcEEEEb, symObjAddr: 0x151E8, symBinAddr: 0x191E8, symSize: 0x1F8 }
  - { offsetInCU: 0x6A411, offset: 0x6A48D, size: 0x8, addend: 0x0, symName: __ZN3ada14url_aggregator8set_hostENSt3__117basic_string_viewIcNS1_11char_traitsIcEEEE, symObjAddr: 0x15D48, symBinAddr: 0x19D48, symSize: 0x4 }
  - { offsetInCU: 0x6A438, offset: 0x6A4B4, size: 0x8, addend: 0x0, symName: __ZN3ada14url_aggregator8set_hostENSt3__117basic_string_viewIcNS1_11char_traitsIcEEEE, symObjAddr: 0x15D48, symBinAddr: 0x19D48, symSize: 0x4 }
  - { offsetInCU: 0x6A47A, offset: 0x6A4F6, size: 0x8, addend: 0x0, symName: __ZNK3ada14url_components24check_offset_consistencyEv, symObjAddr: 0x15F94, symBinAddr: 0x19F94, symSize: 0xC8 }
  - { offsetInCU: 0x6A517, offset: 0x6A593, size: 0x8, addend: 0x0, symName: __ZNK3ada14url_components9to_stringEv, symObjAddr: 0x1605C, symBinAddr: 0x1A05C, symSize: 0x3C8 }
  - { offsetInCU: 0x6B554, offset: 0x6B5D0, size: 0x8, addend: 0x0, symName: __ZN3ada14url_aggregator12set_protocolENSt3__117basic_string_viewIcNS1_11char_traitsIcEEEE, symObjAddr: 0x16424, symBinAddr: 0x1A424, symSize: 0x488 }
  - { offsetInCU: 0x6C60B, offset: 0x6C687, size: 0x8, addend: 0x0, symName: __ZN3ada14url_aggregator31set_scheme_from_view_with_colonENSt3__117basic_string_viewIcNS1_11char_traitsIcEEEE, symObjAddr: 0x23288, symBinAddr: 0x27280, symSize: 0xD4 }
  - { offsetInCU: 0x6C70E, offset: 0x6C78A, size: 0x8, addend: 0x0, symName: __ZN3ada14url_aggregator10clear_portEv, symObjAddr: 0x17210, symBinAddr: 0x1B210, symSize: 0x78 }
  - { offsetInCU: 0x6C751, offset: 0x6C7CD, size: 0x8, addend: 0x0, symName: __ZN3ada14url_aggregator12set_usernameENSt3__117basic_string_viewIcNS1_11char_traitsIcEEEE, symObjAddr: 0x168AC, symBinAddr: 0x1A8AC, symSize: 0x114 }
  - { offsetInCU: 0x6CB59, offset: 0x6CBD5, size: 0x8, addend: 0x0, symName: __ZN3ada14url_aggregator20update_base_usernameENSt3__117basic_string_viewIcNS1_11char_traitsIcEEEE, symObjAddr: 0x169C0, symBinAddr: 0x1A9C0, symSize: 0x274 }
  - { offsetInCU: 0x6CEFB, offset: 0x6CF77, size: 0x8, addend: 0x0, symName: __ZN3ada14url_aggregator12set_passwordENSt3__117basic_string_viewIcNS1_11char_traitsIcEEEE, symObjAddr: 0x16C34, symBinAddr: 0x1AC34, symSize: 0x114 }
  - { offsetInCU: 0x6D303, offset: 0x6D37F, size: 0x8, addend: 0x0, symName: __ZN3ada14url_aggregator20update_base_passwordENSt3__117basic_string_viewIcNS1_11char_traitsIcEEEE, symObjAddr: 0x16D48, symBinAddr: 0x1AD48, symSize: 0x274 }
  - { offsetInCU: 0x6D711, offset: 0x6D78D, size: 0x8, addend: 0x0, symName: __ZN3ada14url_aggregator8set_portENSt3__117basic_string_viewIcNS1_11char_traitsIcEEEE, symObjAddr: 0x16FBC, symBinAddr: 0x1AFBC, symSize: 0x254 }
  - { offsetInCU: 0x6E03A, offset: 0x6E0B6, size: 0x8, addend: 0x0, symName: __ZN3ada14url_aggregator12set_pathnameENSt3__117basic_string_viewIcNS1_11char_traitsIcEEEE, symObjAddr: 0x17288, symBinAddr: 0x1B288, symSize: 0x374 }
  - { offsetInCU: 0x6EB12, offset: 0x6EB8E, size: 0x8, addend: 0x0, symName: __ZNK3ada14url_aggregator12has_dash_dotEv, symObjAddr: 0x175FC, symBinAddr: 0x1B5FC, symSize: 0x54 }
  - { offsetInCU: 0x6EBCC, offset: 0x6EC48, size: 0x8, addend: 0x0, symName: __ZN3ada14url_aggregator10set_searchENSt3__117basic_string_viewIcNS1_11char_traitsIcEEEE, symObjAddr: 0x17650, symBinAddr: 0x1B650, symSize: 0x294 }
  - { offsetInCU: 0x6F567, offset: 0x6F5E3, size: 0x8, addend: 0x0, symName: __ZN3ada14url_aggregator8set_hashENSt3__117basic_string_viewIcNS1_11char_traitsIcEEEE, symObjAddr: 0x178E4, symBinAddr: 0x1B8E4, symSize: 0x2EC }
  - { offsetInCU: 0x70125, offset: 0x701A1, size: 0x8, addend: 0x0, symName: __ZN3ada14url_aggregator8set_hrefENSt3__117basic_string_viewIcNS1_11char_traitsIcEEEE, symObjAddr: 0x17BD0, symBinAddr: 0x1BBD0, symSize: 0xD0 }
  - { offsetInCU: 0x706CF, offset: 0x7074B, size: 0x8, addend: 0x0, symName: __ZNK3ada14url_aggregator8has_portEv, symObjAddr: 0x1D7D8, symBinAddr: 0x217D8, symSize: 0x5C }
  - { offsetInCU: 0x706F3, offset: 0x7076F, size: 0x8, addend: 0x0, symName: __ZNK3ada14url_aggregator8has_portEv, symObjAddr: 0x1D7D8, symBinAddr: 0x217D8, symSize: 0x5C }
  - { offsetInCU: 0x7070F, offset: 0x7078B, size: 0x8, addend: 0x0, symName: __ZNK3ada14url_aggregator8has_portEv, symObjAddr: 0x1D7D8, symBinAddr: 0x217D8, symSize: 0x5C }
  - { offsetInCU: 0x70838, offset: 0x708B4, size: 0x8, addend: 0x0, symName: __ZN3ada14url_aggregator31add_authority_slashes_if_neededEv, symObjAddr: 0x1F320, symBinAddr: 0x23318, symSize: 0xBC }
  - { offsetInCU: 0x70984, offset: 0x70A00, size: 0x8, addend: 0x0, symName: __ZN3ada14url_aggregator14clear_hostnameEv, symObjAddr: 0x234C8, symBinAddr: 0x274C0, symSize: 0xD4 }
  - { offsetInCU: 0x70B40, offset: 0x70BBC, size: 0x8, addend: 0x0, symName: __ZNK3ada14url_aggregator12has_hostnameEv, symObjAddr: 0x1D6E4, symBinAddr: 0x216E4, symSize: 0x4C }
  - { offsetInCU: 0x70B64, offset: 0x70BE0, size: 0x8, addend: 0x0, symName: __ZNK3ada14url_aggregator12has_hostnameEv, symObjAddr: 0x1D6E4, symBinAddr: 0x216E4, symSize: 0x4C }
  - { offsetInCU: 0x70CB1, offset: 0x70D2D, size: 0x8, addend: 0x0, symName: __ZNK3ada14url_aggregator10get_originEv, symObjAddr: 0x1A614, symBinAddr: 0x1E614, symSize: 0x230 }
  - { offsetInCU: 0x715FB, offset: 0x71677, size: 0x8, addend: 0x0, symName: __ZNK3ada14url_aggregator12get_protocolEv, symObjAddr: 0x1A8C4, symBinAddr: 0x1E8C4, symSize: 0x20 }
  - { offsetInCU: 0x716A5, offset: 0x71721, size: 0x8, addend: 0x0, symName: __ZNK3ada14url_aggregator12get_usernameEv, symObjAddr: 0x1A8E4, symBinAddr: 0x1E8E4, symSize: 0x3C }
  - { offsetInCU: 0x716C9, offset: 0x71745, size: 0x8, addend: 0x0, symName: __ZNK3ada14url_aggregator12get_usernameEv, symObjAddr: 0x1A8E4, symBinAddr: 0x1E8E4, symSize: 0x3C }
  - { offsetInCU: 0x71785, offset: 0x71801, size: 0x8, addend: 0x0, symName: __ZNK3ada14url_aggregator12get_passwordEv, symObjAddr: 0x1A920, symBinAddr: 0x1E920, symSize: 0x3C }
  - { offsetInCU: 0x717A9, offset: 0x71825, size: 0x8, addend: 0x0, symName: __ZNK3ada14url_aggregator12get_passwordEv, symObjAddr: 0x1A920, symBinAddr: 0x1E920, symSize: 0x3C }
  - { offsetInCU: 0x71865, offset: 0x718E1, size: 0x8, addend: 0x0, symName: __ZNK3ada14url_aggregator8get_portEv, symObjAddr: 0x1A95C, symBinAddr: 0x1E95C, symSize: 0x44 }
  - { offsetInCU: 0x71928, offset: 0x719A4, size: 0x8, addend: 0x0, symName: __ZNK3ada14url_aggregator8get_hashEv, symObjAddr: 0x1A9A0, symBinAddr: 0x1E9A0, symSize: 0x80 }
  - { offsetInCU: 0x71AA9, offset: 0x71B25, size: 0x8, addend: 0x0, symName: __ZNK3ada14url_aggregator9to_stringEv, symObjAddr: 0x1AA20, symBinAddr: 0x1EA20, symSize: 0x77C }
  - { offsetInCU: 0x73223, offset: 0x7329F, size: 0x8, addend: 0x0, symName: __ZNK3ada14url_aggregator16has_valid_domainEv, symObjAddr: 0x1B19C, symBinAddr: 0x1F19C, symSize: 0xA8 }
  - { offsetInCU: 0x7335F, offset: 0x733DB, size: 0x8, addend: 0x0, symName: __ZNK3ada14url_aggregator10to_diagramEv, symObjAddr: 0x1BBB8, symBinAddr: 0x1FBB8, symSize: 0xEA0 }
  - { offsetInCU: 0x76E19, offset: 0x76E95, size: 0x8, addend: 0x0, symName: __ZNK3ada14url_aggregator8validateEv, symObjAddr: 0x1CA58, symBinAddr: 0x20A58, symSize: 0x36C }
  - { offsetInCU: 0x77396, offset: 0x77412, size: 0x8, addend: 0x0, symName: __Z12get_instancePv, symObjAddr: 0x1CE20, symBinAddr: 0x20E20, symSize: 0x4 }
  - { offsetInCU: 0x773C4, offset: 0x77440, size: 0x8, addend: 0x0, symName: _ada_string_create, symObjAddr: 0x1CE24, symBinAddr: 0x20E24, symSize: 0x4 }
  - { offsetInCU: 0x7740C, offset: 0x77488, size: 0x8, addend: 0x0, symName: _ada_parse, symObjAddr: 0x1CE28, symBinAddr: 0x20E28, symSize: 0x50 }
  - { offsetInCU: 0x77513, offset: 0x7758F, size: 0x8, addend: 0x0, symName: _ada_parse_with_base, symObjAddr: 0x1CE78, symBinAddr: 0x20E78, symSize: 0xB8 }
  - { offsetInCU: 0x778C9, offset: 0x77945, size: 0x8, addend: 0x0, symName: __ZNR2tl8expectedIN3ada14url_aggregatorENS1_6errorsEE5valueIS2_LPv0EEERT_v, symObjAddr: 0x1CF30, symBinAddr: 0x20F30, symSize: 0x60 }
  - { offsetInCU: 0x779AC, offset: 0x77A28, size: 0x8, addend: 0x0, symName: __ZN2tl6detail18expected_copy_baseIN3ada14url_aggregatorENS2_6errorsELb0EEC2ERKS5_, symObjAddr: 0x1F510, symBinAddr: 0x23508, symSize: 0x3C }
  - { offsetInCU: 0x77B3F, offset: 0x77BBB, size: 0x8, addend: 0x0, symName: _ada_can_parse, symObjAddr: 0x1CF90, symBinAddr: 0x20F90, symSize: 0x1C }
  - { offsetInCU: 0x77BEC, offset: 0x77C68, size: 0x8, addend: 0x0, symName: _ada_can_parse_with_base, symObjAddr: 0x1CFAC, symBinAddr: 0x20FAC, symSize: 0x28 }
  - { offsetInCU: 0x77CBA, offset: 0x77D36, size: 0x8, addend: 0x0, symName: _ada_free, symObjAddr: 0x1CFD4, symBinAddr: 0x20FD4, symSize: 0x4C }
  - { offsetInCU: 0x77F38, offset: 0x77FB4, size: 0x8, addend: 0x0, symName: _ada_copy, symObjAddr: 0x1D020, symBinAddr: 0x21020, symSize: 0x30 }
  - { offsetInCU: 0x78035, offset: 0x780B1, size: 0x8, addend: 0x0, symName: _ada_is_valid, symObjAddr: 0x1D050, symBinAddr: 0x21050, symSize: 0x8 }
  - { offsetInCU: 0x78073, offset: 0x780EF, size: 0x8, addend: 0x0, symName: _ada_is_valid, symObjAddr: 0x1D050, symBinAddr: 0x21050, symSize: 0x8 }
  - { offsetInCU: 0x7808E, offset: 0x7810A, size: 0x8, addend: 0x0, symName: _ada_get_origin, symObjAddr: 0x1D058, symBinAddr: 0x21058, symSize: 0xAC }
  - { offsetInCU: 0x78283, offset: 0x782FF, size: 0x8, addend: 0x0, symName: _ada_free_owned_string, symObjAddr: 0x1D104, symBinAddr: 0x21104, symSize: 0xC }
  - { offsetInCU: 0x782AB, offset: 0x78327, size: 0x8, addend: 0x0, symName: _ada_get_href, symObjAddr: 0x1D110, symBinAddr: 0x21110, symSize: 0x34 }
  - { offsetInCU: 0x782F9, offset: 0x78375, size: 0x8, addend: 0x0, symName: _ada_get_href, symObjAddr: 0x1D110, symBinAddr: 0x21110, symSize: 0x34 }
  - { offsetInCU: 0x7839D, offset: 0x78419, size: 0x8, addend: 0x0, symName: _ada_get_username, symObjAddr: 0x1D144, symBinAddr: 0x21144, symSize: 0x50 }
  - { offsetInCU: 0x783EB, offset: 0x78467, size: 0x8, addend: 0x0, symName: _ada_get_username, symObjAddr: 0x1D144, symBinAddr: 0x21144, symSize: 0x50 }
  - { offsetInCU: 0x784E3, offset: 0x7855F, size: 0x8, addend: 0x0, symName: _ada_get_password, symObjAddr: 0x1D194, symBinAddr: 0x21194, symSize: 0x50 }
  - { offsetInCU: 0x78531, offset: 0x785AD, size: 0x8, addend: 0x0, symName: _ada_get_password, symObjAddr: 0x1D194, symBinAddr: 0x21194, symSize: 0x50 }
  - { offsetInCU: 0x7863A, offset: 0x786B6, size: 0x8, addend: 0x0, symName: _ada_get_port, symObjAddr: 0x1D1E4, symBinAddr: 0x211E4, symSize: 0x58 }
  - { offsetInCU: 0x78688, offset: 0x78704, size: 0x8, addend: 0x0, symName: _ada_get_port, symObjAddr: 0x1D1E4, symBinAddr: 0x211E4, symSize: 0x58 }
  - { offsetInCU: 0x78763, offset: 0x787DF, size: 0x8, addend: 0x0, symName: _ada_get_hash, symObjAddr: 0x1D23C, symBinAddr: 0x2123C, symSize: 0x18 }
  - { offsetInCU: 0x787AD, offset: 0x78829, size: 0x8, addend: 0x0, symName: _ada_get_hash, symObjAddr: 0x1D23C, symBinAddr: 0x2123C, symSize: 0x18 }
  - { offsetInCU: 0x787D5, offset: 0x78851, size: 0x8, addend: 0x0, symName: _ada_get_host, symObjAddr: 0x1D254, symBinAddr: 0x21254, symSize: 0x18 }
  - { offsetInCU: 0x7881F, offset: 0x7889B, size: 0x8, addend: 0x0, symName: _ada_get_host, symObjAddr: 0x1D254, symBinAddr: 0x21254, symSize: 0x18 }
  - { offsetInCU: 0x78847, offset: 0x788C3, size: 0x8, addend: 0x0, symName: _ada_get_hostname, symObjAddr: 0x1D26C, symBinAddr: 0x2126C, symSize: 0x18 }
  - { offsetInCU: 0x78891, offset: 0x7890D, size: 0x8, addend: 0x0, symName: _ada_get_hostname, symObjAddr: 0x1D26C, symBinAddr: 0x2126C, symSize: 0x18 }
  - { offsetInCU: 0x788B9, offset: 0x78935, size: 0x8, addend: 0x0, symName: _ada_get_pathname, symObjAddr: 0x1D284, symBinAddr: 0x21284, symSize: 0x64 }
  - { offsetInCU: 0x78903, offset: 0x7897F, size: 0x8, addend: 0x0, symName: _ada_get_pathname, symObjAddr: 0x1D284, symBinAddr: 0x21284, symSize: 0x64 }
  - { offsetInCU: 0x78A0B, offset: 0x78A87, size: 0x8, addend: 0x0, symName: _ada_get_search, symObjAddr: 0x1D2E8, symBinAddr: 0x212E8, symSize: 0x18 }
  - { offsetInCU: 0x78A55, offset: 0x78AD1, size: 0x8, addend: 0x0, symName: _ada_get_search, symObjAddr: 0x1D2E8, symBinAddr: 0x212E8, symSize: 0x18 }
  - { offsetInCU: 0x78A7D, offset: 0x78AF9, size: 0x8, addend: 0x0, symName: _ada_get_protocol, symObjAddr: 0x1D300, symBinAddr: 0x21300, symSize: 0x34 }
  - { offsetInCU: 0x78ACB, offset: 0x78B47, size: 0x8, addend: 0x0, symName: _ada_get_protocol, symObjAddr: 0x1D300, symBinAddr: 0x21300, symSize: 0x34 }
  - { offsetInCU: 0x78B85, offset: 0x78C01, size: 0x8, addend: 0x0, symName: _ada_get_host_type, symObjAddr: 0x1D334, symBinAddr: 0x21334, symSize: 0x18 }
  - { offsetInCU: 0x78BC3, offset: 0x78C3F, size: 0x8, addend: 0x0, symName: _ada_get_host_type, symObjAddr: 0x1D334, symBinAddr: 0x21334, symSize: 0x18 }
  - { offsetInCU: 0x78BDE, offset: 0x78C5A, size: 0x8, addend: 0x0, symName: _ada_get_scheme_type, symObjAddr: 0x1D34C, symBinAddr: 0x2134C, symSize: 0x18 }
  - { offsetInCU: 0x78C1C, offset: 0x78C98, size: 0x8, addend: 0x0, symName: _ada_get_scheme_type, symObjAddr: 0x1D34C, symBinAddr: 0x2134C, symSize: 0x18 }
  - { offsetInCU: 0x78C37, offset: 0x78CB3, size: 0x8, addend: 0x0, symName: _ada_set_href, symObjAddr: 0x1D364, symBinAddr: 0x21364, symSize: 0x28 }
  - { offsetInCU: 0x78CBD, offset: 0x78D39, size: 0x8, addend: 0x0, symName: _ada_set_host, symObjAddr: 0x1D38C, symBinAddr: 0x2138C, symSize: 0x28 }
  - { offsetInCU: 0x78D62, offset: 0x78DDE, size: 0x8, addend: 0x0, symName: _ada_set_hostname, symObjAddr: 0x1D3B4, symBinAddr: 0x213B4, symSize: 0x28 }
  - { offsetInCU: 0x78E07, offset: 0x78E83, size: 0x8, addend: 0x0, symName: _ada_set_protocol, symObjAddr: 0x1D3DC, symBinAddr: 0x213DC, symSize: 0x28 }
  - { offsetInCU: 0x78E8D, offset: 0x78F09, size: 0x8, addend: 0x0, symName: _ada_set_username, symObjAddr: 0x1D404, symBinAddr: 0x21404, symSize: 0x28 }
  - { offsetInCU: 0x78F13, offset: 0x78F8F, size: 0x8, addend: 0x0, symName: _ada_set_password, symObjAddr: 0x1D42C, symBinAddr: 0x2142C, symSize: 0x28 }
  - { offsetInCU: 0x78F99, offset: 0x79015, size: 0x8, addend: 0x0, symName: _ada_set_port, symObjAddr: 0x1D454, symBinAddr: 0x21454, symSize: 0x28 }
  - { offsetInCU: 0x7901F, offset: 0x7909B, size: 0x8, addend: 0x0, symName: _ada_set_pathname, symObjAddr: 0x1D47C, symBinAddr: 0x2147C, symSize: 0x28 }
  - { offsetInCU: 0x790A5, offset: 0x79121, size: 0x8, addend: 0x0, symName: _ada_set_search, symObjAddr: 0x1D4A4, symBinAddr: 0x214A4, symSize: 0x20 }
  - { offsetInCU: 0x79127, offset: 0x791A3, size: 0x8, addend: 0x0, symName: _ada_set_hash, symObjAddr: 0x1D4C4, symBinAddr: 0x214C4, symSize: 0x20 }
  - { offsetInCU: 0x791A9, offset: 0x79225, size: 0x8, addend: 0x0, symName: _ada_clear_port, symObjAddr: 0x1D4E4, symBinAddr: 0x214E4, symSize: 0x84 }
  - { offsetInCU: 0x7923C, offset: 0x792B8, size: 0x8, addend: 0x0, symName: _ada_clear_hash, symObjAddr: 0x1D568, symBinAddr: 0x21568, symSize: 0x48 }
  - { offsetInCU: 0x792D2, offset: 0x7934E, size: 0x8, addend: 0x0, symName: _ada_clear_search, symObjAddr: 0x1D5B0, symBinAddr: 0x215B0, symSize: 0x28 }
  - { offsetInCU: 0x79333, offset: 0x793AF, size: 0x8, addend: 0x0, symName: _ada_has_credentials, symObjAddr: 0x1D5D8, symBinAddr: 0x215D8, symSize: 0x38 }
  - { offsetInCU: 0x79371, offset: 0x793ED, size: 0x8, addend: 0x0, symName: _ada_has_credentials, symObjAddr: 0x1D5D8, symBinAddr: 0x215D8, symSize: 0x38 }
  - { offsetInCU: 0x793F5, offset: 0x79471, size: 0x8, addend: 0x0, symName: _ada_has_empty_hostname, symObjAddr: 0x1D610, symBinAddr: 0x21610, symSize: 0x80 }
  - { offsetInCU: 0x79433, offset: 0x794AF, size: 0x8, addend: 0x0, symName: _ada_has_empty_hostname, symObjAddr: 0x1D610, symBinAddr: 0x21610, symSize: 0x80 }
  - { offsetInCU: 0x795AC, offset: 0x79628, size: 0x8, addend: 0x0, symName: _ada_has_hostname, symObjAddr: 0x1D690, symBinAddr: 0x21690, symSize: 0x54 }
  - { offsetInCU: 0x795EA, offset: 0x79666, size: 0x8, addend: 0x0, symName: _ada_has_hostname, symObjAddr: 0x1D690, symBinAddr: 0x21690, symSize: 0x54 }
  - { offsetInCU: 0x7974C, offset: 0x797C8, size: 0x8, addend: 0x0, symName: _ada_has_non_empty_username, symObjAddr: 0x1D730, symBinAddr: 0x21730, symSize: 0x24 }
  - { offsetInCU: 0x7978A, offset: 0x79806, size: 0x8, addend: 0x0, symName: _ada_has_non_empty_username, symObjAddr: 0x1D730, symBinAddr: 0x21730, symSize: 0x24 }
  - { offsetInCU: 0x797C2, offset: 0x7983E, size: 0x8, addend: 0x0, symName: _ada_has_non_empty_password, symObjAddr: 0x1D754, symBinAddr: 0x21754, symSize: 0x20 }
  - { offsetInCU: 0x79800, offset: 0x7987C, size: 0x8, addend: 0x0, symName: _ada_has_non_empty_password, symObjAddr: 0x1D754, symBinAddr: 0x21754, symSize: 0x20 }
  - { offsetInCU: 0x79850, offset: 0x798CC, size: 0x8, addend: 0x0, symName: _ada_has_port, symObjAddr: 0x1D774, symBinAddr: 0x21774, symSize: 0x64 }
  - { offsetInCU: 0x7988E, offset: 0x7990A, size: 0x8, addend: 0x0, symName: _ada_has_port, symObjAddr: 0x1D774, symBinAddr: 0x21774, symSize: 0x64 }
  - { offsetInCU: 0x79A07, offset: 0x79A83, size: 0x8, addend: 0x0, symName: _ada_has_password, symObjAddr: 0x1D834, symBinAddr: 0x21834, symSize: 0x3C }
  - { offsetInCU: 0x79A45, offset: 0x79AC1, size: 0x8, addend: 0x0, symName: _ada_has_password, symObjAddr: 0x1D834, symBinAddr: 0x21834, symSize: 0x3C }
  - { offsetInCU: 0x79B15, offset: 0x79B91, size: 0x8, addend: 0x0, symName: _ada_has_hash, symObjAddr: 0x1D870, symBinAddr: 0x21870, symSize: 0x1C }
  - { offsetInCU: 0x79B53, offset: 0x79BCF, size: 0x8, addend: 0x0, symName: _ada_has_hash, symObjAddr: 0x1D870, symBinAddr: 0x21870, symSize: 0x1C }
  - { offsetInCU: 0x79B7A, offset: 0x79BF6, size: 0x8, addend: 0x0, symName: _ada_has_search, symObjAddr: 0x1D88C, symBinAddr: 0x2188C, symSize: 0x1C }
  - { offsetInCU: 0x79BB8, offset: 0x79C34, size: 0x8, addend: 0x0, symName: _ada_has_search, symObjAddr: 0x1D88C, symBinAddr: 0x2188C, symSize: 0x1C }
  - { offsetInCU: 0x79BDF, offset: 0x79C5B, size: 0x8, addend: 0x0, symName: _ada_get_components, symObjAddr: 0x1D8A8, symBinAddr: 0x218A8, symSize: 0x14 }
  - { offsetInCU: 0x79C1D, offset: 0x79C99, size: 0x8, addend: 0x0, symName: _ada_get_components, symObjAddr: 0x1D8A8, symBinAddr: 0x218A8, symSize: 0x14 }
  - { offsetInCU: 0x79C4E, offset: 0x79CCA, size: 0x8, addend: 0x0, symName: _ada_idna_to_unicode, symObjAddr: 0x1D8BC, symBinAddr: 0x218BC, symSize: 0xA4 }
  - { offsetInCU: 0x79F4B, offset: 0x79FC7, size: 0x8, addend: 0x0, symName: _ada_idna_to_ascii, symObjAddr: 0x1D960, symBinAddr: 0x21960, symSize: 0xA4 }
  - { offsetInCU: 0x7A546, offset: 0x7A5C2, size: 0x8, addend: 0x0, symName: _ada_parse_search_params, symObjAddr: 0x1DA04, symBinAddr: 0x21A04, symSize: 0x90 }
  - { offsetInCU: 0x7A801, offset: 0x7A87D, size: 0x8, addend: 0x0, symName: __ZN3ada17url_search_paramsC2ENSt3__117basic_string_viewIcNS1_11char_traitsIcEEEE, symObjAddr: 0x1F634, symBinAddr: 0x2362C, symSize: 0xE4 }
  - { offsetInCU: 0x7AA76, offset: 0x7AAF2, size: 0x8, addend: 0x0, symName: __ZNSt3__16vectorINS_4pairINS_12basic_stringIcNS_11char_traitsIcEENS_9allocatorIcEEEES7_EENS5_IS8_EEE16__destroy_vectorclB8ue170006Ev, symObjAddr: 0x20178, symBinAddr: 0x24170, symSize: 0x84 }
  - { offsetInCU: 0x7AC0A, offset: 0x7AC86, size: 0x8, addend: 0x0, symName: __ZN3ada17url_search_paramsD1Ev, symObjAddr: 0x1DA94, symBinAddr: 0x21A94, symSize: 0x34 }
  - { offsetInCU: 0x7ADC1, offset: 0x7AE3D, size: 0x8, addend: 0x0, symName: _ada_free_search_params, symObjAddr: 0x1DAC8, symBinAddr: 0x21AC8, symSize: 0x44 }
  - { offsetInCU: 0x7AFCA, offset: 0x7B046, size: 0x8, addend: 0x0, symName: _ada_search_params_to_string, symObjAddr: 0x1DB0C, symBinAddr: 0x21B0C, symSize: 0xB8 }
  - { offsetInCU: 0x7B2C5, offset: 0x7B341, size: 0x8, addend: 0x0, symName: __ZNK3ada17url_search_params9to_stringEv, symObjAddr: 0x1DBC4, symBinAddr: 0x21BC4, symSize: 0x230 }
  - { offsetInCU: 0x7BE0C, offset: 0x7BE88, size: 0x8, addend: 0x0, symName: _ada_search_params_size, symObjAddr: 0x1DDF4, symBinAddr: 0x21DF4, symSize: 0x2C }
  - { offsetInCU: 0x7BE4A, offset: 0x7BEC6, size: 0x8, addend: 0x0, symName: _ada_search_params_size, symObjAddr: 0x1DDF4, symBinAddr: 0x21DF4, symSize: 0x2C }
  - { offsetInCU: 0x7C003, offset: 0x7C07F, size: 0x8, addend: 0x0, symName: _ada_search_params_sort, symObjAddr: 0x1DE20, symBinAddr: 0x21E20, symSize: 0xA8 }
  - { offsetInCU: 0x7C3D1, offset: 0x7C44D, size: 0x8, addend: 0x0, symName: _ada_search_params_reset, symObjAddr: 0x1DEC8, symBinAddr: 0x21EC8, symSize: 0xF8 }
  - { offsetInCU: 0x7C694, offset: 0x7C710, size: 0x8, addend: 0x0, symName: __ZNSt3__19allocatorINS_4pairINS_12basic_stringIcNS_11char_traitsIcEENS0_IcEEEES6_EEE7destroyB8ue170006EPS7_, symObjAddr: 0x200C0, symBinAddr: 0x240B8, symSize: 0x44 }
  - { offsetInCU: 0x7C921, offset: 0x7C99D, size: 0x8, addend: 0x0, symName: __ZZN3ada17url_search_params10initializeENSt3__117basic_string_viewIcNS1_11char_traitsIcEEEEENKUlS5_E_clES5_, symObjAddr: 0x1F718, symBinAddr: 0x23710, symSize: 0x408 }
  - { offsetInCU: 0x7DD28, offset: 0x7DDA4, size: 0x8, addend: 0x0, symName: _ada_search_params_append, symObjAddr: 0x1DFC0, symBinAddr: 0x21FC0, symSize: 0x34 }
  - { offsetInCU: 0x7DDF7, offset: 0x7DE73, size: 0x8, addend: 0x0, symName: __ZNSt3__16vectorINS_4pairINS_12basic_stringIcNS_11char_traitsIcEENS_9allocatorIcEEEES7_EENS5_IS8_EEE12emplace_backIJRKNS_17basic_string_viewIcS4_EESF_EEERS8_DpOT_, symObjAddr: 0x21868, symBinAddr: 0x25860, symSize: 0x138 }
  - { offsetInCU: 0x7E34A, offset: 0x7E3C6, size: 0x8, addend: 0x0, symName: _ada_search_params_set, symObjAddr: 0x1DFF4, symBinAddr: 0x21FF4, symSize: 0xFC }
  - { offsetInCU: 0x7E68E, offset: 0x7E70A, size: 0x8, addend: 0x0, symName: __ZNSt3__16vectorINS_4pairINS_12basic_stringIcNS_11char_traitsIcEENS_9allocatorIcEEEES7_EENS5_IS8_EEE5eraseENS_11__wrap_iterIPKS8_EESE_, symObjAddr: 0x21ACC, symBinAddr: 0x25AC4, symSize: 0x80 }
  - { offsetInCU: 0x7E85A, offset: 0x7E8D6, size: 0x8, addend: 0x0, symName: _ada_search_params_remove, symObjAddr: 0x1E0F0, symBinAddr: 0x220F0, symSize: 0x50 }
  - { offsetInCU: 0x7E995, offset: 0x7EA11, size: 0x8, addend: 0x0, symName: _ada_search_params_remove_value, symObjAddr: 0x1E140, symBinAddr: 0x22140, symSize: 0x58 }
  - { offsetInCU: 0x7EB6F, offset: 0x7EBEB, size: 0x8, addend: 0x0, symName: _ada_search_params_has, symObjAddr: 0x1E198, symBinAddr: 0x22198, symSize: 0x94 }
  - { offsetInCU: 0x7EE3A, offset: 0x7EEB6, size: 0x8, addend: 0x0, symName: _ada_search_params_has_value, symObjAddr: 0x1E22C, symBinAddr: 0x2222C, symSize: 0xE0 }
  - { offsetInCU: 0x7F34A, offset: 0x7F3C6, size: 0x8, addend: 0x0, symName: _ada_search_params_get, symObjAddr: 0x1E30C, symBinAddr: 0x2230C, symSize: 0xB4 }
  - { offsetInCU: 0x7FB45, offset: 0x7FBC1, size: 0x8, addend: 0x0, symName: _ada_search_params_get_all, symObjAddr: 0x1E3C0, symBinAddr: 0x223C0, symSize: 0x16C }
  - { offsetInCU: 0x802A4, offset: 0x80320, size: 0x8, addend: 0x0, symName: __ZNSt3__16vectorINS_12basic_stringIcNS_11char_traitsIcEENS_9allocatorIcEEEENS4_IS6_EEE24__emplace_back_slow_pathIJRS6_EEEvDpOT_, symObjAddr: 0x21EE8, symBinAddr: 0x25EE0, symSize: 0x114 }
  - { offsetInCU: 0x805BC, offset: 0x80638, size: 0x8, addend: 0x0, symName: __ZNSt3__16vectorINS_12basic_stringIcNS_11char_traitsIcEENS_9allocatorIcEEEENS4_IS6_EEE16__destroy_vectorclB8ue170006Ev, symObjAddr: 0x22390, symBinAddr: 0x26388, symSize: 0x40 }
  - { offsetInCU: 0x80893, offset: 0x8090F, size: 0x8, addend: 0x0, symName: _ada_search_params_get_keys, symObjAddr: 0x1E52C, symBinAddr: 0x2252C, symSize: 0x4C }
  - { offsetInCU: 0x80CEF, offset: 0x80D6B, size: 0x8, addend: 0x0, symName: _ada_search_params_get_values, symObjAddr: 0x1E578, symBinAddr: 0x22578, symSize: 0x4C }
  - { offsetInCU: 0x8114B, offset: 0x811C7, size: 0x8, addend: 0x0, symName: _ada_search_params_get_entries, symObjAddr: 0x1E5C4, symBinAddr: 0x225C4, symSize: 0x4C }
  - { offsetInCU: 0x81493, offset: 0x8150F, size: 0x8, addend: 0x0, symName: _ada_free_strings, symObjAddr: 0x1E610, symBinAddr: 0x22610, symSize: 0x44 }
  - { offsetInCU: 0x8168E, offset: 0x8170A, size: 0x8, addend: 0x0, symName: _ada_strings_size, symObjAddr: 0x1E654, symBinAddr: 0x22654, symSize: 0x38 }
  - { offsetInCU: 0x8171D, offset: 0x81799, size: 0x8, addend: 0x0, symName: _ada_strings_get, symObjAddr: 0x1E68C, symBinAddr: 0x2268C, symSize: 0x68 }
  - { offsetInCU: 0x81728, offset: 0x817A4, size: 0x8, addend: 0x0, symName: _ada_strings_size.cold.1, symObjAddr: 0x235B0, symBinAddr: 0xB6ABBC, symSize: 0x24 }
  - { offsetInCU: 0x8177A, offset: 0x817F6, size: 0x8, addend: 0x0, symName: _ada_strings_get, symObjAddr: 0x1E68C, symBinAddr: 0x2268C, symSize: 0x68 }
  - { offsetInCU: 0x81900, offset: 0x8197C, size: 0x8, addend: 0x0, symName: _ada_free_search_params_keys_iter, symObjAddr: 0x1E6F4, symBinAddr: 0x226F4, symSize: 0xC }
  - { offsetInCU: 0x8190B, offset: 0x81987, size: 0x8, addend: 0x0, symName: _ada_strings_get.cold.1, symObjAddr: 0x235D4, symBinAddr: 0xB6ABE0, symSize: 0x24 }
  - { offsetInCU: 0x81939, offset: 0x819B5, size: 0x8, addend: 0x0, symName: __ZNKSt3__16vectorINS_12basic_stringIcNS_11char_traitsIcEENS_9allocatorIcEEEENS4_IS6_EEE20__throw_out_of_rangeB8ue170006Ev, symObjAddr: 0x2359C, symBinAddr: 0x27594, symSize: 0x14 }
  - { offsetInCU: 0x81962, offset: 0x819DE, size: 0x8, addend: 0x0, symName: _ada_strings_size.cold.1, symObjAddr: 0x235B0, symBinAddr: 0xB6ABBC, symSize: 0x24 }
  - { offsetInCU: 0x8196D, offset: 0x819E9, size: 0x8, addend: 0x0, symName: _ada_free_search_params_keys_iter, symObjAddr: 0x1E6F4, symBinAddr: 0x226F4, symSize: 0xC }
  - { offsetInCU: 0x81A25, offset: 0x81AA1, size: 0x8, addend: 0x0, symName: _ada_search_params_keys_iter_next, symObjAddr: 0x1E700, symBinAddr: 0x22700, symSize: 0x78 }
  - { offsetInCU: 0x81C77, offset: 0x81CF3, size: 0x8, addend: 0x0, symName: _ada_search_params_keys_iter_has_next, symObjAddr: 0x1E778, symBinAddr: 0x22778, symSize: 0x44 }
  - { offsetInCU: 0x81C82, offset: 0x81CFE, size: 0x8, addend: 0x0, symName: _ada_search_params_keys_iter_next.cold.1, symObjAddr: 0x235F8, symBinAddr: 0xB6AC04, symSize: 0x24 }
  - { offsetInCU: 0x81CB0, offset: 0x81D2C, size: 0x8, addend: 0x0, symName: _ada_search_params_keys_iter_has_next, symObjAddr: 0x1E778, symBinAddr: 0x22778, symSize: 0x44 }
  - { offsetInCU: 0x81D5E, offset: 0x81DDA, size: 0x8, addend: 0x0, symName: _ada_free_search_params_values_iter, symObjAddr: 0x1E7BC, symBinAddr: 0x227BC, symSize: 0xC }
  - { offsetInCU: 0x81D69, offset: 0x81DE5, size: 0x8, addend: 0x0, symName: _ada_search_params_keys_iter_has_next.cold.1, symObjAddr: 0x2361C, symBinAddr: 0xB6AC28, symSize: 0x24 }
  - { offsetInCU: 0x81D97, offset: 0x81E13, size: 0x8, addend: 0x0, symName: _ada_free_search_params_values_iter, symObjAddr: 0x1E7BC, symBinAddr: 0x227BC, symSize: 0xC }
  - { offsetInCU: 0x81E2B, offset: 0x81EA7, size: 0x8, addend: 0x0, symName: _ada_search_params_values_iter_next, symObjAddr: 0x1E7C8, symBinAddr: 0x227C8, symSize: 0x7C }
  - { offsetInCU: 0x82076, offset: 0x820F2, size: 0x8, addend: 0x0, symName: _ada_search_params_values_iter_has_next, symObjAddr: 0x1E844, symBinAddr: 0x22844, symSize: 0x44 }
  - { offsetInCU: 0x82081, offset: 0x820FD, size: 0x8, addend: 0x0, symName: _ada_search_params_values_iter_next.cold.1, symObjAddr: 0x23640, symBinAddr: 0xB6AC4C, symSize: 0x24 }
  - { offsetInCU: 0x820AF, offset: 0x8212B, size: 0x8, addend: 0x0, symName: _ada_search_params_values_iter_has_next, symObjAddr: 0x1E844, symBinAddr: 0x22844, symSize: 0x44 }
  - { offsetInCU: 0x8215D, offset: 0x821D9, size: 0x8, addend: 0x0, symName: _ada_free_search_params_entries_iter, symObjAddr: 0x1E888, symBinAddr: 0x22888, symSize: 0xC }
  - { offsetInCU: 0x82168, offset: 0x821E4, size: 0x8, addend: 0x0, symName: _ada_search_params_values_iter_has_next.cold.1, symObjAddr: 0x23664, symBinAddr: 0xB6AC70, symSize: 0x24 }
  - { offsetInCU: 0x82196, offset: 0x82212, size: 0x8, addend: 0x0, symName: _ada_free_search_params_entries_iter, symObjAddr: 0x1E888, symBinAddr: 0x22888, symSize: 0xC }
  - { offsetInCU: 0x82443, offset: 0x824BF, size: 0x8, addend: 0x0, symName: _ada_search_params_entries_iter_next, symObjAddr: 0x1E894, symBinAddr: 0x22894, symSize: 0x9C }
  - { offsetInCU: 0x82755, offset: 0x827D1, size: 0x8, addend: 0x0, symName: _ada_search_params_entries_iter_has_next, symObjAddr: 0x1E930, symBinAddr: 0x22930, symSize: 0x44 }
  - { offsetInCU: 0x82760, offset: 0x827DC, size: 0x8, addend: 0x0, symName: _ada_search_params_entries_iter_next.cold.1, symObjAddr: 0x23688, symBinAddr: 0xB6AC94, symSize: 0x24 }
  - { offsetInCU: 0x8278E, offset: 0x8280A, size: 0x8, addend: 0x0, symName: _ada_search_params_entries_iter_has_next, symObjAddr: 0x1E930, symBinAddr: 0x22930, symSize: 0x44 }
  - { offsetInCU: 0x8283C, offset: 0x828B8, size: 0x8, addend: 0x0, symName: __ZN3ada3urlD0Ev, symObjAddr: 0x1E974, symBinAddr: 0x22974, symSize: 0x14 }
  - { offsetInCU: 0x82847, offset: 0x828C3, size: 0x8, addend: 0x0, symName: _ada_search_params_entries_iter_has_next.cold.1, symObjAddr: 0x236AC, symBinAddr: 0xB6ACB8, symSize: 0x24 }
  - { offsetInCU: 0x82875, offset: 0x828F1, size: 0x8, addend: 0x0, symName: __ZN3ada3urlD0Ev, symObjAddr: 0x1E974, symBinAddr: 0x22974, symSize: 0x14 }
  - { offsetInCU: 0x828C8, offset: 0x82944, size: 0x8, addend: 0x0, symName: __ZN3ada3url10parse_portENSt3__117basic_string_viewIcNS1_11char_traitsIcEEEE, symObjAddr: 0x1E988, symBinAddr: 0x22988, symSize: 0x10 }
  - { offsetInCU: 0x82905, offset: 0x82981, size: 0x8, addend: 0x0, symName: __ZNK3ada3url8has_hashEv, symObjAddr: 0x1E998, symBinAddr: 0x22998, symSize: 0x8 }
  - { offsetInCU: 0x82930, offset: 0x829AC, size: 0x8, addend: 0x0, symName: __ZNK3ada3url8has_hashEv, symObjAddr: 0x1E998, symBinAddr: 0x22998, symSize: 0x8 }
  - { offsetInCU: 0x8294E, offset: 0x829CA, size: 0x8, addend: 0x0, symName: __ZNK3ada3url10has_searchEv, symObjAddr: 0x1E9A0, symBinAddr: 0x229A0, symSize: 0x8 }
  - { offsetInCU: 0x82979, offset: 0x829F5, size: 0x8, addend: 0x0, symName: __ZNK3ada3url10has_searchEv, symObjAddr: 0x1E9A0, symBinAddr: 0x229A0, symSize: 0x8 }
  - { offsetInCU: 0x82997, offset: 0x82A13, size: 0x8, addend: 0x0, symName: __ZN3ada14url_aggregatorD0Ev, symObjAddr: 0x1E9A8, symBinAddr: 0x229A8, symSize: 0x3C }
  - { offsetInCU: 0x82B20, offset: 0x82B9C, size: 0x8, addend: 0x0, symName: __ZN3ada14url_aggregator10parse_portENSt3__117basic_string_viewIcNS1_11char_traitsIcEEEE, symObjAddr: 0x1E9E4, symBinAddr: 0x229E4, symSize: 0x10 }
  - { offsetInCU: 0x82B5D, offset: 0x82BD9, size: 0x8, addend: 0x0, symName: __ZNK3ada14url_aggregator8has_hashEv, symObjAddr: 0x1E9F4, symBinAddr: 0x229F4, symSize: 0x10 }
  - { offsetInCU: 0x82B86, offset: 0x82C02, size: 0x8, addend: 0x0, symName: __ZNK3ada14url_aggregator10has_searchEv, symObjAddr: 0x1EA04, symBinAddr: 0x22A04, symSize: 0x10 }
  - { offsetInCU: 0x82C17, offset: 0x82C93, size: 0x8, addend: 0x0, symName: ___cxx_global_var_init, symObjAddr: 0x64774, symBinAddr: 0x275B0, symSize: 0x54 }
  - { offsetInCU: 0x82CA8, offset: 0x82D24, size: 0x8, addend: 0x0, symName: ___cxx_global_var_init.93, symObjAddr: 0x647C8, symBinAddr: 0x27604, symSize: 0x54 }
  - { offsetInCU: 0x82D39, offset: 0x82DB5, size: 0x8, addend: 0x0, symName: ___cxx_global_var_init.94, symObjAddr: 0x6481C, symBinAddr: 0x27658, symSize: 0x54 }
  - { offsetInCU: 0x82DCA, offset: 0x82E46, size: 0x8, addend: 0x0, symName: __ZNSt12out_of_rangeC1B8ue170006EPKc, symObjAddr: 0x1EA64, symBinAddr: 0x22A64, symSize: 0x24 }
  - { offsetInCU: 0x82F2F, offset: 0x82FAB, size: 0x8, addend: 0x0, symName: __ZN3ada8url_baseD1Ev, symObjAddr: 0x1EBB4, symBinAddr: 0xB6ABB4, symSize: 0x4 }
  - { offsetInCU: 0x82F58, offset: 0x82FD4, size: 0x8, addend: 0x0, symName: __ZN3ada8url_baseD0Ev, symObjAddr: 0x1EBB8, symBinAddr: 0xB6ABB8, symSize: 0x4 }
  - { offsetInCU: 0x82F81, offset: 0x82FFD, size: 0x8, addend: 0x0, symName: __ZN3ada8url_base10parse_portENSt3__117basic_string_viewIcNS1_11char_traitsIcEEEE, symObjAddr: 0x1EBBC, symBinAddr: 0x22BB4, symSize: 0x10 }
  - { offsetInCU: 0x8320E, offset: 0x8328A, size: 0x8, addend: 0x0, symName: __ZN3ada14url_aggregatorC2ERKS0_, symObjAddr: 0x1F54C, symBinAddr: 0x23544, symSize: 0x80 }
  - { offsetInCU: 0x8332A, offset: 0x833A6, size: 0x8, addend: 0x0, symName: __ZN2tl19bad_expected_accessIN3ada6errorsEED1Ev, symObjAddr: 0x1F610, symBinAddr: 0x23608, symSize: 0x4 }
  - { offsetInCU: 0x8334C, offset: 0x833C8, size: 0x8, addend: 0x0, symName: __ZN2tl19bad_expected_accessIN3ada6errorsEED1Ev, symObjAddr: 0x1F610, symBinAddr: 0x23608, symSize: 0x4 }
  - { offsetInCU: 0x83367, offset: 0x833E3, size: 0x8, addend: 0x0, symName: __ZN2tl19bad_expected_accessIN3ada6errorsEED0Ev, symObjAddr: 0x1F614, symBinAddr: 0x2360C, symSize: 0x14 }
  - { offsetInCU: 0x833CD, offset: 0x83449, size: 0x8, addend: 0x0, symName: __ZNK2tl19bad_expected_accessIN3ada6errorsEE4whatEv, symObjAddr: 0x1F628, symBinAddr: 0x23620, symSize: 0xC }
  - { offsetInCU: 0x833F4, offset: 0x83470, size: 0x8, addend: 0x0, symName: __ZNSt3__16vectorINS_4pairINS_12basic_stringIcNS_11char_traitsIcEENS_9allocatorIcEEEES7_EENS5_IS8_EEE12emplace_backIJS7_RA1_KcEEERS8_DpOT_, symObjAddr: 0x1FB20, symBinAddr: 0x23B18, symSize: 0x138 }
  - { offsetInCU: 0x8382D, offset: 0x838A9, size: 0x8, addend: 0x0, symName: __ZNSt3__16vectorINS_4pairINS_12basic_stringIcNS_11char_traitsIcEENS_9allocatorIcEEEES7_EENS5_IS8_EEE12emplace_backIJS7_S7_EEERS8_DpOT_, symObjAddr: 0x1FC58, symBinAddr: 0x23C50, symSize: 0x16C }
  - { offsetInCU: 0x841C8, offset: 0x84244, size: 0x8, addend: 0x0, symName: __ZNSt3__14pairINS_12basic_stringIcNS_11char_traitsIcEENS_9allocatorIcEEEES6_EC2B8ue170006IS6_RA1_KcLPv0EEEOT_OT0_, symObjAddr: 0x1FDC4, symBinAddr: 0x23DBC, symSize: 0x5C }
  - { offsetInCU: 0x843C7, offset: 0x84443, size: 0x8, addend: 0x0, symName: __ZNSt3__114__split_bufferINS_4pairINS_12basic_stringIcNS_11char_traitsIcEENS_9allocatorIcEEEES7_EERNS5_IS8_EEED2Ev, symObjAddr: 0x20104, symBinAddr: 0x240FC, symSize: 0x30 }
  - { offsetInCU: 0x844AB, offset: 0x84527, size: 0x8, addend: 0x0, symName: __ZNKSt3__16vectorINS_4pairINS_12basic_stringIcNS_11char_traitsIcEENS_9allocatorIcEEEES7_EENS5_IS8_EEE20__throw_length_errorB8ue170006Ev, symObjAddr: 0x1FE94, symBinAddr: 0x23E8C, symSize: 0x14 }
  - { offsetInCU: 0x844D4, offset: 0x84550, size: 0x8, addend: 0x0, symName: __ZNSt3__120__throw_length_errorB8ue170006EPKc, symObjAddr: 0x1FEA8, symBinAddr: 0x23EA0, symSize: 0x50 }
  - { offsetInCU: 0x846CC, offset: 0x84748, size: 0x8, addend: 0x0, symName: __ZNSt12length_errorC1B8ue170006EPKc, symObjAddr: 0x1FEF8, symBinAddr: 0x23EF0, symSize: 0x24 }
  - { offsetInCU: 0x848C7, offset: 0x84943, size: 0x8, addend: 0x0, symName: __ZNSt3__128__exception_guard_exceptionsINS_29_AllocatorDestroyRangeReverseINS_9allocatorINS_4pairINS_12basic_stringIcNS_11char_traitsIcEENS2_IcEEEES8_EEEENS_16reverse_iteratorIPS9_EEEEED2B8ue170006Ev, symObjAddr: 0x2003C, symBinAddr: 0x24034, symSize: 0x34 }
  - { offsetInCU: 0x848FF, offset: 0x8497B, size: 0x8, addend: 0x0, symName: __ZNKSt3__129_AllocatorDestroyRangeReverseINS_9allocatorINS_4pairINS_12basic_stringIcNS_11char_traitsIcEENS1_IcEEEES7_EEEENS_16reverse_iteratorIPS8_EEEclB8ue170006Ev, symObjAddr: 0x20070, symBinAddr: 0x24068, symSize: 0x50 }
  - { offsetInCU: 0x84A60, offset: 0x84ADC, size: 0x8, addend: 0x0, symName: __ZNSt3__114__split_bufferINS_4pairINS_12basic_stringIcNS_11char_traitsIcEENS_9allocatorIcEEEES7_EERNS5_IS8_EEE5clearB8ue170006Ev, symObjAddr: 0x20134, symBinAddr: 0x2412C, symSize: 0x44 }
  - { offsetInCU: 0x84F2C, offset: 0x84FA8, size: 0x8, addend: 0x0, symName: __ZNSt3__112__destruct_n9__processB8ue170006INS_4pairINS_12basic_stringIcNS_11char_traitsIcEENS_9allocatorIcEEEES8_EEEEvPT_NS_17integral_constantIbLb0EEE, symObjAddr: 0x21134, symBinAddr: 0x2512C, symSize: 0x68 }
  - { offsetInCU: 0x85212, offset: 0x8528E, size: 0x8, addend: 0x0, symName: __ZNSt3__14pairINS_12basic_stringIcNS_11char_traitsIcEENS_9allocatorIcEEEES6_EaSB8ue170006EOS7_, symObjAddr: 0x20CD4, symBinAddr: 0x24CCC, symSize: 0x80 }
  - { offsetInCU: 0x8573C, offset: 0x857B8, size: 0x8, addend: 0x0, symName: __ZNSt3__18__invertIRZN3ada17url_search_params4sortEvEUlRKNS_4pairINS_12basic_stringIcNS_11char_traitsIcEENS_9allocatorIcEEEES9_EESC_E_EclB8ue170006ISA_SA_EEbRKT_RKT0_, symObjAddr: 0x21618, symBinAddr: 0x25610, symSize: 0x68 }
  - { offsetInCU: 0x85AEA, offset: 0x85B66, size: 0x8, addend: 0x0, symName: __ZNSt3__14pairINS_12basic_stringIcNS_11char_traitsIcEENS_9allocatorIcEEEES6_EC2B8ue170006IRKNS_17basic_string_viewIcS3_EESC_LPv0EEEOT_OT0_, symObjAddr: 0x219A0, symBinAddr: 0x25998, symSize: 0x12C }
  - { offsetInCU: 0x865A5, offset: 0x86621, size: 0x8, addend: 0x0, symName: __ZNSt3__114__split_bufferINS_12basic_stringIcNS_11char_traitsIcEENS_9allocatorIcEEEERNS4_IS6_EEED2Ev, symObjAddr: 0x221DC, symBinAddr: 0x261D4, symSize: 0x34 }
  - { offsetInCU: 0x866A6, offset: 0x86722, size: 0x8, addend: 0x0, symName: __ZNKSt3__16vectorINS_12basic_stringIcNS_11char_traitsIcEENS_9allocatorIcEEEENS4_IS6_EEE20__throw_length_errorB8ue170006Ev, symObjAddr: 0x22070, symBinAddr: 0x26068, symSize: 0x14 }
  - { offsetInCU: 0x866CF, offset: 0x8674B, size: 0x8, addend: 0x0, symName: __ZNSt3__119__allocate_at_leastB8ue170006INS_9allocatorINS_12basic_stringIcNS_11char_traitsIcEENS1_IcEEEEEEEENS_19__allocation_resultINS_16allocator_traitsIT_E7pointerEEERSA_m, symObjAddr: 0x22084, symBinAddr: 0x2607C, symSize: 0x44 }
  - { offsetInCU: 0x86825, offset: 0x868A1, size: 0x8, addend: 0x0, symName: __ZNSt3__128__exception_guard_exceptionsINS_29_AllocatorDestroyRangeReverseINS_9allocatorINS_12basic_stringIcNS_11char_traitsIcEENS2_IcEEEEEENS_16reverse_iteratorIPS7_EEEEED2B8ue170006Ev, symObjAddr: 0x22164, symBinAddr: 0x2615C, symSize: 0x34 }
  - { offsetInCU: 0x8685D, offset: 0x868D9, size: 0x8, addend: 0x0, symName: __ZNKSt3__129_AllocatorDestroyRangeReverseINS_9allocatorINS_12basic_stringIcNS_11char_traitsIcEENS1_IcEEEEEENS_16reverse_iteratorIPS6_EEEclB8ue170006Ev, symObjAddr: 0x22198, symBinAddr: 0x26190, symSize: 0x44 }
  - { offsetInCU: 0x86B07, offset: 0x86B83, size: 0x8, addend: 0x0, symName: __ZNSt3__114__split_bufferINS_12basic_stringIcNS_11char_traitsIcEENS_9allocatorIcEEEERNS4_IS6_EEE17__destruct_at_endB8ue170006EPS6_, symObjAddr: 0x22210, symBinAddr: 0x26208, symSize: 0x54 }
  - { offsetInCU: 0x86CAE, offset: 0x86D2A, size: 0x8, addend: 0x0, symName: __ZNSt3__16vectorINS_12basic_stringIcNS_11char_traitsIcEENS_9allocatorIcEEEENS4_IS6_EEE7__clearB8ue170006Ev, symObjAddr: 0x223D0, symBinAddr: 0x263C8, symSize: 0x54 }
  - { offsetInCU: 0x86F70, offset: 0x86FEC, size: 0x8, addend: 0x0, symName: __ZNSt3__112basic_stringIDiNS_11char_traitsIDiEENS_9allocatorIDiEEE6appendEmDi, symObjAddr: 0x22714, symBinAddr: 0x2670C, symSize: 0xCC }
  - { offsetInCU: 0x8735F, offset: 0x873DB, size: 0x8, addend: 0x0, symName: __ZNSt3__123__optional_storage_baseINS_12basic_stringIcNS_11char_traitsIcEENS_9allocatorIcEEEELb0EE16__construct_fromB8ue170006IRKNS_20__optional_copy_baseIS6_Lb0EEEEEvOT_, symObjAddr: 0x230B8, symBinAddr: 0x270B0, symSize: 0x58 }
  - { offsetInCU: 0x87475, offset: 0x874F1, size: 0x8, addend: 0x0, symName: __ZNSt3__120__optional_copy_baseINS_12basic_stringIcNS_11char_traitsIcEENS_9allocatorIcEEEELb0EEC2B8ue170006ERKS7_.cold.1, symObjAddr: 0x236D0, symBinAddr: 0xB6ACDC, symSize: 0x14 }
  - { offsetInCU: 0x87490, offset: 0x8750C, size: 0x8, addend: 0x0, symName: __ZNSt3__120__optional_copy_baseINS_12basic_stringIcNS_11char_traitsIcEENS_9allocatorIcEEEELb0EEC2B8ue170006ERKS7_.cold.1, symObjAddr: 0x236D0, symBinAddr: 0xB6ACDC, symSize: 0x14 }
  - { offsetInCU: 0x874A5, offset: 0x87521, size: 0x8, addend: 0x0, symName: __ZNSt3__120__optional_copy_baseINS_12basic_stringIcNS_11char_traitsIcEENS_9allocatorIcEEEELb0EEC2B8ue170006ERKS7_.cold.1, symObjAddr: 0x236D0, symBinAddr: 0xB6ACDC, symSize: 0x14 }
  - { offsetInCU: 0x874BA, offset: 0x87536, size: 0x8, addend: 0x0, symName: __ZNSt3__120__optional_copy_baseINS_12basic_stringIcNS_11char_traitsIcEENS_9allocatorIcEEEELb0EEC2B8ue170006ERKS7_.cold.1, symObjAddr: 0x236D0, symBinAddr: 0xB6ACDC, symSize: 0x14 }
  - { offsetInCU: 0x874CF, offset: 0x8754B, size: 0x8, addend: 0x0, symName: __ZNSt3__120__optional_copy_baseINS_12basic_stringIcNS_11char_traitsIcEENS_9allocatorIcEEEELb0EEC2B8ue170006ERKS7_.cold.1, symObjAddr: 0x236D0, symBinAddr: 0xB6ACDC, symSize: 0x14 }
  - { offsetInCU: 0x874E4, offset: 0x87560, size: 0x8, addend: 0x0, symName: __ZNSt3__120__optional_copy_baseINS_12basic_stringIcNS_11char_traitsIcEENS_9allocatorIcEEEELb0EEC2B8ue170006ERKS7_.cold.1, symObjAddr: 0x236D0, symBinAddr: 0xB6ACDC, symSize: 0x14 }
  - { offsetInCU: 0x875A6, offset: 0x87622, size: 0x8, addend: 0x0, symName: _OUTLINED_FUNCTION_0, symObjAddr: 0x236E4, symBinAddr: 0x275A8, symSize: 0x8 }
  - { offsetInCU: 0x26, offset: 0x877AC, size: 0x8, addend: 0x0, symName: __ZN3tns21OneByteStringResourceC2EPKcm, symObjAddr: 0x0, symBinAddr: 0x276AC, symSize: 0x14 }
  - { offsetInCU: 0xD05C, offset: 0x947E2, size: 0x8, addend: 0x0, symName: __ZN3tns21OneByteStringResourceC2EPKcm, symObjAddr: 0x0, symBinAddr: 0x276AC, symSize: 0x14 }
  - { offsetInCU: 0xD0DE, offset: 0x94864, size: 0x8, addend: 0x0, symName: __ZN3tns21OneByteStringResourceC1EPKcm, symObjAddr: 0x14, symBinAddr: 0x276C0, symSize: 0x14 }
  - { offsetInCU: 0xD126, offset: 0x948AC, size: 0x8, addend: 0x0, symName: __ZN3tns21OneByteStringResourceC1EPKcm, symObjAddr: 0x14, symBinAddr: 0x276C0, symSize: 0x14 }
  - { offsetInCU: 0xD169, offset: 0x948EF, size: 0x8, addend: 0x0, symName: __ZN3tns21OneByteStringResourceD2Ev, symObjAddr: 0x28, symBinAddr: 0x276D4, symSize: 0x38 }
  - { offsetInCU: 0xD1A6, offset: 0x9492C, size: 0x8, addend: 0x0, symName: __ZN3tns21OneByteStringResourceD1Ev, symObjAddr: 0x60, symBinAddr: 0x2770C, symSize: 0x38 }
  - { offsetInCU: 0xD1FF, offset: 0x94985, size: 0x8, addend: 0x0, symName: __ZN3tns21OneByteStringResourceD0Ev, symObjAddr: 0x98, symBinAddr: 0x27744, symSize: 0x38 }
  - { offsetInCU: 0xD264, offset: 0x949EA, size: 0x8, addend: 0x0, symName: __ZNK3tns21OneByteStringResource4dataEv, symObjAddr: 0xD0, symBinAddr: 0x2777C, symSize: 0x8 }
  - { offsetInCU: 0xD28D, offset: 0x94A13, size: 0x8, addend: 0x0, symName: __ZNK3tns21OneByteStringResource6lengthEv, symObjAddr: 0xD8, symBinAddr: 0x27784, symSize: 0x8 }
  - { offsetInCU: 0xD2B6, offset: 0x94A3C, size: 0x8, addend: 0x0, symName: __ZNK2v86String26ExternalStringResourceBase11IsCacheableEv, symObjAddr: 0xE0, symBinAddr: 0x2778C, symSize: 0x8 }
  - { offsetInCU: 0xD2DD, offset: 0x94A63, size: 0x8, addend: 0x0, symName: __ZN2v86String26ExternalStringResourceBase7DisposeEv, symObjAddr: 0xE8, symBinAddr: 0x27794, symSize: 0x14 }
  - { offsetInCU: 0xD30E, offset: 0x94A94, size: 0x8, addend: 0x0, symName: __ZNK2v86String26ExternalStringResourceBase4LockEv, symObjAddr: 0xFC, symBinAddr: 0x277A8, symSize: 0x4 }
  - { offsetInCU: 0xD333, offset: 0x94AB9, size: 0x8, addend: 0x0, symName: __ZNK2v86String26ExternalStringResourceBase6UnlockEv, symObjAddr: 0x100, symBinAddr: 0x277AC, symSize: 0x4 }
  - { offsetInCU: 0xF5D9, offset: 0xA40C2, size: 0x8, addend: 0x0, symName: __ZN4rnv819JSIV8ValueConverter10ToJSIValueEPN2v87IsolateERKNS1_5LocalINS1_5ValueEEE, symObjAddr: 0x0, symBinAddr: 0x277B0, symSize: 0x218 }
  - { offsetInCU: 0xFCF5, offset: 0xA47DE, size: 0x8, addend: 0x0, symName: __ZN4rnv819JSIV8ValueConverter9ToV8ValueERKNS_9V8RuntimeERKN8facebook3jsi5ValueE, symObjAddr: 0x218, symBinAddr: 0x279C8, symSize: 0x22C }
  - { offsetInCU: 0x10159, offset: 0xA4C42, size: 0x8, addend: 0x0, symName: __ZNKR8facebook3jsi5Value9getBigIntERNS0_7RuntimeE, symObjAddr: 0x6FC, symBinAddr: 0x27EAC, symSize: 0x48 }
  - { offsetInCU: 0x10228, offset: 0xA4D11, size: 0x8, addend: 0x0, symName: __ZN4rnv819JSIV8ValueConverter10ToV8StringERKNS_9V8RuntimeERKN8facebook3jsi10PropNameIDE, symObjAddr: 0x744, symBinAddr: 0x27EF4, symSize: 0xC8 }
  - { offsetInCU: 0x10232, offset: 0xA4D1B, size: 0x8, addend: 0x0, symName: __ZN4rnv819JSIV8ValueConverter10ToV8BigIntERKNS_9V8RuntimeERKN8facebook3jsi6BigIntE, symObjAddr: 0x64C, symBinAddr: 0x27DFC, symSize: 0xB0 }
  - { offsetInCU: 0x10337, offset: 0xA4E20, size: 0x8, addend: 0x0, symName: __ZNKR8facebook3jsi5Value9getStringERNS0_7RuntimeE, symObjAddr: 0x50C, symBinAddr: 0x27CBC, symSize: 0x48 }
  - { offsetInCU: 0x10406, offset: 0xA4EEF, size: 0x8, addend: 0x0, symName: __ZN4rnv819JSIV8ValueConverter10ToV8ObjectERKNS_9V8RuntimeERKN8facebook3jsi6ObjectE, symObjAddr: 0x554, symBinAddr: 0x27D04, symSize: 0xB0 }
  - { offsetInCU: 0x10410, offset: 0xA4EF9, size: 0x8, addend: 0x0, symName: __ZN4rnv819JSIV8ValueConverter10ToV8StringERKNS_9V8RuntimeERKN8facebook3jsi6StringE, symObjAddr: 0x444, symBinAddr: 0x27BF4, symSize: 0xC8 }
  - { offsetInCU: 0x10617, offset: 0xA5100, size: 0x8, addend: 0x0, symName: __ZNKR8facebook3jsi5Value9getObjectERNS0_7RuntimeE, symObjAddr: 0x604, symBinAddr: 0x27DB4, symSize: 0x48 }
  - { offsetInCU: 0x106E6, offset: 0xA51CF, size: 0x8, addend: 0x0, symName: __ZN4rnv819JSIV8ValueConverter10ToV8BigIntERKNS_9V8RuntimeERKN8facebook3jsi6BigIntE, symObjAddr: 0x64C, symBinAddr: 0x27DFC, symSize: 0xB0 }
  - { offsetInCU: 0x106F0, offset: 0xA51D9, size: 0x8, addend: 0x0, symName: __ZN4rnv819JSIV8ValueConverter10ToV8ObjectERKNS_9V8RuntimeERKN8facebook3jsi6ObjectE, symObjAddr: 0x554, symBinAddr: 0x27D04, symSize: 0xB0 }
  - { offsetInCU: 0x1088A, offset: 0xA5373, size: 0x8, addend: 0x0, symName: __ZNKR8facebook3jsi5Value9getStringERNS0_7RuntimeE.cold.1, symObjAddr: 0xD8C, symBinAddr: 0xB6ACF0, symSize: 0x28 }
  - { offsetInCU: 0x108FC, offset: 0xA53E5, size: 0x8, addend: 0x0, symName: __ZNKR8facebook3jsi5Value9getObjectERNS0_7RuntimeE.cold.1, symObjAddr: 0xDB4, symBinAddr: 0xB6AD18, symSize: 0x28 }
  - { offsetInCU: 0x1096E, offset: 0xA5457, size: 0x8, addend: 0x0, symName: __ZNKR8facebook3jsi5Value9getBigIntERNS0_7RuntimeE.cold.1, symObjAddr: 0xDDC, symBinAddr: 0xB6AD40, symSize: 0x28 }
  - { offsetInCU: 0x10986, offset: 0xA546F, size: 0x8, addend: 0x0, symName: __ZN4rnv819JSIV8ValueConverter10ToV8StringERKNS_9V8RuntimeERKN8facebook3jsi10PropNameIDE, symObjAddr: 0x744, symBinAddr: 0x27EF4, symSize: 0xC8 }
  - { offsetInCU: 0x10BD4, offset: 0xA56BD, size: 0x8, addend: 0x0, symName: __ZN4rnv819JSIV8ValueConverter10ToV8StringERKNS_9V8RuntimeERKNSt3__110shared_ptrIKN8facebook3jsi6BufferEEE, symObjAddr: 0x80C, symBinAddr: 0x27FBC, symSize: 0xA8 }
  - { offsetInCU: 0x10D6A, offset: 0xA5853, size: 0x8, addend: 0x0, symName: __ZN4rnv819JSIV8ValueConverter10ToV8SymbolERKNS_9V8RuntimeERKN8facebook3jsi6SymbolE, symObjAddr: 0x8B4, symBinAddr: 0x28064, symSize: 0xB0 }
  - { offsetInCU: 0x10EA6, offset: 0xA598F, size: 0x8, addend: 0x0, symName: __ZN4rnv819JSIV8ValueConverter9ToV8ArrayERKNS_9V8RuntimeERKN8facebook3jsi5ArrayE, symObjAddr: 0x964, symBinAddr: 0x28114, symSize: 0xB0 }
  - { offsetInCU: 0x10FE2, offset: 0xA5ACB, size: 0x8, addend: 0x0, symName: __ZN4rnv819JSIV8ValueConverter12ToV8FunctionERKNS_9V8RuntimeERKN8facebook3jsi8FunctionE, symObjAddr: 0xA14, symBinAddr: 0x281C4, symSize: 0xB0 }
  - { offsetInCU: 0x111A3, offset: 0xA5C8C, size: 0x8, addend: 0x0, symName: __ZN4rnv819JSIV8ValueConverter15ToJSIPropNameIDERKNS_9V8RuntimeERKN2v85LocalINS4_4NameEEE, symObjAddr: 0xAC4, symBinAddr: 0x28274, symSize: 0x90 }
  - { offsetInCU: 0x11367, offset: 0xA5E50, size: 0x8, addend: 0x0, symName: __ZN4rnv819JSIV8ValueConverter11ToSTLStringERKN2v86String9Utf8ValueE, symObjAddr: 0xB54, symBinAddr: 0x28304, symSize: 0x20 }
  - { offsetInCU: 0x11387, offset: 0xA5E70, size: 0x8, addend: 0x0, symName: __ZN4rnv819JSIV8ValueConverter11ToSTLStringERKN2v86String9Utf8ValueE, symObjAddr: 0xB54, symBinAddr: 0x28304, symSize: 0x20 }
  - { offsetInCU: 0x11654, offset: 0xA613D, size: 0x8, addend: 0x0, symName: __ZN4rnv819JSIV8ValueConverter11ToSTLStringEPN2v87IsolateERKNS1_5LocalINS1_5ValueEEE, symObjAddr: 0xB74, symBinAddr: 0x28324, symSize: 0xEC }
  - { offsetInCU: 0x26, offset: 0xA65E4, size: 0x8, addend: 0x0, symName: __ZN3tns7WeakRef4InitEN2v85LocalINS1_7ContextEEE, symObjAddr: 0x0, symBinAddr: 0x28410, symSize: 0x144 }
  - { offsetInCU: 0xD4A6, offset: 0xB3A64, size: 0x8, addend: 0x0, symName: __ZN3tns7WeakRef4InitEN2v85LocalINS1_7ContextEEE, symObjAddr: 0x0, symBinAddr: 0x28410, symSize: 0x144 }
  - { offsetInCU: 0x26, offset: 0xB458B, size: 0x8, addend: 0x0, symName: __ZN3tns9ExtVector11NewInstanceEPN2v87IsolateEPvP9_ffi_typePKNS_12TypeEncodingES9_, symObjAddr: 0x0, symBinAddr: 0x28554, symSize: 0x1E0 }
  - { offsetInCU: 0x644D, offset: 0xBA9B2, size: 0x8, addend: 0x0, symName: __ZN3tns9ExtVector11NewInstanceEPN2v87IsolateEPvP9_ffi_typePKNS_12TypeEncodingES9_, symObjAddr: 0x0, symBinAddr: 0x28554, symSize: 0x1E0 }
  - { offsetInCU: 0x6BF1, offset: 0xBB156, size: 0x8, addend: 0x0, symName: __ZN3tns9ExtVector22RegisterToStringMethodEPN2v87IsolateENS1_5LocalINS1_14ObjectTemplateEEE, symObjAddr: 0x42C, symBinAddr: 0x28980, symSize: 0xEC }
  - { offsetInCU: 0x7150, offset: 0xBB6B5, size: 0x8, addend: 0x0, symName: __ZN3tns9ExtVector26IndexedPropertyGetCallbackEjRKN2v820PropertyCallbackInfoINS1_5ValueEEE, symObjAddr: 0x1E0, symBinAddr: 0x28734, symSize: 0x138 }
  - { offsetInCU: 0x76B8, offset: 0xBBC1D, size: 0x8, addend: 0x0, symName: __ZN3tns9ExtVector26IndexedPropertySetCallbackEjN2v85LocalINS1_5ValueEEERKNS1_20PropertyCallbackInfoIS3_EE, symObjAddr: 0x318, symBinAddr: 0x2886C, symSize: 0x114 }
  - { offsetInCU: 0x7B30, offset: 0xBC095, size: 0x8, addend: 0x0, symName: __ZN3tns16ExtVectorWrapperD1Ev, symObjAddr: 0x518, symBinAddr: 0x28A6C, symSize: 0x4 }
  - { offsetInCU: 0x7B5C, offset: 0xBC0C1, size: 0x8, addend: 0x0, symName: __ZN3tns16ExtVectorWrapperD0Ev, symObjAddr: 0x51C, symBinAddr: 0x28A70, symSize: 0x4 }
  - { offsetInCU: 0x7B88, offset: 0xBC0ED, size: 0x8, addend: 0x0, symName: __ZN3tns16ExtVectorWrapper4TypeEv, symObjAddr: 0x520, symBinAddr: 0x28A74, symSize: 0x8 }
  - { offsetInCU: 0x7DB2, offset: 0xBC317, size: 0x8, addend: 0x0, symName: '__ZZN3tns9ExtVector22RegisterToStringMethodEPN2v87IsolateENS1_5LocalINS1_14ObjectTemplateEEEEN3$_08__invokeERKNS1_20FunctionCallbackInfoINS1_5ValueEEE', symObjAddr: 0x528, symBinAddr: 0x28A7C, symSize: 0x144 }
  - { offsetInCU: 0x59, offset: 0xBCAEB, size: 0x8, addend: 0x0, symName: __ZN3tnsL12NSTimerClassE, symObjAddr: 0x1EF948, symBinAddr: 0x159D008, symSize: 0x0 }
  - { offsetInCU: 0x223D, offset: 0xBECCF, size: 0x8, addend: 0x0, symName: __ZN3tns8ToStringEPN2v87IsolateERKNS0_5LocalINS0_5ValueEEE, symObjAddr: 0x101C, symBinAddr: 0x29BDC, symSize: 0xBC }
  - { offsetInCU: 0x13A20, offset: 0xD04B2, size: 0x8, addend: 0x0, symName: __ZNSt3__124__put_character_sequenceB8ue170006IcNS_11char_traitsIcEEEERNS_13basic_ostreamIT_T0_EES7_PKS4_m, symObjAddr: 0x28BC, symBinAddr: 0x2B20C, symSize: 0x164 }
  - { offsetInCU: 0x15616, offset: 0xD20A8, size: 0x8, addend: 0x0, symName: __ZNSt3__115allocate_sharedB8ue170006IN3tns6CachesENS_9allocatorIS2_EEJRPN2v87IsolateEEvEENS_10shared_ptrIT_EERKT0_DpOT1_, symObjAddr: 0x11D4, symBinAddr: 0x29D94, symSize: 0x58 }
  - { offsetInCU: 0x158D5, offset: 0xD2367, size: 0x8, addend: 0x0, symName: __ZNSt3__115allocate_sharedB8ue170006IN2v810PersistentINS1_5ValueENS1_27NonCopyablePersistentTraitsIS3_EEEENS_9allocatorIS6_EEJRPNS1_7IsolateERKNS1_5LocalIS3_EEEvEENS_10shared_ptrIT_EERKT0_DpOT1_, symObjAddr: 0x1E60, symBinAddr: 0x2A7B0, symSize: 0x60 }
  - { offsetInCU: 0x162E8, offset: 0xD2D7A, size: 0x8, addend: 0x0, symName: __ZNSt3__135__uninitialized_allocator_copy_implB8ue170006INS_9allocatorIN3tns11StructFieldEEEPS3_S5_S5_EET2_RT_T0_T1_S6_, symObjAddr: 0x1538, symBinAddr: 0x29FC0, symSize: 0xD8 }
  - { offsetInCU: 0x16554, offset: 0xD2FE6, size: 0x8, addend: 0x0, symName: __ZNSt3__119__allocate_at_leastB8ue170006INS_9allocatorIN3tns11StructFieldEEEEENS_19__allocation_resultINS_16allocator_traitsIT_E7pointerEEERS7_m, symObjAddr: 0x14F4, symBinAddr: 0x29F7C, symSize: 0x44 }
  - { offsetInCU: 0x165F2, offset: 0xD3084, size: 0x8, addend: 0x0, symName: __ZNSt3__135__uninitialized_allocator_copy_implB8ue170006INS_9allocatorIN3tns11StructFieldEEEPS3_S5_S5_EET2_RT_T0_T1_S6_, symObjAddr: 0x1538, symBinAddr: 0x29FC0, symSize: 0xD8 }
  - { offsetInCU: 0x171FA, offset: 0xD3C8C, size: 0x8, addend: 0x0, symName: __ZNSt3__116__pad_and_outputB8ue170006IcNS_11char_traitsIcEEEENS_19ostreambuf_iteratorIT_T0_EES6_PKS4_S8_S8_RNS_8ios_baseES4_, symObjAddr: 0x2A20, symBinAddr: 0x2B370, symSize: 0x13C }
  - { offsetInCU: 0x223ED, offset: 0xDEE7F, size: 0x8, addend: 0x0, symName: __ZN3tns13ObjectManager4InitEPN2v87IsolateENS1_5LocalINS1_14ObjectTemplateEEE, symObjAddr: 0x0, symBinAddr: 0x28BC0, symSize: 0xEC }
  - { offsetInCU: 0x22931, offset: 0xDF3C3, size: 0x8, addend: 0x0, symName: __ZNSt3__115allocate_sharedB8ue170006IN2v810PersistentINS1_5ValueENS1_27NonCopyablePersistentTraitsIS3_EEEENS_9allocatorIS6_EEJRPNS1_7IsolateERKNS1_5LocalIS3_EEEvEENS_10shared_ptrIT_EERKT0_DpOT1_, symObjAddr: 0x1E60, symBinAddr: 0x2A7B0, symSize: 0x60 }
  - { offsetInCU: 0x22D37, offset: 0xDF7C9, size: 0x8, addend: 0x0, symName: __ZN3tns13ObjectManager32ReleaseNativeCounterpartCallbackERKN2v820FunctionCallbackInfoINS1_5ValueEEE, symObjAddr: 0xEC, symBinAddr: 0x28CAC, symSize: 0x470 }
  - { offsetInCU: 0x2403A, offset: 0xE0ACC, size: 0x8, addend: 0x0, symName: __ZNSt3__119basic_ostringstreamIcNS_11char_traitsIcEENS_9allocatorIcEEEC1B8ue170006Ev, symObjAddr: 0xEBC, symBinAddr: 0x29A7C, symSize: 0xD4 }
  - { offsetInCU: 0x240F4, offset: 0xE0B86, size: 0x8, addend: 0x0, symName: __ZNKSt3__115basic_stringbufIcNS_11char_traitsIcEENS_9allocatorIcEEE3strEv, symObjAddr: 0x2BF4, symBinAddr: 0x2B4AC, symSize: 0x4C }
  - { offsetInCU: 0x241F5, offset: 0xE0C87, size: 0x8, addend: 0x0, symName: __ZNK10robin_hood6detail5TableILb1ELm80EP11objc_objectNSt3__110shared_ptrIN2v810PersistentINS6_5ValueENS6_27NonCopyablePersistentTraitsIS8_EEEEEENS_4hashIS3_vEENS4_8equal_toIS3_EEE7findIdxIS3_EEmRKT_, symObjAddr: 0x2CD4, symBinAddr: 0x2B58C, symSize: 0xE8 }
  - { offsetInCU: 0x2424E, offset: 0xE0CE0, size: 0x8, addend: 0x0, symName: __ZNK10robin_hood6detail5TableILb1ELm80EP11objc_objectNSt3__110shared_ptrIN2v810PersistentINS6_5ValueENS6_27NonCopyablePersistentTraitsIS8_EEEEEENS_4hashIS3_vEENS4_8equal_toIS3_EEE7findIdxIS3_EEmRKT_, symObjAddr: 0x2CD4, symBinAddr: 0x2B58C, symSize: 0xE8 }
  - { offsetInCU: 0x2437E, offset: 0xE0E10, size: 0x8, addend: 0x0, symName: __ZNSt3__110shared_ptrIN2v810PersistentINS1_5ValueENS1_27NonCopyablePersistentTraitsIS3_EEEEED2B8ue170006Ev, symObjAddr: 0x1D20, symBinAddr: 0x2A710, symSize: 0x50 }
  - { offsetInCU: 0x24401, offset: 0xE0E93, size: 0x8, addend: 0x0, symName: __ZN10robin_hood6detail5TableILb1ELm80EP11objc_objectNSt3__110shared_ptrIN2v810PersistentINS6_5ValueENS6_27NonCopyablePersistentTraitsIS8_EEEEEENS_4hashIS3_vEENS4_8equal_toIS3_EEE5eraseENSH_4IterILb0EEE, symObjAddr: 0x10D8, symBinAddr: 0x29C98, symSize: 0xA0 }
  - { offsetInCU: 0x244A8, offset: 0xE0F3A, size: 0x8, addend: 0x0, symName: __ZNSt3__110shared_ptrIN3tns6CachesEED2B8ue170006Ev, symObjAddr: 0x1D70, symBinAddr: 0x2A760, symSize: 0x50 }
  - { offsetInCU: 0x2452B, offset: 0xE0FBD, size: 0x8, addend: 0x0, symName: __ZNSt3__119basic_ostringstreamIcNS_11char_traitsIcEENS_9allocatorIcEEED1Ev, symObjAddr: 0xF90, symBinAddr: 0x29B50, symSize: 0x8C }
  - { offsetInCU: 0x24805, offset: 0xE1297, size: 0x8, addend: 0x0, symName: __ZN3tns13ObjectManager8RegisterEN2v85LocalINS1_7ContextEEENS2_INS1_5ValueEEE, symObjAddr: 0x55C, symBinAddr: 0x2911C, symSize: 0xE4 }
  - { offsetInCU: 0x24C34, offset: 0xE16C6, size: 0x8, addend: 0x0, symName: __ZN3tns13ObjectManager17FinalizerCallbackERKN2v816WeakCallbackInfoINS_23ObjectWeakCallbackStateEEE, symObjAddr: 0x640, symBinAddr: 0x29200, symSize: 0x98 }
  - { offsetInCU: 0x24E61, offset: 0xE18F3, size: 0x8, addend: 0x0, symName: __ZN3tns13ObjectManager12DisposeValueEPN2v87IsolateENS1_5LocalINS1_5ValueEEEb, symObjAddr: 0x6D8, symBinAddr: 0x29298, symSize: 0x4AC }
  - { offsetInCU: 0x266DB, offset: 0xE316D, size: 0x8, addend: 0x0, symName: __ZN10robin_hood6detail5TableILb1ELm80EP11objc_objectNSt3__110shared_ptrIN2v810PersistentINS6_5ValueENS6_27NonCopyablePersistentTraitsIS8_EEEEEENS_4hashIS3_vEENS4_8equal_toIS3_EEE5eraseERKS3_, symObjAddr: 0xD34, symBinAddr: 0x298F4, symSize: 0xC4 }
  - { offsetInCU: 0x267F1, offset: 0xE3283, size: 0x8, addend: 0x0, symName: __ZN10robin_hood6detail5TableILb1ELm80EPKvNSt3__110shared_ptrIN2v810PersistentINS6_6ObjectENS6_27NonCopyablePersistentTraitsIS8_EEEEEENS_4hashIS3_vEENS4_8equal_toIS3_EEE5eraseERKS3_, symObjAddr: 0xDF8, symBinAddr: 0x299B8, symSize: 0xC4 }
  - { offsetInCU: 0x26907, offset: 0xE3399, size: 0x8, addend: 0x0, symName: __ZN3tns17StructTypeWrapper10StructInfoEv, symObjAddr: 0xB84, symBinAddr: 0x29744, symSize: 0x98 }
  - { offsetInCU: 0x26D07, offset: 0xE3799, size: 0x8, addend: 0x0, symName: __ZN3tns10StructInfoD1Ev, symObjAddr: 0xC1C, symBinAddr: 0x297DC, symSize: 0x48 }
  - { offsetInCU: 0x26EF9, offset: 0xE398B, size: 0x8, addend: 0x0, symName: __ZN10robin_hood6detail5TableILb1ELm80ENSt3__14pairIPvNS2_12basic_stringIcNS2_11char_traitsIcEENS2_9allocatorIcEEEEEENS2_10shared_ptrIN2v810PersistentINSD_5ValueENSD_27NonCopyablePersistentTraitsISF_EEEEEEN3tns9pair_hashENS2_8equal_toISB_EEE5eraseERKSB_, symObjAddr: 0xC64, symBinAddr: 0x29824, symSize: 0xD0 }
  - { offsetInCU: 0x2707B, offset: 0xE3B0D, size: 0x8, addend: 0x0, symName: __ZNSt3__16vectorIN3tns11StructFieldENS_9allocatorIS2_EEE16__init_with_sizeB8ue170006IPS2_S7_EEvT_T0_m, symObjAddr: 0x140C, symBinAddr: 0x29E94, symSize: 0x84 }
  - { offsetInCU: 0x27372, offset: 0xE3E04, size: 0x8, addend: 0x0, symName: __ZNSt3__16vectorIN3tns11StructFieldENS_9allocatorIS2_EEE16__destroy_vectorclB8ue170006Ev, symObjAddr: 0x1690, symBinAddr: 0x2A118, symSize: 0x40 }
  - { offsetInCU: 0x274D9, offset: 0xE3F6B, size: 0x8, addend: 0x0, symName: __ZNK3tns9pair_hashclIPvNSt3__112basic_stringIcNS3_11char_traitsIcEENS3_9allocatorIcEEEEEEmRKNS3_4pairIT_T0_EE, symObjAddr: 0x2114, symBinAddr: 0x2AA64, symSize: 0x68 }
  - { offsetInCU: 0x275FF, offset: 0xE4091, size: 0x8, addend: 0x0, symName: __ZNKSt3__18equal_toINS_4pairIPvNS_12basic_stringIcNS_11char_traitsIcEENS_9allocatorIcEEEEEEEclB8ue170006ERKS9_SC_, symObjAddr: 0x1F68, symBinAddr: 0x2A8B8, symSize: 0xB0 }
  - { offsetInCU: 0x2776C, offset: 0xE41FE, size: 0x8, addend: 0x0, symName: __ZN10robin_hood6detail5TableILb1ELm80ENSt3__14pairIPvNS2_12basic_stringIcNS2_11char_traitsIcEENS2_9allocatorIcEEEEEENS2_10shared_ptrIN2v810PersistentINSD_5ValueENSD_27NonCopyablePersistentTraitsISF_EEEEEEN3tns9pair_hashENS2_8equal_toISB_EEE9shiftDownEm, symObjAddr: 0x2018, symBinAddr: 0x2A968, symSize: 0xFC }
  - { offsetInCU: 0x27BA2, offset: 0xE4634, size: 0x8, addend: 0x0, symName: __ZN10robin_hood6detail5TableILb1ELm80EP11objc_objectNSt3__110shared_ptrIN2v810PersistentINS6_5ValueENS6_27NonCopyablePersistentTraitsIS8_EEEEEENS_4hashIS3_vEENS4_8equal_toIS3_EEE9shiftDownEm, symObjAddr: 0x26D0, symBinAddr: 0x2B020, symSize: 0xA0 }
  - { offsetInCU: 0x27D96, offset: 0xE4828, size: 0x8, addend: 0x0, symName: __ZN10robin_hood6detail5TableILb1ELm80EPKvNSt3__110shared_ptrIN2v810PersistentINS6_6ObjectENS6_27NonCopyablePersistentTraitsIS8_EEEEEENS_4hashIS3_vEENS4_8equal_toIS3_EEE9shiftDownEm, symObjAddr: 0x2770, symBinAddr: 0x2B0C0, symSize: 0xA0 }
  - { offsetInCU: 0x28275, offset: 0xE4D07, size: 0x8, addend: 0x0, symName: __ZNSt3__110shared_ptrIN2v810PersistentINS1_5ValueENS1_27NonCopyablePersistentTraitsIS3_EEEEED2B8ue170006Ev, symObjAddr: 0x1D20, symBinAddr: 0x2A710, symSize: 0x50 }
  - { offsetInCU: 0x282CA, offset: 0xE4D5C, size: 0x8, addend: 0x0, symName: __ZN3tns13ObjectManager12IsInstanceOfEP11objc_objectP10objc_class, symObjAddr: 0x1178, symBinAddr: 0x29D38, symSize: 0x18 }
  - { offsetInCU: 0x28310, offset: 0xE4DA2, size: 0x8, addend: 0x0, symName: __ZN3tns13ObjectManager14GetRetainCountEP11objc_object, symObjAddr: 0x1190, symBinAddr: 0x29D50, symSize: 0x44 }
  - { offsetInCU: 0x285DA, offset: 0xE506C, size: 0x8, addend: 0x0, symName: __ZNSt3__120__shared_ptr_emplaceIN3tns6CachesENS_9allocatorIS2_EEEC2B8ue170006IJRPN2v87IsolateEEEES4_DpOT_, symObjAddr: 0x1254, symBinAddr: 0x29DEC, symSize: 0x64 }
  - { offsetInCU: 0x286C8, offset: 0xE515A, size: 0x8, addend: 0x0, symName: __ZNSt3__120__shared_ptr_emplaceIN3tns6CachesENS_9allocatorIS2_EEED1Ev, symObjAddr: 0x12B8, symBinAddr: 0x29E50, symSize: 0x14 }
  - { offsetInCU: 0x286EA, offset: 0xE517C, size: 0x8, addend: 0x0, symName: __ZNSt3__120__shared_ptr_emplaceIN3tns6CachesENS_9allocatorIS2_EEED1Ev, symObjAddr: 0x12B8, symBinAddr: 0x29E50, symSize: 0x14 }
  - { offsetInCU: 0x28722, offset: 0xE51B4, size: 0x8, addend: 0x0, symName: __ZNSt3__120__shared_ptr_emplaceIN3tns6CachesENS_9allocatorIS2_EEED0Ev, symObjAddr: 0x12CC, symBinAddr: 0x29E64, symSize: 0x24 }
  - { offsetInCU: 0x28788, offset: 0xE521A, size: 0x8, addend: 0x0, symName: __ZNSt3__120__shared_ptr_emplaceIN3tns6CachesENS_9allocatorIS2_EEE16__on_zero_sharedEv, symObjAddr: 0x12F0, symBinAddr: 0x29E88, symSize: 0x8 }
  - { offsetInCU: 0x287B1, offset: 0xE5243, size: 0x8, addend: 0x0, symName: __ZNSt3__120__shared_ptr_emplaceIN3tns6CachesENS_9allocatorIS2_EEE16__on_zero_sharedEv, symObjAddr: 0x12F0, symBinAddr: 0x29E88, symSize: 0x8 }
  - { offsetInCU: 0x287CC, offset: 0xE525E, size: 0x8, addend: 0x0, symName: __ZNSt3__120__shared_ptr_emplaceIN3tns6CachesENS_9allocatorIS2_EEE21__on_zero_shared_weakEv, symObjAddr: 0x12F8, symBinAddr: 0x29E90, symSize: 0x4 }
  - { offsetInCU: 0x287FF, offset: 0xE5291, size: 0x8, addend: 0x0, symName: __ZNSt3__120__shared_ptr_emplaceIN3tns6CachesENS_9allocatorIS2_EEE21__on_zero_shared_weakEv, symObjAddr: 0x12F8, symBinAddr: 0x29E90, symSize: 0x4 }
  - { offsetInCU: 0x28821, offset: 0xE52B3, size: 0x8, addend: 0x0, symName: __ZNSt3__120__shared_ptr_emplaceIN3tns6CachesENS_9allocatorIS2_EEE21__on_zero_shared_weakEv, symObjAddr: 0x12F8, symBinAddr: 0x29E90, symSize: 0x4 }
  - { offsetInCU: 0x28843, offset: 0xE52D5, size: 0x8, addend: 0x0, symName: __ZNSt3__120__shared_ptr_emplaceIN3tns6CachesENS_9allocatorIS2_EEE21__on_zero_shared_weakEv, symObjAddr: 0x12F8, symBinAddr: 0x29E90, symSize: 0x4 }
  - { offsetInCU: 0x28870, offset: 0xE5302, size: 0x8, addend: 0x0, symName: __ZNSt3__120__shared_ptr_emplaceIN3tns6CachesENS_9allocatorIS2_EEE21__on_zero_shared_weakEv, symObjAddr: 0x12F8, symBinAddr: 0x29E90, symSize: 0x4 }
  - { offsetInCU: 0x28898, offset: 0xE532A, size: 0x8, addend: 0x0, symName: __ZNSt3__120__shared_ptr_emplaceIN3tns6CachesENS_9allocatorIS2_EEE21__on_zero_shared_weakEv, symObjAddr: 0x12F8, symBinAddr: 0x29E90, symSize: 0x4 }
  - { offsetInCU: 0x28C3D, offset: 0xE56CF, size: 0x8, addend: 0x0, symName: __ZNSt3__16vectorIN3tns11StructFieldENS_9allocatorIS2_EEE11__vallocateB8ue170006Em, symObjAddr: 0x1490, symBinAddr: 0x29F18, symSize: 0x50 }
  - { offsetInCU: 0x28CB0, offset: 0xE5742, size: 0x8, addend: 0x0, symName: __ZNKSt3__16vectorIN3tns11StructFieldENS_9allocatorIS2_EEE20__throw_length_errorB8ue170006Ev, symObjAddr: 0x14E0, symBinAddr: 0x29F68, symSize: 0x14 }
  - { offsetInCU: 0x28CBB, offset: 0xE574D, size: 0x8, addend: 0x0, symName: __ZNKSt3__16vectorIN3tns11StructFieldENS_9allocatorIS2_EEE20__throw_length_errorB8ue170006Ev, symObjAddr: 0x14E0, symBinAddr: 0x29F68, symSize: 0x14 }
  - { offsetInCU: 0x28CE4, offset: 0xE5776, size: 0x8, addend: 0x0, symName: __ZNSt3__119__allocate_at_leastB8ue170006INS_9allocatorIN3tns11StructFieldEEEEENS_19__allocation_resultINS_16allocator_traitsIT_E7pointerEEERS7_m, symObjAddr: 0x14F4, symBinAddr: 0x29F7C, symSize: 0x44 }
  - { offsetInCU: 0x28E5A, offset: 0xE58EC, size: 0x8, addend: 0x0, symName: __ZNSt3__128__exception_guard_exceptionsINS_29_AllocatorDestroyRangeReverseINS_9allocatorIN3tns11StructFieldEEEPS4_EEED2B8ue170006Ev, symObjAddr: 0x1610, symBinAddr: 0x2A098, symSize: 0x34 }
  - { offsetInCU: 0x28E92, offset: 0xE5924, size: 0x8, addend: 0x0, symName: __ZNKSt3__129_AllocatorDestroyRangeReverseINS_9allocatorIN3tns11StructFieldEEEPS3_EclB8ue170006Ev, symObjAddr: 0x1644, symBinAddr: 0x2A0CC, symSize: 0x4C }
  - { offsetInCU: 0x29206, offset: 0xE5C98, size: 0x8, addend: 0x0, symName: __ZNSt3__16vectorIN3tns11StructFieldENS_9allocatorIS2_EEE7__clearB8ue170006Ev, symObjAddr: 0x16D0, symBinAddr: 0x2A158, symSize: 0x54 }
  - { offsetInCU: 0x2942F, offset: 0xE5EC1, size: 0x8, addend: 0x0, symName: __ZTv0_n24_NSt3__119basic_ostringstreamIcNS_11char_traitsIcEENS_9allocatorIcEEED1Ev, symObjAddr: 0x1724, symBinAddr: 0x2A1AC, symSize: 0x8C }
  - { offsetInCU: 0x295D3, offset: 0xE6065, size: 0x8, addend: 0x0, symName: __ZNSt3__119basic_ostringstreamIcNS_11char_traitsIcEENS_9allocatorIcEEED0Ev, symObjAddr: 0x17B0, symBinAddr: 0x2A238, symSize: 0x8C }
  - { offsetInCU: 0x2979C, offset: 0xE622E, size: 0x8, addend: 0x0, symName: __ZTv0_n24_NSt3__119basic_ostringstreamIcNS_11char_traitsIcEENS_9allocatorIcEEED0Ev, symObjAddr: 0x183C, symBinAddr: 0x2A2C4, symSize: 0x94 }
  - { offsetInCU: 0x2995C, offset: 0xE63EE, size: 0x8, addend: 0x0, symName: __ZNSt3__115basic_stringbufIcNS_11char_traitsIcEENS_9allocatorIcEEED1Ev, symObjAddr: 0x18D0, symBinAddr: 0x2A358, symSize: 0x40 }
  - { offsetInCU: 0x29AC5, offset: 0xE6557, size: 0x8, addend: 0x0, symName: __ZNSt3__115basic_stringbufIcNS_11char_traitsIcEENS_9allocatorIcEEED0Ev, symObjAddr: 0x1910, symBinAddr: 0x2A398, symSize: 0x44 }
  - { offsetInCU: 0x29D36, offset: 0xE67C8, size: 0x8, addend: 0x0, symName: __ZNSt3__115basic_stringbufIcNS_11char_traitsIcEENS_9allocatorIcEEE7seekoffExNS_8ios_base7seekdirEj, symObjAddr: 0x1954, symBinAddr: 0x2A3DC, symSize: 0x100 }
  - { offsetInCU: 0x29F34, offset: 0xE69C6, size: 0x8, addend: 0x0, symName: __ZNSt3__115basic_stringbufIcNS_11char_traitsIcEENS_9allocatorIcEEE7seekposENS_4fposI11__mbstate_tEEj, symObjAddr: 0x1A54, symBinAddr: 0x2A4DC, symSize: 0x18 }
  - { offsetInCU: 0x29FB8, offset: 0xE6A4A, size: 0x8, addend: 0x0, symName: __ZNSt3__115basic_stringbufIcNS_11char_traitsIcEENS_9allocatorIcEEE9underflowEv, symObjAddr: 0x1A6C, symBinAddr: 0x2A4F4, symSize: 0x50 }
  - { offsetInCU: 0x2A05C, offset: 0xE6AEE, size: 0x8, addend: 0x0, symName: __ZNSt3__115basic_stringbufIcNS_11char_traitsIcEENS_9allocatorIcEEE9pbackfailEi, symObjAddr: 0x1ABC, symBinAddr: 0x2A544, symSize: 0x6C }
  - { offsetInCU: 0x2A230, offset: 0xE6CC2, size: 0x8, addend: 0x0, symName: __ZNSt3__115basic_stringbufIcNS_11char_traitsIcEENS_9allocatorIcEEE8overflowEi, symObjAddr: 0x1B28, symBinAddr: 0x2A5B0, symSize: 0x160 }
  - { offsetInCU: 0x2A876, offset: 0xE7308, size: 0x8, addend: 0x0, symName: __ZNSt3__120__shared_ptr_emplaceIN2v810PersistentINS1_5ValueENS1_27NonCopyablePersistentTraitsIS3_EEEENS_9allocatorIS6_EEEC2B8ue170006IJRPNS1_7IsolateERKNS1_5LocalIS3_EEEEES8_DpOT_, symObjAddr: 0x1EC0, symBinAddr: 0x2A810, symSize: 0x68 }
  - { offsetInCU: 0x2AAA4, offset: 0xE7536, size: 0x8, addend: 0x0, symName: __ZNSt3__120__shared_ptr_emplaceIN2v810PersistentINS1_5ValueENS1_27NonCopyablePersistentTraitsIS3_EEEENS_9allocatorIS6_EEED1Ev, symObjAddr: 0x1F28, symBinAddr: 0x2A878, symSize: 0x14 }
  - { offsetInCU: 0x2AAC6, offset: 0xE7558, size: 0x8, addend: 0x0, symName: __ZNSt3__120__shared_ptr_emplaceIN2v810PersistentINS1_5ValueENS1_27NonCopyablePersistentTraitsIS3_EEEENS_9allocatorIS6_EEED1Ev, symObjAddr: 0x1F28, symBinAddr: 0x2A878, symSize: 0x14 }
  - { offsetInCU: 0x2AAFE, offset: 0xE7590, size: 0x8, addend: 0x0, symName: __ZNSt3__120__shared_ptr_emplaceIN2v810PersistentINS1_5ValueENS1_27NonCopyablePersistentTraitsIS3_EEEENS_9allocatorIS6_EEED0Ev, symObjAddr: 0x1F3C, symBinAddr: 0x2A88C, symSize: 0x24 }
  - { offsetInCU: 0x2AB64, offset: 0xE75F6, size: 0x8, addend: 0x0, symName: __ZNSt3__120__shared_ptr_emplaceIN2v810PersistentINS1_5ValueENS1_27NonCopyablePersistentTraitsIS3_EEEENS_9allocatorIS6_EEE16__on_zero_sharedEv, symObjAddr: 0x1F60, symBinAddr: 0x2A8B0, symSize: 0x4 }
  - { offsetInCU: 0x2AB89, offset: 0xE761B, size: 0x8, addend: 0x0, symName: __ZNSt3__120__shared_ptr_emplaceIN2v810PersistentINS1_5ValueENS1_27NonCopyablePersistentTraitsIS3_EEEENS_9allocatorIS6_EEE21__on_zero_shared_weakEv, symObjAddr: 0x1F64, symBinAddr: 0x2A8B4, symSize: 0x4 }
  - { offsetInCU: 0x2ABBC, offset: 0xE764E, size: 0x8, addend: 0x0, symName: __ZNSt3__120__shared_ptr_emplaceIN2v810PersistentINS1_5ValueENS1_27NonCopyablePersistentTraitsIS3_EEEENS_9allocatorIS6_EEE21__on_zero_shared_weakEv, symObjAddr: 0x1F64, symBinAddr: 0x2A8B4, symSize: 0x4 }
  - { offsetInCU: 0x2ABDE, offset: 0xE7670, size: 0x8, addend: 0x0, symName: __ZNSt3__120__shared_ptr_emplaceIN2v810PersistentINS1_5ValueENS1_27NonCopyablePersistentTraitsIS3_EEEENS_9allocatorIS6_EEE21__on_zero_shared_weakEv, symObjAddr: 0x1F64, symBinAddr: 0x2A8B4, symSize: 0x4 }
  - { offsetInCU: 0x2AC00, offset: 0xE7692, size: 0x8, addend: 0x0, symName: __ZNSt3__120__shared_ptr_emplaceIN2v810PersistentINS1_5ValueENS1_27NonCopyablePersistentTraitsIS3_EEEENS_9allocatorIS6_EEE21__on_zero_shared_weakEv, symObjAddr: 0x1F64, symBinAddr: 0x2A8B4, symSize: 0x4 }
  - { offsetInCU: 0x2AC2B, offset: 0xE76BD, size: 0x8, addend: 0x0, symName: __ZNSt3__120__shared_ptr_emplaceIN2v810PersistentINS1_5ValueENS1_27NonCopyablePersistentTraitsIS3_EEEENS_9allocatorIS6_EEE21__on_zero_shared_weakEv, symObjAddr: 0x1F64, symBinAddr: 0x2A8B4, symSize: 0x4 }
  - { offsetInCU: 0x2AC51, offset: 0xE76E3, size: 0x8, addend: 0x0, symName: __ZNSt3__120__shared_ptr_emplaceIN2v810PersistentINS1_5ValueENS1_27NonCopyablePersistentTraitsIS3_EEEENS_9allocatorIS6_EEE21__on_zero_shared_weakEv, symObjAddr: 0x1F64, symBinAddr: 0x2A8B4, symSize: 0x4 }
  - { offsetInCU: 0x2ADE2, offset: 0xE7874, size: 0x8, addend: 0x0, symName: __ZNSt3__110shared_ptrIN2v810PersistentINS1_5ValueENS1_27NonCopyablePersistentTraitsIS3_EEEEEaSB8ue170006EOS7_, symObjAddr: 0x2674, symBinAddr: 0x2AFC4, symSize: 0x5C }
  - { offsetInCU: 0x2B0E3, offset: 0xE7B75, size: 0x8, addend: 0x0, symName: __ZNKSt3__113__string_hashIcNS_9allocatorIcEEEclB8ue170006ERKNS_12basic_stringIcNS_11char_traitsIcEES2_EE, symObjAddr: 0x217C, symBinAddr: 0x2AACC, symSize: 0x3C }
  - { offsetInCU: 0x2B1A6, offset: 0xE7C38, size: 0x8, addend: 0x0, symName: __ZNKSt3__121__murmur2_or_cityhashImLm64EEclB8ue170006EPKvm, symObjAddr: 0x21B8, symBinAddr: 0x2AB08, symSize: 0x208 }
  - { offsetInCU: 0x2B7A8, offset: 0xE823A, size: 0x8, addend: 0x0, symName: __ZNSt3__121__murmur2_or_cityhashImLm64EE18__hash_len_0_to_16B8ue170006EPKcm, symObjAddr: 0x23C0, symBinAddr: 0x2AD10, symSize: 0xF8 }
  - { offsetInCU: 0x2B966, offset: 0xE83F8, size: 0x8, addend: 0x0, symName: __ZNSt3__121__murmur2_or_cityhashImLm64EE19__hash_len_33_to_64B8ue170006EPKcm, symObjAddr: 0x2564, symBinAddr: 0x2AEB4, symSize: 0x110 }
  - { offsetInCU: 0x2BAEB, offset: 0xE857D, size: 0x8, addend: 0x0, symName: __ZNSt3__121__murmur2_or_cityhashImLm64EE19__hash_len_17_to_32B8ue170006EPKcm, symObjAddr: 0x24B8, symBinAddr: 0x2AE08, symSize: 0xAC }
  - { offsetInCU: 0x2BE51, offset: 0xE88E3, size: 0x8, addend: 0x0, symName: __ZNSt3__110shared_ptrIN2v810PersistentINS1_6ObjectENS1_27NonCopyablePersistentTraitsIS3_EEEEEaSB8ue170006EOS7_, symObjAddr: 0x2810, symBinAddr: 0x2B160, symSize: 0x5C }
  - { offsetInCU: 0x2BFA5, offset: 0xE8A37, size: 0x8, addend: 0x0, symName: __ZNSt3__110shared_ptrIN2v810PersistentINS1_6ObjectENS1_27NonCopyablePersistentTraitsIS3_EEEEED2B8ue170006Ev, symObjAddr: 0x286C, symBinAddr: 0x2B1BC, symSize: 0x50 }
  - { offsetInCU: 0x2C457, offset: 0xE8EE9, size: 0x8, addend: 0x0, symName: __ZNKSt3__115basic_stringbufIcNS_11char_traitsIcEENS_9allocatorIcEEE3strEv, symObjAddr: 0x2BF4, symBinAddr: 0x2B4AC, symSize: 0x4C }
  - { offsetInCU: 0x2C521, offset: 0xE8FB3, size: 0x8, addend: 0x0, symName: __ZNSt3__112basic_stringIcNS_11char_traitsIcEENS_9allocatorIcEEE16__init_with_sizeB8ue170006IPcS7_EEvT_T0_m, symObjAddr: 0x2C40, symBinAddr: 0x2B4F8, symSize: 0x94 }
  - { offsetInCU: 0x2C6F1, offset: 0xE9183, size: 0x8, addend: 0x0, symName: __ZNK10robin_hood6detail5TableILb1ELm80EP11objc_objectNSt3__110shared_ptrIN2v810PersistentINS6_5ValueENS6_27NonCopyablePersistentTraitsIS8_EEEEEENS_4hashIS3_vEENS4_8equal_toIS3_EEE7findIdxIS3_EEmRKT_, symObjAddr: 0x2CD4, symBinAddr: 0x2B58C, symSize: 0xE8 }
  - { offsetInCU: 0x2C715, offset: 0xE91A7, size: 0x8, addend: 0x0, symName: __GLOBAL__sub_I_ObjectManager.mm, symObjAddr: 0x3030, symBinAddr: 0x2B674, symSize: 0x24 }
  - { offsetInCU: 0x53, offset: 0xE9277, size: 0x8, addend: 0x0, symName: __ZN12v8_inspector19JsV8InspectorClient7DomainsE, symObjAddr: 0x87D140, symBinAddr: 0x15B1FE8, symSize: 0x0 }
  - { offsetInCU: 0x737CD, offset: 0x15C9F1, size: 0x8, addend: 0x0, symName: __ZNSt3__125__throw_bad_function_callB8ue170006Ev, symObjAddr: 0x46C0, symBinAddr: 0x2F97C, symSize: 0x34 }
  - { offsetInCU: 0x74191, offset: 0x15D3B5, size: 0x8, addend: 0x0, symName: __ZNSt3__119__allocate_at_leastB8ue170006INS_9allocatorIPNS_12basic_stringIcNS_11char_traitsIcEENS1_IcEEEEEEEENS_19__allocation_resultINS_16allocator_traitsIT_E7pointerEEERSB_m, symObjAddr: 0x436C, symBinAddr: 0x2F628, symSize: 0x34 }
  - { offsetInCU: 0x7422F, offset: 0x15D453, size: 0x8, addend: 0x0, symName: '__ZNSt3__110__function6__funcIZN12v8_inspector19JsV8InspectorClient25onFrontendMessageReceivedENS_12basic_stringIcNS_11char_traitsIcEENS_9allocatorIcEEEEE3$_2NS7_ISA_EEFvvEED1Ev', symObjAddr: 0x43A0, symBinAddr: 0x2F65C, symSize: 0x3C }
  - { offsetInCU: 0x749E9, offset: 0x15DC0D, size: 0x8, addend: 0x0, symName: __ZNSt3__127__tree_balance_after_insertB8ue170006IPNS_16__tree_node_baseIPvEEEEvT_S5_, symObjAddr: 0x4B94, symBinAddr: 0x2FDB0, symSize: 0x198 }
  - { offsetInCU: 0x7BA35, offset: 0x164C59, size: 0x8, addend: 0x0, symName: __ZN3tns10ToV8StringEPN2v87IsolateERKNSt3__112basic_stringIcNS3_11char_traitsIcEENS3_9allocatorIcEEEE, symObjAddr: 0x1B20, symBinAddr: 0x2D1B8, symSize: 0x50 }
  - { offsetInCU: 0x8FC9D, offset: 0x178EC1, size: 0x8, addend: 0x0, symName: ____ZN12v8_inspector19JsV8InspectorClient15enableInspectorEiPPc_block_invoke_4, symObjAddr: 0x460, symBinAddr: 0x2BAF8, symSize: 0x190 }
  - { offsetInCU: 0x90590, offset: 0x1797B4, size: 0x8, addend: 0x0, symName: __ZN12v8_inspector19JsV8InspectorClient25onFrontendMessageReceivedENSt3__112basic_stringIcNS1_11char_traitsIcEENS1_9allocatorIcEEEE, symObjAddr: 0xA08, symBinAddr: 0x2C0A0, symSize: 0x1F8 }
  - { offsetInCU: 0x934BC, offset: 0x17C6E0, size: 0x8, addend: 0x0, symName: __ZN12v8_inspector19JsV8InspectorClientC2EPN3tns7RuntimeE, symObjAddr: 0x0, symBinAddr: 0x2B698, symSize: 0xD0 }
  - { offsetInCU: 0x93786, offset: 0x17C9AA, size: 0x8, addend: 0x0, symName: __ZN12v8_inspector19JsV8InspectorClientC2EPN3tns7RuntimeE.cold.1, symObjAddr: 0x4DC8, symBinAddr: 0xB6AD68, symSize: 0x20 }
  - { offsetInCU: 0x9380C, offset: 0x17CA30, size: 0x8, addend: 0x0, symName: __ZN12v8_inspector19JsV8InspectorClientC1EPN3tns7RuntimeE, symObjAddr: 0xD0, symBinAddr: 0x2B768, symSize: 0x4 }
  - { offsetInCU: 0x93847, offset: 0x17CA6B, size: 0x8, addend: 0x0, symName: __ZN12v8_inspector19JsV8InspectorClientC1EPN3tns7RuntimeE, symObjAddr: 0xD0, symBinAddr: 0x2B768, symSize: 0x4 }
  - { offsetInCU: 0x93851, offset: 0x17CA75, size: 0x8, addend: 0x0, symName: __ZN12v8_inspector19JsV8InspectorClient15enableInspectorEiPPc, symObjAddr: 0xD4, symBinAddr: 0x2B76C, symSize: 0x23C }
  - { offsetInCU: 0x93A7D, offset: 0x17CCA1, size: 0x8, addend: 0x0, symName: ____ZN12v8_inspector19JsV8InspectorClient15enableInspectorEiPPc_block_invoke, symObjAddr: 0x310, symBinAddr: 0x2B9A8, symSize: 0xD4 }
  - { offsetInCU: 0x93C48, offset: 0x17CE6C, size: 0x8, addend: 0x0, symName: ____ZN12v8_inspector19JsV8InspectorClient15enableInspectorEiPPc_block_invoke_2, symObjAddr: 0x3E4, symBinAddr: 0x2BA7C, symSize: 0x2C }
  - { offsetInCU: 0x93C80, offset: 0x17CEA4, size: 0x8, addend: 0x0, symName: ____ZN12v8_inspector19JsV8InspectorClient15enableInspectorEiPPc_block_invoke_3, symObjAddr: 0x410, symBinAddr: 0x2BAA8, symSize: 0x50 }
  - { offsetInCU: 0x94184, offset: 0x17D3A8, size: 0x8, addend: 0x0, symName: ____ZN12v8_inspector19JsV8InspectorClient15enableInspectorEiPPc_block_invoke_4.cold.1, symObjAddr: 0x4DE8, symBinAddr: 0xB6AD88, symSize: 0x40 }
  - { offsetInCU: 0x941F3, offset: 0x17D417, size: 0x8, addend: 0x0, symName: __ZN12v8_inspector19JsV8InspectorClient19onFrontendConnectedENSt3__18functionIFvNS1_12basic_stringIcNS1_11char_traitsIcEENS1_9allocatorIcEEEEEEE, symObjAddr: 0x5F0, symBinAddr: 0x2BC88, symSize: 0xAC }
  - { offsetInCU: 0x94289, offset: 0x17D4AD, size: 0x8, addend: 0x0, symName: __ZNSt3__18functionIFvNS_12basic_stringIcNS_11char_traitsIcEENS_9allocatorIcEEEEEEaSERKS8_, symObjAddr: 0x89C, symBinAddr: 0x2BF34, symSize: 0x98 }
  - { offsetInCU: 0x943FC, offset: 0x17D620, size: 0x8, addend: 0x0, symName: __ZN12v8_inspector19JsV8InspectorClient10disconnectEv, symObjAddr: 0x934, symBinAddr: 0x2BFCC, symSize: 0xD4 }
  - { offsetInCU: 0x945AA, offset: 0x17D7CE, size: 0x8, addend: 0x0, symName: ____ZN12v8_inspector19JsV8InspectorClient19onFrontendConnectedENSt3__18functionIFvNS1_12basic_stringIcNS1_11char_traitsIcEENS1_9allocatorIcEEEEEEE_block_invoke, symObjAddr: 0x69C, symBinAddr: 0x2BD34, symSize: 0x38 }
  - { offsetInCU: 0x945EF, offset: 0x17D813, size: 0x8, addend: 0x0, symName: __ZN12v8_inspector19JsV8InspectorClient13scheduleBreakEv, symObjAddr: 0x6D4, symBinAddr: 0x2BD6C, symSize: 0x1C8 }
  - { offsetInCU: 0x951B1, offset: 0x17E3D5, size: 0x8, addend: 0x0, symName: __ZNSt3__15dequeINS_12basic_stringIcNS_11char_traitsIcEENS_9allocatorIcEEEENS4_IS6_EEE9pop_frontEv, symObjAddr: 0x47AC, symBinAddr: 0x2F9C8, symSize: 0x74 }
  - { offsetInCU: 0x9525B, offset: 0x17E47F, size: 0x8, addend: 0x0, symName: __ZNSt3__110__function12__value_funcIFvNS_12basic_stringIcNS_11char_traitsIcEENS_9allocatorIcEEEEEEC2B8ue170006ERKS9_, symObjAddr: 0x37A0, symBinAddr: 0x2EA5C, symSize: 0x64 }
  - { offsetInCU: 0x9529E, offset: 0x17E4C2, size: 0x8, addend: 0x0, symName: __ZNSt3__110__function12__value_funcIFvNS_12basic_stringIcNS_11char_traitsIcEENS_9allocatorIcEEEEEE4swapB8ue170006ERS9_, symObjAddr: 0x3998, symBinAddr: 0x2EC54, symSize: 0x16C }
  - { offsetInCU: 0x9538F, offset: 0x17E5B3, size: 0x8, addend: 0x0, symName: __ZN12v8_inspector19JsV8InspectorClient22createInspectorSessionEv, symObjAddr: 0xDD8, symBinAddr: 0x2C470, symSize: 0x88 }
  - { offsetInCU: 0x95D35, offset: 0x17EF59, size: 0x8, addend: 0x0, symName: ____ZN12v8_inspector19JsV8InspectorClient25onFrontendMessageReceivedENSt3__112basic_stringIcNS1_11char_traitsIcEENS1_9allocatorIcEEEE_block_invoke, symObjAddr: 0xC00, symBinAddr: 0x2C298, symSize: 0x30 }
  - { offsetInCU: 0x95DAC, offset: 0x17EFD0, size: 0x8, addend: 0x0, symName: __ZNSt3__15dequeINS_12basic_stringIcNS_11char_traitsIcEENS_9allocatorIcEEEENS4_IS6_EEE9push_backERKS6_, symObjAddr: 0x3B04, symBinAddr: 0x2EDC0, symSize: 0xC8 }
  - { offsetInCU: 0x95F8D, offset: 0x17F1B1, size: 0x8, addend: 0x0, symName: ___copy_helper_block_e8_40c66_ZTSNSt3__112basic_stringIcNS_11char_traitsIcEENS_9allocatorIcEEEE, symObjAddr: 0xC30, symBinAddr: 0x2C2C8, symSize: 0x30 }
  - { offsetInCU: 0x96028, offset: 0x17F24C, size: 0x8, addend: 0x0, symName: ___destroy_helper_block_e8_40c66_ZTSNSt3__112basic_stringIcNS_11char_traitsIcEENS_9allocatorIcEEEE, symObjAddr: 0xC60, symBinAddr: 0x2C2F8, symSize: 0x14 }
  - { offsetInCU: 0x96075, offset: 0x17F299, size: 0x8, addend: 0x0, symName: ___destroy_helper_block_e8_40c66_ZTSNSt3__112basic_stringIcNS_11char_traitsIcEENS_9allocatorIcEEEE, symObjAddr: 0xC60, symBinAddr: 0x2C2F8, symSize: 0x14 }
  - { offsetInCU: 0x96379, offset: 0x17F59D, size: 0x8, addend: 0x0, symName: __ZN12v8_inspector19JsV8InspectorClient4initEv, symObjAddr: 0xC74, symBinAddr: 0x2C30C, symSize: 0x164 }
  - { offsetInCU: 0x96721, offset: 0x17F945, size: 0x8, addend: 0x0, symName: __ZNKSt3__114default_deleteIN3tns9inspector16TracingAgentImplEEclB8ue170006EPS3_, symObjAddr: 0x4638, symBinAddr: 0x2F8F4, symSize: 0x38 }
  - { offsetInCU: 0x968F5, offset: 0x17FB19, size: 0x8, addend: 0x0, symName: __ZN12v8_inspector19JsV8InspectorClient7connectEiPPc, symObjAddr: 0xE60, symBinAddr: 0x2C4F8, symSize: 0xC }
  - { offsetInCU: 0x96A5A, offset: 0x17FC7E, size: 0x8, addend: 0x0, symName: __ZN12v8_inspector19JsV8InspectorClient21runMessageLoopOnPauseEi, symObjAddr: 0xE6C, symBinAddr: 0x2C504, symSize: 0x1EC }
  - { offsetInCU: 0x96F6F, offset: 0x180193, size: 0x8, addend: 0x0, symName: __ZN12v8_inspector19JsV8InspectorClient11PumpMessageEv, symObjAddr: 0x10A0, symBinAddr: 0x2C738, symSize: 0x104 }
  - { offsetInCU: 0x972DC, offset: 0x180500, size: 0x8, addend: 0x0, symName: __ZN12v8_inspector19JsV8InspectorClient15dispatchMessageERKNSt3__112basic_stringIcNS1_11char_traitsIcEENS1_9allocatorIcEEEE, symObjAddr: 0x11A4, symBinAddr: 0x2C83C, symSize: 0x71C }
  - { offsetInCU: 0x98CBD, offset: 0x181EE1, size: 0x8, addend: 0x0, symName: __ZNSt3__110shared_ptrIN2v88PlatformEED2B8ue170006Ev, symObjAddr: 0x4670, symBinAddr: 0x2F92C, symSize: 0x50 }
  - { offsetInCU: 0x98D40, offset: 0x181F64, size: 0x8, addend: 0x0, symName: ____ZN12v8_inspector19JsV8InspectorClient21runMessageLoopOnPauseEi_block_invoke, symObjAddr: 0x1058, symBinAddr: 0x2C6F0, symSize: 0x2C }
  - { offsetInCU: 0x98D80, offset: 0x181FA4, size: 0x8, addend: 0x0, symName: ___copy_helper_block_e8_32r, symObjAddr: 0x1084, symBinAddr: 0x2C71C, symSize: 0x10 }
  - { offsetInCU: 0x98DA9, offset: 0x181FCD, size: 0x8, addend: 0x0, symName: ___destroy_helper_block_e8_32r, symObjAddr: 0x1094, symBinAddr: 0x2C72C, symSize: 0xC }
  - { offsetInCU: 0x99359, offset: 0x18257D, size: 0x8, addend: 0x0, symName: __ZN12v8_inspector19JsV8InspectorClient25CallDomainHandlerFunctionEN2v85LocalINS1_7ContextEEENS2_INS1_8FunctionEEERKNS2_INS1_6ObjectEEERS8_RNS2_INS1_5ValueEEE, symObjAddr: 0x1B70, symBinAddr: 0x2D208, symSize: 0x2B0 }
  - { offsetInCU: 0x999BC, offset: 0x182BE0, size: 0x8, addend: 0x0, symName: __ZN12v8_inspector19JsV8InspectorClient39GetReturnMessageFromDomainHandlerResultERKN2v85LocalINS1_5ValueEEES6_, symObjAddr: 0x1E20, symBinAddr: 0x2D4B8, symSize: 0x4DC }
  - { offsetInCU: 0x9ADAF, offset: 0x183FD3, size: 0x8, addend: 0x0, symName: ____ZN12v8_inspector19JsV8InspectorClient21runMessageLoopOnPauseEi_block_invoke.18, symObjAddr: 0x18C0, symBinAddr: 0x2CF58, symSize: 0x10 }
  - { offsetInCU: 0x9ADD8, offset: 0x183FFC, size: 0x8, addend: 0x0, symName: __ZN12v8_inspector19JsV8InspectorClient22quitMessageLoopOnPauseEv, symObjAddr: 0x18D0, symBinAddr: 0x2CF68, symSize: 0x58 }
  - { offsetInCU: 0x9AE0E, offset: 0x184032, size: 0x8, addend: 0x0, symName: ____ZN12v8_inspector19JsV8InspectorClient22quitMessageLoopOnPauseEv_block_invoke, symObjAddr: 0x1928, symBinAddr: 0x2CFC0, symSize: 0x10 }
  - { offsetInCU: 0x9AE37, offset: 0x18405B, size: 0x8, addend: 0x0, symName: __ZN12v8_inspector19JsV8InspectorClient12sendResponseEiNSt3__110unique_ptrINS_12StringBufferENS1_14default_deleteIS3_EEEE, symObjAddr: 0x1938, symBinAddr: 0x2CFD0, symSize: 0x74 }
  - { offsetInCU: 0x9B08A, offset: 0x1842AE, size: 0x8, addend: 0x0, symName: __ZN12v8_inspector19JsV8InspectorClient6notifyENSt3__110unique_ptrINS_12StringBufferENS1_14default_deleteIS3_EEEE, symObjAddr: 0x19AC, symBinAddr: 0x2D044, symSize: 0xE8 }
  - { offsetInCU: 0x9B73C, offset: 0x184960, size: 0x8, addend: 0x0, symName: __ZThn8_N12v8_inspector19JsV8InspectorClient12sendResponseEiNSt3__110unique_ptrINS_12StringBufferENS1_14default_deleteIS3_EEEE, symObjAddr: 0x1A94, symBinAddr: 0x2D12C, symSize: 0x8 }
  - { offsetInCU: 0x9B760, offset: 0x184984, size: 0x8, addend: 0x0, symName: __ZN12v8_inspector19JsV8InspectorClient16sendNotificationENSt3__110unique_ptrINS_12StringBufferENS1_14default_deleteIS3_EEEE, symObjAddr: 0x1A9C, symBinAddr: 0x2D134, symSize: 0x74 }
  - { offsetInCU: 0x9B9A8, offset: 0x184BCC, size: 0x8, addend: 0x0, symName: __ZThn8_N12v8_inspector19JsV8InspectorClient16sendNotificationENSt3__110unique_ptrINS_12StringBufferENS1_14default_deleteIS3_EEEE, symObjAddr: 0x1B10, symBinAddr: 0x2D1A8, symSize: 0x8 }
  - { offsetInCU: 0x9B9CC, offset: 0x184BF0, size: 0x8, addend: 0x0, symName: __ZN12v8_inspector19JsV8InspectorClient26flushProtocolNotificationsEv, symObjAddr: 0x1B18, symBinAddr: 0x2D1B0, symSize: 0x4 }
  - { offsetInCU: 0x9B9F1, offset: 0x184C15, size: 0x8, addend: 0x0, symName: __ZThn8_N12v8_inspector19JsV8InspectorClient26flushProtocolNotificationsEv, symObjAddr: 0x1B1C, symBinAddr: 0x2D1B4, symSize: 0x4 }
  - { offsetInCU: 0x9BCFD, offset: 0x184F21, size: 0x8, addend: 0x0, symName: __ZN12v8_inspector19JsV8InspectorClient27ensureDefaultContextInGroupEi, symObjAddr: 0x22FC, symBinAddr: 0x2D994, symSize: 0x2C }
  - { offsetInCU: 0x9BDA4, offset: 0x184FC8, size: 0x8, addend: 0x0, symName: ___Block_byref_object_copy_, symObjAddr: 0x2328, symBinAddr: 0x2D9C0, symSize: 0x1C }
  - { offsetInCU: 0x9BDCC, offset: 0x184FF0, size: 0x8, addend: 0x0, symName: ___Block_byref_object_copy_, symObjAddr: 0x2328, symBinAddr: 0x2D9C0, symSize: 0x1C }
  - { offsetInCU: 0x9BDF2, offset: 0x185016, size: 0x8, addend: 0x0, symName: ___Block_byref_object_copy_, symObjAddr: 0x2328, symBinAddr: 0x2D9C0, symSize: 0x1C }
  - { offsetInCU: 0x9BE37, offset: 0x18505B, size: 0x8, addend: 0x0, symName: ___Block_byref_object_dispose_, symObjAddr: 0x2344, symBinAddr: 0x2D9DC, symSize: 0x14 }
  - { offsetInCU: 0x9BE84, offset: 0x1850A8, size: 0x8, addend: 0x0, symName: ___Block_byref_object_dispose_, symObjAddr: 0x2344, symBinAddr: 0x2D9DC, symSize: 0x14 }
  - { offsetInCU: 0x9BFF5, offset: 0x185219, size: 0x8, addend: 0x0, symName: ____ZN12v8_inspector19JsV8InspectorClient11PumpMessageEv_block_invoke, symObjAddr: 0x2358, symBinAddr: 0x2D9F0, symSize: 0x74 }
  - { offsetInCU: 0x9C0F2, offset: 0x185316, size: 0x8, addend: 0x0, symName: __ZNSt3__15dequeINS_12basic_stringIcNS_11char_traitsIcEENS_9allocatorIcEEEENS4_IS6_EEE9pop_frontEv, symObjAddr: 0x47AC, symBinAddr: 0x2F9C8, symSize: 0x74 }
  - { offsetInCU: 0x9C2F9, offset: 0x18551D, size: 0x8, addend: 0x0, symName: __ZN12v8_inspector19JsV8InspectorClient15registerModulesEv, symObjAddr: 0x23CC, symBinAddr: 0x2DA64, symSize: 0x44C }
  - { offsetInCU: 0x9D068, offset: 0x18628C, size: 0x8, addend: 0x0, symName: __ZN12v8_inspector19JsV8InspectorClient32registerDomainDispatcherCallbackERKN2v820FunctionCallbackInfoINS1_5ValueEEE, symObjAddr: 0x2818, symBinAddr: 0x2DEB0, symSize: 0x174 }
  - { offsetInCU: 0x9D60D, offset: 0x186831, size: 0x8, addend: 0x0, symName: __ZNSt3__16__treeINS_12__value_typeINS_12basic_stringIcNS_11char_traitsIcEENS_9allocatorIcEEEEPN2v810PersistentINS8_6ObjectENS8_27NonCopyablePersistentTraitsISA_EEEEEENS_19__map_value_compareIS7_SF_NS_4lessIS7_EELb1EEENS5_ISF_EEE4findIS7_EENS_15__tree_iteratorISF_PNS_11__tree_nodeISF_PvEElEERKT_, symObjAddr: 0x4884, symBinAddr: 0x2FAA0, symSize: 0x8C }
  - { offsetInCU: 0x9D730, offset: 0x186954, size: 0x8, addend: 0x0, symName: __ZNSt3__16__treeINS_12__value_typeINS_12basic_stringIcNS_11char_traitsIcEENS_9allocatorIcEEEEPN2v810PersistentINS8_6ObjectENS8_27NonCopyablePersistentTraitsISA_EEEEEENS_19__map_value_compareIS7_SF_NS_4lessIS7_EELb1EEENS5_ISF_EEE25__emplace_unique_key_argsIS7_JRS7_RSE_EEENS_4pairINS_15__tree_iteratorISF_PNS_11__tree_nodeISF_PvEElEEbEERKT_DpOT0_, symObjAddr: 0x4978, symBinAddr: 0x2FB94, symSize: 0x84 }
  - { offsetInCU: 0x9D881, offset: 0x186AA5, size: 0x8, addend: 0x0, symName: __ZN12v8_inspector19JsV8InspectorClient26inspectorSendEventCallbackERKN2v820FunctionCallbackInfoINS1_5ValueEEE, symObjAddr: 0x298C, symBinAddr: 0x2E024, symSize: 0x164 }
  - { offsetInCU: 0x9E335, offset: 0x187559, size: 0x8, addend: 0x0, symName: __ZN12v8_inspector19JsV8InspectorClient26inspectorTimestampCallbackERKN2v820FunctionCallbackInfoINS1_5ValueEEE, symObjAddr: 0x2AF0, symBinAddr: 0x2E188, symSize: 0x48 }
  - { offsetInCU: 0x9EA5B, offset: 0x187C7F, size: 0x8, addend: 0x0, symName: __ZN12v8_inspector19JsV8InspectorClient10consoleLogEPN2v87IsolateENS_14ConsoleAPITypeERKNSt3__16vectorINS1_5LocalINS1_5ValueEEENS5_9allocatorIS9_EEEE, symObjAddr: 0x2BF4, symBinAddr: 0x2E1D0, symSize: 0x1CC }
  - { offsetInCU: 0x9F2C1, offset: 0x1884E5, size: 0x8, addend: 0x0, symName: __ZN12v8_inspector19JsV8InspectorClient10consoleLogEPN2v87IsolateENS_14ConsoleAPITypeERKNSt3__16vectorINS1_5LocalINS1_5ValueEEENS5_9allocatorIS9_EEEE.cold.1, symObjAddr: 0x4E28, symBinAddr: 0xB6ADC8, symSize: 0x20 }
  - { offsetInCU: 0x9F45E, offset: 0x188682, size: 0x8, addend: 0x0, symName: __ZNSt3__13mapINS_12basic_stringIcNS_11char_traitsIcEENS_9allocatorIcEEEEPN2v810PersistentINS7_6ObjectENS7_27NonCopyablePersistentTraitsIS9_EEEENS_4lessIS6_EENS4_INS_4pairIKS6_SD_EEEEED1B8ue170006Ev, symObjAddr: 0x2DC0, symBinAddr: 0x2E39C, symSize: 0x28 }
  - { offsetInCU: 0x9F50A, offset: 0x18872E, size: 0x8, addend: 0x0, symName: __ZNSt3__16__treeINS_12__value_typeINS_12basic_stringIcNS_11char_traitsIcEENS_9allocatorIcEEEEPN2v810PersistentINS8_6ObjectENS8_27NonCopyablePersistentTraitsISA_EEEEEENS_19__map_value_compareIS7_SF_NS_4lessIS7_EELb1EEENS5_ISF_EEE7destroyEPNS_11__tree_nodeISF_PvEE, symObjAddr: 0x4D78, symBinAddr: 0x2FF94, symSize: 0x50 }
  - { offsetInCU: 0x9F85A, offset: 0x188A7E, size: 0x8, addend: 0x0, symName: __ZN12v8_inspector19JsV8InspectorClientD1Ev, symObjAddr: 0x2DE8, symBinAddr: 0x2E3C4, symSize: 0xA8 }
  - { offsetInCU: 0x9FB2C, offset: 0x188D50, size: 0x8, addend: 0x0, symName: __ZNSt3__15dequeINS_12basic_stringIcNS_11char_traitsIcEENS_9allocatorIcEEEENS4_IS6_EEED2B8ue170006Ev, symObjAddr: 0x3370, symBinAddr: 0x2E6F8, symSize: 0x144 }
  - { offsetInCU: 0xA0024, offset: 0x189248, size: 0x8, addend: 0x0, symName: __ZN12v8_inspector19JsV8InspectorClientD0Ev, symObjAddr: 0x2E90, symBinAddr: 0x2E46C, symSize: 0xA8 }
  - { offsetInCU: 0xA0312, offset: 0x189536, size: 0x8, addend: 0x0, symName: __ZN12v8_inspector17V8InspectorClient23runIfWaitingForDebuggerEi, symObjAddr: 0x2F38, symBinAddr: 0x2E514, symSize: 0x4 }
  - { offsetInCU: 0xA0344, offset: 0x189568, size: 0x8, addend: 0x0, symName: __ZN12v8_inspector17V8InspectorClient11muteMetricsEi, symObjAddr: 0x2F3C, symBinAddr: 0x2E518, symSize: 0x4 }
  - { offsetInCU: 0xA0376, offset: 0x18959A, size: 0x8, addend: 0x0, symName: __ZN12v8_inspector17V8InspectorClient13unmuteMetricsEi, symObjAddr: 0x2F40, symBinAddr: 0x2E51C, symSize: 0x4 }
  - { offsetInCU: 0xA03A8, offset: 0x1895CC, size: 0x8, addend: 0x0, symName: __ZN12v8_inspector17V8InspectorClient16beginUserGestureEv, symObjAddr: 0x2F44, symBinAddr: 0x2E520, symSize: 0x4 }
  - { offsetInCU: 0xA03CD, offset: 0x1895F1, size: 0x8, addend: 0x0, symName: __ZN12v8_inspector17V8InspectorClient14endUserGestureEv, symObjAddr: 0x2F48, symBinAddr: 0x2E524, symSize: 0x4 }
  - { offsetInCU: 0xA04FA, offset: 0x18971E, size: 0x8, addend: 0x0, symName: __ZN12v8_inspector17V8InspectorClient25serializeToWebDriverValueEN2v85LocalINS1_5ValueEEEi, symObjAddr: 0x2F4C, symBinAddr: 0x2E528, symSize: 0x8 }
  - { offsetInCU: 0xA053C, offset: 0x189760, size: 0x8, addend: 0x0, symName: __ZN12v8_inspector17V8InspectorClient25serializeToWebDriverValueEN2v85LocalINS1_5ValueEEEi, symObjAddr: 0x2F4C, symBinAddr: 0x2E528, symSize: 0x8 }
  - { offsetInCU: 0xA055D, offset: 0x189781, size: 0x8, addend: 0x0, symName: __ZN12v8_inspector17V8InspectorClient25serializeToWebDriverValueEN2v85LocalINS1_5ValueEEEi, symObjAddr: 0x2F4C, symBinAddr: 0x2E528, symSize: 0x8 }
  - { offsetInCU: 0xA057E, offset: 0x1897A2, size: 0x8, addend: 0x0, symName: __ZN12v8_inspector17V8InspectorClient25serializeToWebDriverValueEN2v85LocalINS1_5ValueEEEi, symObjAddr: 0x2F4C, symBinAddr: 0x2E528, symSize: 0x8 }
  - { offsetInCU: 0xA0599, offset: 0x1897BD, size: 0x8, addend: 0x0, symName: __ZN12v8_inspector17V8InspectorClient25serializeToWebDriverValueEN2v85LocalINS1_5ValueEEEi, symObjAddr: 0x2F4C, symBinAddr: 0x2E528, symSize: 0x8 }
  - { offsetInCU: 0xA05B4, offset: 0x1897D8, size: 0x8, addend: 0x0, symName: __ZN12v8_inspector17V8InspectorClient25serializeToWebDriverValueEN2v85LocalINS1_5ValueEEEi, symObjAddr: 0x2F4C, symBinAddr: 0x2E528, symSize: 0x8 }
  - { offsetInCU: 0xA06D3, offset: 0x1898F7, size: 0x8, addend: 0x0, symName: __ZN12v8_inspector17V8InspectorClient12valueSubtypeEN2v85LocalINS1_5ValueEEE, symObjAddr: 0x2F54, symBinAddr: 0x2E530, symSize: 0x8 }
  - { offsetInCU: 0xA0705, offset: 0x189929, size: 0x8, addend: 0x0, symName: __ZN12v8_inspector17V8InspectorClient12valueSubtypeEN2v85LocalINS1_5ValueEEE, symObjAddr: 0x2F54, symBinAddr: 0x2E530, symSize: 0x8 }
  - { offsetInCU: 0xA0726, offset: 0x18994A, size: 0x8, addend: 0x0, symName: __ZN12v8_inspector17V8InspectorClient12valueSubtypeEN2v85LocalINS1_5ValueEEE, symObjAddr: 0x2F54, symBinAddr: 0x2E530, symSize: 0x8 }
  - { offsetInCU: 0xA0747, offset: 0x18996B, size: 0x8, addend: 0x0, symName: __ZN12v8_inspector17V8InspectorClient12valueSubtypeEN2v85LocalINS1_5ValueEEE, symObjAddr: 0x2F54, symBinAddr: 0x2E530, symSize: 0x8 }
  - { offsetInCU: 0xA0762, offset: 0x189986, size: 0x8, addend: 0x0, symName: __ZN12v8_inspector17V8InspectorClient12valueSubtypeEN2v85LocalINS1_5ValueEEE, symObjAddr: 0x2F54, symBinAddr: 0x2E530, symSize: 0x8 }
  - { offsetInCU: 0xA077D, offset: 0x1899A1, size: 0x8, addend: 0x0, symName: __ZN12v8_inspector17V8InspectorClient12valueSubtypeEN2v85LocalINS1_5ValueEEE, symObjAddr: 0x2F54, symBinAddr: 0x2E530, symSize: 0x8 }
  - { offsetInCU: 0xA079A, offset: 0x1899BE, size: 0x8, addend: 0x0, symName: __ZN12v8_inspector17V8InspectorClient26descriptionForValueSubtypeEN2v85LocalINS1_7ContextEEENS2_INS1_5ValueEEE, symObjAddr: 0x2F5C, symBinAddr: 0x2E538, symSize: 0x8 }
  - { offsetInCU: 0xA07D6, offset: 0x1899FA, size: 0x8, addend: 0x0, symName: __ZN12v8_inspector17V8InspectorClient26descriptionForValueSubtypeEN2v85LocalINS1_7ContextEEENS2_INS1_5ValueEEE, symObjAddr: 0x2F5C, symBinAddr: 0x2E538, symSize: 0x8 }
  - { offsetInCU: 0xA07F7, offset: 0x189A1B, size: 0x8, addend: 0x0, symName: __ZN12v8_inspector17V8InspectorClient26descriptionForValueSubtypeEN2v85LocalINS1_7ContextEEENS2_INS1_5ValueEEE, symObjAddr: 0x2F5C, symBinAddr: 0x2E538, symSize: 0x8 }
  - { offsetInCU: 0xA0818, offset: 0x189A3C, size: 0x8, addend: 0x0, symName: __ZN12v8_inspector17V8InspectorClient26descriptionForValueSubtypeEN2v85LocalINS1_7ContextEEENS2_INS1_5ValueEEE, symObjAddr: 0x2F5C, symBinAddr: 0x2E538, symSize: 0x8 }
  - { offsetInCU: 0xA0833, offset: 0x189A57, size: 0x8, addend: 0x0, symName: __ZN12v8_inspector17V8InspectorClient26descriptionForValueSubtypeEN2v85LocalINS1_7ContextEEENS2_INS1_5ValueEEE, symObjAddr: 0x2F5C, symBinAddr: 0x2E538, symSize: 0x8 }
  - { offsetInCU: 0xA084E, offset: 0x189A72, size: 0x8, addend: 0x0, symName: __ZN12v8_inspector17V8InspectorClient26descriptionForValueSubtypeEN2v85LocalINS1_7ContextEEENS2_INS1_5ValueEEE, symObjAddr: 0x2F5C, symBinAddr: 0x2E538, symSize: 0x8 }
  - { offsetInCU: 0xA086B, offset: 0x189A8F, size: 0x8, addend: 0x0, symName: __ZN12v8_inspector17V8InspectorClient23isInspectableHeapObjectEN2v85LocalINS1_6ObjectEEE, symObjAddr: 0x2F64, symBinAddr: 0x2E540, symSize: 0x8 }
  - { offsetInCU: 0xA089C, offset: 0x189AC0, size: 0x8, addend: 0x0, symName: __ZN12v8_inspector17V8InspectorClient29beginEnsureAllContextsInGroupEi, symObjAddr: 0x2F6C, symBinAddr: 0x2E548, symSize: 0x4 }
  - { offsetInCU: 0xA08CE, offset: 0x189AF2, size: 0x8, addend: 0x0, symName: __ZN12v8_inspector17V8InspectorClient27endEnsureAllContextsInGroupEi, symObjAddr: 0x2F70, symBinAddr: 0x2E54C, symSize: 0x4 }
  - { offsetInCU: 0xA0900, offset: 0x189B24, size: 0x8, addend: 0x0, symName: __ZN12v8_inspector17V8InspectorClient31installAdditionalCommandLineAPIEN2v85LocalINS1_7ContextEEENS2_INS1_6ObjectEEE, symObjAddr: 0x2F74, symBinAddr: 0x2E550, symSize: 0x4 }
  - { offsetInCU: 0xA0939, offset: 0x189B5D, size: 0x8, addend: 0x0, symName: __ZN12v8_inspector17V8InspectorClient17consoleAPIMessageEiN2v87Isolate17MessageErrorLevelERKNS_10StringViewES6_jjPNS_12V8StackTraceE, symObjAddr: 0x2F78, symBinAddr: 0x2E554, symSize: 0x4 }
  - { offsetInCU: 0xA09BA, offset: 0x189BDE, size: 0x8, addend: 0x0, symName: __ZN12v8_inspector17V8InspectorClient10memoryInfoEPN2v87IsolateENS1_5LocalINS1_7ContextEEE, symObjAddr: 0x2F7C, symBinAddr: 0x2E558, symSize: 0x8 }
  - { offsetInCU: 0xA09F7, offset: 0x189C1B, size: 0x8, addend: 0x0, symName: __ZN12v8_inspector17V8InspectorClient11consoleTimeERKNS_10StringViewE, symObjAddr: 0x2F84, symBinAddr: 0x2E560, symSize: 0x4 }
  - { offsetInCU: 0xA0A2A, offset: 0x189C4E, size: 0x8, addend: 0x0, symName: __ZN12v8_inspector17V8InspectorClient14consoleTimeEndERKNS_10StringViewE, symObjAddr: 0x2F88, symBinAddr: 0x2E564, symSize: 0x4 }
  - { offsetInCU: 0xA0A5D, offset: 0x189C81, size: 0x8, addend: 0x0, symName: __ZN12v8_inspector17V8InspectorClient16consoleTimeStampERKNS_10StringViewE, symObjAddr: 0x2F8C, symBinAddr: 0x2E568, symSize: 0x4 }
  - { offsetInCU: 0xA0A90, offset: 0x189CB4, size: 0x8, addend: 0x0, symName: __ZN12v8_inspector17V8InspectorClient12consoleClearEi, symObjAddr: 0x2F90, symBinAddr: 0x2E56C, symSize: 0x4 }
  - { offsetInCU: 0xA0AC3, offset: 0x189CE7, size: 0x8, addend: 0x0, symName: __ZN12v8_inspector17V8InspectorClient13currentTimeMSEv, symObjAddr: 0x2F94, symBinAddr: 0x2E570, symSize: 0x8 }
  - { offsetInCU: 0xA0AE8, offset: 0x189D0C, size: 0x8, addend: 0x0, symName: __ZN12v8_inspector17V8InspectorClient19startRepeatingTimerEdPFvPvES1_, symObjAddr: 0x2F9C, symBinAddr: 0x2E578, symSize: 0x4 }
  - { offsetInCU: 0xA0B32, offset: 0x189D56, size: 0x8, addend: 0x0, symName: __ZN12v8_inspector17V8InspectorClient11cancelTimerEPv, symObjAddr: 0x2FA0, symBinAddr: 0x2E57C, symSize: 0x4 }
  - { offsetInCU: 0xA0B65, offset: 0x189D89, size: 0x8, addend: 0x0, symName: __ZN12v8_inspector17V8InspectorClient17canExecuteScriptsEi, symObjAddr: 0x2FA4, symBinAddr: 0x2E580, symSize: 0x8 }
  - { offsetInCU: 0xA0B9A, offset: 0x189DBE, size: 0x8, addend: 0x0, symName: __ZN12v8_inspector17V8InspectorClient29maxAsyncCallStackDepthChangedEi, symObjAddr: 0x2FAC, symBinAddr: 0x2E588, symSize: 0x4 }
  - { offsetInCU: 0xA0BCD, offset: 0x189DF1, size: 0x8, addend: 0x0, symName: __ZN12v8_inspector17V8InspectorClient17resourceNameToUrlERKNS_10StringViewE, symObjAddr: 0x2FB0, symBinAddr: 0x2E58C, symSize: 0x8 }
  - { offsetInCU: 0xA0C03, offset: 0x189E27, size: 0x8, addend: 0x0, symName: __ZN12v8_inspector17V8InspectorClient17resourceNameToUrlERKNS_10StringViewE, symObjAddr: 0x2FB0, symBinAddr: 0x2E58C, symSize: 0x8 }
  - { offsetInCU: 0xA0C25, offset: 0x189E49, size: 0x8, addend: 0x0, symName: __ZN12v8_inspector17V8InspectorClient17resourceNameToUrlERKNS_10StringViewE, symObjAddr: 0x2FB0, symBinAddr: 0x2E58C, symSize: 0x8 }
  - { offsetInCU: 0xA0C46, offset: 0x189E6A, size: 0x8, addend: 0x0, symName: __ZN12v8_inspector17V8InspectorClient17resourceNameToUrlERKNS_10StringViewE, symObjAddr: 0x2FB0, symBinAddr: 0x2E58C, symSize: 0x8 }
  - { offsetInCU: 0xA0C61, offset: 0x189E85, size: 0x8, addend: 0x0, symName: __ZN12v8_inspector17V8InspectorClient17resourceNameToUrlERKNS_10StringViewE, symObjAddr: 0x2FB0, symBinAddr: 0x2E58C, symSize: 0x8 }
  - { offsetInCU: 0xA0C7C, offset: 0x189EA0, size: 0x8, addend: 0x0, symName: __ZN12v8_inspector17V8InspectorClient17resourceNameToUrlERKNS_10StringViewE, symObjAddr: 0x2FB0, symBinAddr: 0x2E58C, symSize: 0x8 }
  - { offsetInCU: 0xA0C99, offset: 0x189EBD, size: 0x8, addend: 0x0, symName: __ZN12v8_inspector17V8InspectorClient16generateUniqueIdEv, symObjAddr: 0x2FB8, symBinAddr: 0x2E594, symSize: 0x8 }
  - { offsetInCU: 0xA0CC0, offset: 0x189EE4, size: 0x8, addend: 0x0, symName: __ZN12v8_inspector17V8InspectorClient13dispatchErrorEN2v85LocalINS1_7ContextEEENS2_INS1_7MessageEEENS2_INS1_5ValueEEE, symObjAddr: 0x2FC0, symBinAddr: 0x2E59C, symSize: 0x4 }
  - { offsetInCU: 0xA0D06, offset: 0x189F2A, size: 0x8, addend: 0x0, symName: __ZThn8_N12v8_inspector19JsV8InspectorClientD1Ev, symObjAddr: 0x2FC4, symBinAddr: 0x2E5A0, symSize: 0xA8 }
  - { offsetInCU: 0xA1004, offset: 0x18A228, size: 0x8, addend: 0x0, symName: __ZThn8_N12v8_inspector19JsV8InspectorClientD0Ev, symObjAddr: 0x306C, symBinAddr: 0x2E648, symSize: 0xB0 }
  - { offsetInCU: 0xA19C8, offset: 0x18ABEC, size: 0x8, addend: 0x0, symName: __ZNSt3__114__split_bufferIPNS_12basic_stringIcNS_11char_traitsIcEENS_9allocatorIcEEEENS4_IS7_EEED2Ev, symObjAddr: 0x34B4, symBinAddr: 0x2E83C, symSize: 0x4C }
  - { offsetInCU: 0xA1BD8, offset: 0x18ADFC, size: 0x8, addend: 0x0, symName: '__ZNSt3__110__function6__funcIZZN12v8_inspector19JsV8InspectorClient15enableInspectorEiPPcEUb_E3$_0NS_9allocatorIS6_EEFvNS_8functionIFvNS_12basic_stringIcNS_11char_traitsIcEENS7_IcEEEEEEEEED1Ev', symObjAddr: 0x35CC, symBinAddr: 0x2E888, symSize: 0x4 }
  - { offsetInCU: 0xA1C04, offset: 0x18AE28, size: 0x8, addend: 0x0, symName: '__ZNSt3__110__function6__funcIZZN12v8_inspector19JsV8InspectorClient15enableInspectorEiPPcEUb_E3$_0NS_9allocatorIS6_EEFvNS_8functionIFvNS_12basic_stringIcNS_11char_traitsIcEENS7_IcEEEEEEEEED0Ev', symObjAddr: 0x35D0, symBinAddr: 0x2E88C, symSize: 0x4 }
  - { offsetInCU: 0xA1E0A, offset: 0x18B02E, size: 0x8, addend: 0x0, symName: '__ZNKSt3__110__function6__funcIZZN12v8_inspector19JsV8InspectorClient15enableInspectorEiPPcEUb_E3$_0NS_9allocatorIS6_EEFvNS_8functionIFvNS_12basic_stringIcNS_11char_traitsIcEENS7_IcEEEEEEEEE7__cloneEv', symObjAddr: 0x35D4, symBinAddr: 0x2E890, symSize: 0x34 }
  - { offsetInCU: 0xA20FD, offset: 0x18B321, size: 0x8, addend: 0x0, symName: '__ZNKSt3__110__function6__funcIZZN12v8_inspector19JsV8InspectorClient15enableInspectorEiPPcEUb_E3$_0NS_9allocatorIS6_EEFvNS_8functionIFvNS_12basic_stringIcNS_11char_traitsIcEENS7_IcEEEEEEEEE7__cloneEPNS0_6__baseISH_EE', symObjAddr: 0x3608, symBinAddr: 0x2E8C4, symSize: 0x14 }
  - { offsetInCU: 0xA2135, offset: 0x18B359, size: 0x8, addend: 0x0, symName: '__ZNKSt3__110__function6__funcIZZN12v8_inspector19JsV8InspectorClient15enableInspectorEiPPcEUb_E3$_0NS_9allocatorIS6_EEFvNS_8functionIFvNS_12basic_stringIcNS_11char_traitsIcEENS7_IcEEEEEEEEE7__cloneEPNS0_6__baseISH_EE', symObjAddr: 0x3608, symBinAddr: 0x2E8C4, symSize: 0x14 }
  - { offsetInCU: 0xA2163, offset: 0x18B387, size: 0x8, addend: 0x0, symName: '__ZNKSt3__110__function6__funcIZZN12v8_inspector19JsV8InspectorClient15enableInspectorEiPPcEUb_E3$_0NS_9allocatorIS6_EEFvNS_8functionIFvNS_12basic_stringIcNS_11char_traitsIcEENS7_IcEEEEEEEEE7__cloneEPNS0_6__baseISH_EE', symObjAddr: 0x3608, symBinAddr: 0x2E8C4, symSize: 0x14 }
  - { offsetInCU: 0xA2191, offset: 0x18B3B5, size: 0x8, addend: 0x0, symName: '__ZNKSt3__110__function6__funcIZZN12v8_inspector19JsV8InspectorClient15enableInspectorEiPPcEUb_E3$_0NS_9allocatorIS6_EEFvNS_8functionIFvNS_12basic_stringIcNS_11char_traitsIcEENS7_IcEEEEEEEEE7__cloneEPNS0_6__baseISH_EE', symObjAddr: 0x3608, symBinAddr: 0x2E8C4, symSize: 0x14 }
  - { offsetInCU: 0xA21A6, offset: 0x18B3CA, size: 0x8, addend: 0x0, symName: '__ZNKSt3__110__function6__funcIZZN12v8_inspector19JsV8InspectorClient15enableInspectorEiPPcEUb_E3$_0NS_9allocatorIS6_EEFvNS_8functionIFvNS_12basic_stringIcNS_11char_traitsIcEENS7_IcEEEEEEEEE7__cloneEPNS0_6__baseISH_EE', symObjAddr: 0x3608, symBinAddr: 0x2E8C4, symSize: 0x14 }
  - { offsetInCU: 0xA21BA, offset: 0x18B3DE, size: 0x8, addend: 0x0, symName: '__ZNKSt3__110__function6__funcIZZN12v8_inspector19JsV8InspectorClient15enableInspectorEiPPcEUb_E3$_0NS_9allocatorIS6_EEFvNS_8functionIFvNS_12basic_stringIcNS_11char_traitsIcEENS7_IcEEEEEEEEE7__cloneEPNS0_6__baseISH_EE', symObjAddr: 0x3608, symBinAddr: 0x2E8C4, symSize: 0x14 }
  - { offsetInCU: 0xA21CE, offset: 0x18B3F2, size: 0x8, addend: 0x0, symName: '__ZNKSt3__110__function6__funcIZZN12v8_inspector19JsV8InspectorClient15enableInspectorEiPPcEUb_E3$_0NS_9allocatorIS6_EEFvNS_8functionIFvNS_12basic_stringIcNS_11char_traitsIcEENS7_IcEEEEEEEEE7__cloneEPNS0_6__baseISH_EE', symObjAddr: 0x3608, symBinAddr: 0x2E8C4, symSize: 0x14 }
  - { offsetInCU: 0xA21E2, offset: 0x18B406, size: 0x8, addend: 0x0, symName: '__ZNKSt3__110__function6__funcIZZN12v8_inspector19JsV8InspectorClient15enableInspectorEiPPcEUb_E3$_0NS_9allocatorIS6_EEFvNS_8functionIFvNS_12basic_stringIcNS_11char_traitsIcEENS7_IcEEEEEEEEE7__cloneEPNS0_6__baseISH_EE', symObjAddr: 0x3608, symBinAddr: 0x2E8C4, symSize: 0x14 }
  - { offsetInCU: 0xA21F9, offset: 0x18B41D, size: 0x8, addend: 0x0, symName: '__ZNSt3__110__function6__funcIZZN12v8_inspector19JsV8InspectorClient15enableInspectorEiPPcEUb_E3$_0NS_9allocatorIS6_EEFvNS_8functionIFvNS_12basic_stringIcNS_11char_traitsIcEENS7_IcEEEEEEEEE7destroyEv', symObjAddr: 0x361C, symBinAddr: 0x2E8D8, symSize: 0x4 }
  - { offsetInCU: 0xA224A, offset: 0x18B46E, size: 0x8, addend: 0x0, symName: '__ZNSt3__110__function6__funcIZZN12v8_inspector19JsV8InspectorClient15enableInspectorEiPPcEUb_E3$_0NS_9allocatorIS6_EEFvNS_8functionIFvNS_12basic_stringIcNS_11char_traitsIcEENS7_IcEEEEEEEEE18destroy_deallocateEv', symObjAddr: 0x3620, symBinAddr: 0x2E8DC, symSize: 0x4 }
  - { offsetInCU: 0xA2280, offset: 0x18B4A4, size: 0x8, addend: 0x0, symName: '__ZNSt3__110__function6__funcIZZN12v8_inspector19JsV8InspectorClient15enableInspectorEiPPcEUb_E3$_0NS_9allocatorIS6_EEFvNS_8functionIFvNS_12basic_stringIcNS_11char_traitsIcEENS7_IcEEEEEEEEE18destroy_deallocateEv', symObjAddr: 0x3620, symBinAddr: 0x2E8DC, symSize: 0x4 }
  - { offsetInCU: 0xA22A2, offset: 0x18B4C6, size: 0x8, addend: 0x0, symName: '__ZNSt3__110__function6__funcIZZN12v8_inspector19JsV8InspectorClient15enableInspectorEiPPcEUb_E3$_0NS_9allocatorIS6_EEFvNS_8functionIFvNS_12basic_stringIcNS_11char_traitsIcEENS7_IcEEEEEEEEE18destroy_deallocateEv', symObjAddr: 0x3620, symBinAddr: 0x2E8DC, symSize: 0x4 }
  - { offsetInCU: 0xA22CD, offset: 0x18B4F1, size: 0x8, addend: 0x0, symName: '__ZNSt3__110__function6__funcIZZN12v8_inspector19JsV8InspectorClient15enableInspectorEiPPcEUb_E3$_0NS_9allocatorIS6_EEFvNS_8functionIFvNS_12basic_stringIcNS_11char_traitsIcEENS7_IcEEEEEEEEE18destroy_deallocateEv', symObjAddr: 0x3620, symBinAddr: 0x2E8DC, symSize: 0x4 }
  - { offsetInCU: 0xA22F3, offset: 0x18B517, size: 0x8, addend: 0x0, symName: '__ZNSt3__110__function6__funcIZZN12v8_inspector19JsV8InspectorClient15enableInspectorEiPPcEUb_E3$_0NS_9allocatorIS6_EEFvNS_8functionIFvNS_12basic_stringIcNS_11char_traitsIcEENS7_IcEEEEEEEEE18destroy_deallocateEv', symObjAddr: 0x3620, symBinAddr: 0x2E8DC, symSize: 0x4 }
  - { offsetInCU: 0xA2430, offset: 0x18B654, size: 0x8, addend: 0x0, symName: '__ZNSt3__110__function6__funcIZZN12v8_inspector19JsV8InspectorClient15enableInspectorEiPPcEUb_E3$_0NS_9allocatorIS6_EEFvNS_8functionIFvNS_12basic_stringIcNS_11char_traitsIcEENS7_IcEEEEEEEEEclEOSG_', symObjAddr: 0x3624, symBinAddr: 0x2E8E0, symSize: 0x17C }
  - { offsetInCU: 0xA2846, offset: 0x18BA6A, size: 0x8, addend: 0x0, symName: __ZNSt3__110__function12__value_funcIFvNS_12basic_stringIcNS_11char_traitsIcEENS_9allocatorIcEEEEEEC2B8ue170006EOS9_, symObjAddr: 0x3804, symBinAddr: 0x2EAC0, symSize: 0x64 }
  - { offsetInCU: 0xA288D, offset: 0x18BAB1, size: 0x8, addend: 0x0, symName: '__ZNSt3__110__function6__funcIZZN12v8_inspector19JsV8InspectorClient15enableInspectorEiPPcEUb_E3$_1NS_9allocatorIS6_EEFvNS_12basic_stringIcNS_11char_traitsIcEENS7_IcEEEEEED1Ev', symObjAddr: 0x3868, symBinAddr: 0x2EB24, symSize: 0x4 }
  - { offsetInCU: 0xA28B9, offset: 0x18BADD, size: 0x8, addend: 0x0, symName: '__ZNSt3__110__function6__funcIZZN12v8_inspector19JsV8InspectorClient15enableInspectorEiPPcEUb_E3$_1NS_9allocatorIS6_EEFvNS_12basic_stringIcNS_11char_traitsIcEENS7_IcEEEEEED0Ev', symObjAddr: 0x386C, symBinAddr: 0x2EB28, symSize: 0x4 }
  - { offsetInCU: 0xA2ABF, offset: 0x18BCE3, size: 0x8, addend: 0x0, symName: '__ZNKSt3__110__function6__funcIZZN12v8_inspector19JsV8InspectorClient15enableInspectorEiPPcEUb_E3$_1NS_9allocatorIS6_EEFvNS_12basic_stringIcNS_11char_traitsIcEENS7_IcEEEEEE7__cloneEv', symObjAddr: 0x3870, symBinAddr: 0x2EB2C, symSize: 0x34 }
  - { offsetInCU: 0xA2DB2, offset: 0x18BFD6, size: 0x8, addend: 0x0, symName: '__ZNKSt3__110__function6__funcIZZN12v8_inspector19JsV8InspectorClient15enableInspectorEiPPcEUb_E3$_1NS_9allocatorIS6_EEFvNS_12basic_stringIcNS_11char_traitsIcEENS7_IcEEEEEE7__cloneEPNS0_6__baseISE_EE', symObjAddr: 0x38A4, symBinAddr: 0x2EB60, symSize: 0x14 }
  - { offsetInCU: 0xA2DEA, offset: 0x18C00E, size: 0x8, addend: 0x0, symName: '__ZNKSt3__110__function6__funcIZZN12v8_inspector19JsV8InspectorClient15enableInspectorEiPPcEUb_E3$_1NS_9allocatorIS6_EEFvNS_12basic_stringIcNS_11char_traitsIcEENS7_IcEEEEEE7__cloneEPNS0_6__baseISE_EE', symObjAddr: 0x38A4, symBinAddr: 0x2EB60, symSize: 0x14 }
  - { offsetInCU: 0xA2E18, offset: 0x18C03C, size: 0x8, addend: 0x0, symName: '__ZNKSt3__110__function6__funcIZZN12v8_inspector19JsV8InspectorClient15enableInspectorEiPPcEUb_E3$_1NS_9allocatorIS6_EEFvNS_12basic_stringIcNS_11char_traitsIcEENS7_IcEEEEEE7__cloneEPNS0_6__baseISE_EE', symObjAddr: 0x38A4, symBinAddr: 0x2EB60, symSize: 0x14 }
  - { offsetInCU: 0xA2E46, offset: 0x18C06A, size: 0x8, addend: 0x0, symName: '__ZNKSt3__110__function6__funcIZZN12v8_inspector19JsV8InspectorClient15enableInspectorEiPPcEUb_E3$_1NS_9allocatorIS6_EEFvNS_12basic_stringIcNS_11char_traitsIcEENS7_IcEEEEEE7__cloneEPNS0_6__baseISE_EE', symObjAddr: 0x38A4, symBinAddr: 0x2EB60, symSize: 0x14 }
  - { offsetInCU: 0xA2E5B, offset: 0x18C07F, size: 0x8, addend: 0x0, symName: '__ZNKSt3__110__function6__funcIZZN12v8_inspector19JsV8InspectorClient15enableInspectorEiPPcEUb_E3$_1NS_9allocatorIS6_EEFvNS_12basic_stringIcNS_11char_traitsIcEENS7_IcEEEEEE7__cloneEPNS0_6__baseISE_EE', symObjAddr: 0x38A4, symBinAddr: 0x2EB60, symSize: 0x14 }
  - { offsetInCU: 0xA2E6F, offset: 0x18C093, size: 0x8, addend: 0x0, symName: '__ZNKSt3__110__function6__funcIZZN12v8_inspector19JsV8InspectorClient15enableInspectorEiPPcEUb_E3$_1NS_9allocatorIS6_EEFvNS_12basic_stringIcNS_11char_traitsIcEENS7_IcEEEEEE7__cloneEPNS0_6__baseISE_EE', symObjAddr: 0x38A4, symBinAddr: 0x2EB60, symSize: 0x14 }
  - { offsetInCU: 0xA2E83, offset: 0x18C0A7, size: 0x8, addend: 0x0, symName: '__ZNKSt3__110__function6__funcIZZN12v8_inspector19JsV8InspectorClient15enableInspectorEiPPcEUb_E3$_1NS_9allocatorIS6_EEFvNS_12basic_stringIcNS_11char_traitsIcEENS7_IcEEEEEE7__cloneEPNS0_6__baseISE_EE', symObjAddr: 0x38A4, symBinAddr: 0x2EB60, symSize: 0x14 }
  - { offsetInCU: 0xA2E97, offset: 0x18C0BB, size: 0x8, addend: 0x0, symName: '__ZNKSt3__110__function6__funcIZZN12v8_inspector19JsV8InspectorClient15enableInspectorEiPPcEUb_E3$_1NS_9allocatorIS6_EEFvNS_12basic_stringIcNS_11char_traitsIcEENS7_IcEEEEEE7__cloneEPNS0_6__baseISE_EE', symObjAddr: 0x38A4, symBinAddr: 0x2EB60, symSize: 0x14 }
  - { offsetInCU: 0xA2EAE, offset: 0x18C0D2, size: 0x8, addend: 0x0, symName: '__ZNSt3__110__function6__funcIZZN12v8_inspector19JsV8InspectorClient15enableInspectorEiPPcEUb_E3$_1NS_9allocatorIS6_EEFvNS_12basic_stringIcNS_11char_traitsIcEENS7_IcEEEEEE7destroyEv', symObjAddr: 0x38B8, symBinAddr: 0x2EB74, symSize: 0x4 }
  - { offsetInCU: 0xA2EFF, offset: 0x18C123, size: 0x8, addend: 0x0, symName: '__ZNSt3__110__function6__funcIZZN12v8_inspector19JsV8InspectorClient15enableInspectorEiPPcEUb_E3$_1NS_9allocatorIS6_EEFvNS_12basic_stringIcNS_11char_traitsIcEENS7_IcEEEEEE18destroy_deallocateEv', symObjAddr: 0x38BC, symBinAddr: 0x2EB78, symSize: 0x4 }
  - { offsetInCU: 0xA2F35, offset: 0x18C159, size: 0x8, addend: 0x0, symName: '__ZNSt3__110__function6__funcIZZN12v8_inspector19JsV8InspectorClient15enableInspectorEiPPcEUb_E3$_1NS_9allocatorIS6_EEFvNS_12basic_stringIcNS_11char_traitsIcEENS7_IcEEEEEE18destroy_deallocateEv', symObjAddr: 0x38BC, symBinAddr: 0x2EB78, symSize: 0x4 }
  - { offsetInCU: 0xA2F57, offset: 0x18C17B, size: 0x8, addend: 0x0, symName: '__ZNSt3__110__function6__funcIZZN12v8_inspector19JsV8InspectorClient15enableInspectorEiPPcEUb_E3$_1NS_9allocatorIS6_EEFvNS_12basic_stringIcNS_11char_traitsIcEENS7_IcEEEEEE18destroy_deallocateEv', symObjAddr: 0x38BC, symBinAddr: 0x2EB78, symSize: 0x4 }
  - { offsetInCU: 0xA2F82, offset: 0x18C1A6, size: 0x8, addend: 0x0, symName: '__ZNSt3__110__function6__funcIZZN12v8_inspector19JsV8InspectorClient15enableInspectorEiPPcEUb_E3$_1NS_9allocatorIS6_EEFvNS_12basic_stringIcNS_11char_traitsIcEENS7_IcEEEEEE18destroy_deallocateEv', symObjAddr: 0x38BC, symBinAddr: 0x2EB78, symSize: 0x4 }
  - { offsetInCU: 0xA2FA8, offset: 0x18C1CC, size: 0x8, addend: 0x0, symName: '__ZNSt3__110__function6__funcIZZN12v8_inspector19JsV8InspectorClient15enableInspectorEiPPcEUb_E3$_1NS_9allocatorIS6_EEFvNS_12basic_stringIcNS_11char_traitsIcEENS7_IcEEEEEE18destroy_deallocateEv', symObjAddr: 0x38BC, symBinAddr: 0x2EB78, symSize: 0x4 }
  - { offsetInCU: 0xA3049, offset: 0x18C26D, size: 0x8, addend: 0x0, symName: '__ZNSt3__110__function6__funcIZZN12v8_inspector19JsV8InspectorClient15enableInspectorEiPPcEUb_E3$_1NS_9allocatorIS6_EEFvNS_12basic_stringIcNS_11char_traitsIcEENS7_IcEEEEEEclEOSD_', symObjAddr: 0x38C0, symBinAddr: 0x2EB7C, symSize: 0xD8 }
  - { offsetInCU: 0xA3604, offset: 0x18C828, size: 0x8, addend: 0x0, symName: __ZNSt3__15dequeINS_12basic_stringIcNS_11char_traitsIcEENS_9allocatorIcEEEENS4_IS6_EEE19__add_back_capacityEv, symObjAddr: 0x3BCC, symBinAddr: 0x2EE88, symSize: 0x32C }
  - { offsetInCU: 0xA46DE, offset: 0x18D902, size: 0x8, addend: 0x0, symName: __ZNSt3__114__split_bufferIPNS_12basic_stringIcNS_11char_traitsIcEENS_9allocatorIcEEEENS4_IS7_EEE9push_backEOS7_, symObjAddr: 0x3EF8, symBinAddr: 0x2F1B4, symSize: 0x11C }
  - { offsetInCU: 0xA4B50, offset: 0x18DD74, size: 0x8, addend: 0x0, symName: __ZNSt3__114__split_bufferIPNS_12basic_stringIcNS_11char_traitsIcEENS_9allocatorIcEEEERNS4_IS7_EEE9push_backEOS7_, symObjAddr: 0x4134, symBinAddr: 0x2F3F0, symSize: 0x11C }
  - { offsetInCU: 0xA5009, offset: 0x18E22D, size: 0x8, addend: 0x0, symName: __ZNSt3__114__split_bufferIPNS_12basic_stringIcNS_11char_traitsIcEENS_9allocatorIcEEEERNS4_IS7_EEE10push_frontERKS7_, symObjAddr: 0x4250, symBinAddr: 0x2F50C, symSize: 0x11C }
  - { offsetInCU: 0xA54C1, offset: 0x18E6E5, size: 0x8, addend: 0x0, symName: __ZNSt3__114__split_bufferIPNS_12basic_stringIcNS_11char_traitsIcEENS_9allocatorIcEEEENS4_IS7_EEE10push_frontEOS7_, symObjAddr: 0x4014, symBinAddr: 0x2F2D0, symSize: 0x120 }
  - { offsetInCU: 0xA5B9D, offset: 0x18EDC1, size: 0x8, addend: 0x0, symName: '__ZNSt3__110__function6__funcIZN12v8_inspector19JsV8InspectorClient25onFrontendMessageReceivedENS_12basic_stringIcNS_11char_traitsIcEENS_9allocatorIcEEEEE3$_2NS7_ISA_EEFvvEED1Ev', symObjAddr: 0x43A0, symBinAddr: 0x2F65C, symSize: 0x3C }
  - { offsetInCU: 0xA5DF7, offset: 0x18F01B, size: 0x8, addend: 0x0, symName: '__ZNSt3__110__function6__funcIZN12v8_inspector19JsV8InspectorClient25onFrontendMessageReceivedENS_12basic_stringIcNS_11char_traitsIcEENS_9allocatorIcEEEEE3$_2NS7_ISA_EEFvvEED0Ev', symObjAddr: 0x43DC, symBinAddr: 0x2F698, symSize: 0x3C }
  - { offsetInCU: 0xA6367, offset: 0x18F58B, size: 0x8, addend: 0x0, symName: '__ZNKSt3__110__function6__funcIZN12v8_inspector19JsV8InspectorClient25onFrontendMessageReceivedENS_12basic_stringIcNS_11char_traitsIcEENS_9allocatorIcEEEEE3$_2NS7_ISA_EEFvvEE7__cloneEv', symObjAddr: 0x4418, symBinAddr: 0x2F6D4, symSize: 0x78 }
  - { offsetInCU: 0xA6810, offset: 0x18FA34, size: 0x8, addend: 0x0, symName: '__ZNKSt3__110__function6__funcIZN12v8_inspector19JsV8InspectorClient25onFrontendMessageReceivedENS_12basic_stringIcNS_11char_traitsIcEENS_9allocatorIcEEEEE3$_2NS7_ISA_EEFvvEE7__cloneEPNS0_6__baseISC_EE', symObjAddr: 0x4490, symBinAddr: 0x2F74C, symSize: 0x40 }
  - { offsetInCU: 0xA6A21, offset: 0x18FC45, size: 0x8, addend: 0x0, symName: '__ZNSt3__110__function6__funcIZN12v8_inspector19JsV8InspectorClient25onFrontendMessageReceivedENS_12basic_stringIcNS_11char_traitsIcEENS_9allocatorIcEEEEE3$_2NS7_ISA_EEFvvEE7destroyEv', symObjAddr: 0x44D0, symBinAddr: 0x2F78C, symSize: 0x14 }
  - { offsetInCU: 0xA6AF7, offset: 0x18FD1B, size: 0x8, addend: 0x0, symName: '__ZNSt3__110__function6__funcIZN12v8_inspector19JsV8InspectorClient25onFrontendMessageReceivedENS_12basic_stringIcNS_11char_traitsIcEENS_9allocatorIcEEEEE3$_2NS7_ISA_EEFvvEE7destroyEv', symObjAddr: 0x44D0, symBinAddr: 0x2F78C, symSize: 0x14 }
  - { offsetInCU: 0xA6BD4, offset: 0x18FDF8, size: 0x8, addend: 0x0, symName: '__ZNSt3__110__function6__funcIZN12v8_inspector19JsV8InspectorClient25onFrontendMessageReceivedENS_12basic_stringIcNS_11char_traitsIcEENS_9allocatorIcEEEEE3$_2NS7_ISA_EEFvvEE18destroy_deallocateEv', symObjAddr: 0x44E4, symBinAddr: 0x2F7A0, symSize: 0x30 }
  - { offsetInCU: 0xA6EE7, offset: 0x19010B, size: 0x8, addend: 0x0, symName: '__ZNSt3__110__function6__funcIZN12v8_inspector19JsV8InspectorClient25onFrontendMessageReceivedENS_12basic_stringIcNS_11char_traitsIcEENS_9allocatorIcEEEEE3$_2NS7_ISA_EEFvvEEclEv', symObjAddr: 0x4514, symBinAddr: 0x2F7D0, symSize: 0x58 }
  - { offsetInCU: 0xA6FFD, offset: 0x190221, size: 0x8, addend: 0x0, symName: '____ZZN12v8_inspector19JsV8InspectorClient25onFrontendMessageReceivedENSt3__112basic_stringIcNS1_11char_traitsIcEENS1_9allocatorIcEEEEENK3$_2clEv_block_invoke', symObjAddr: 0x456C, symBinAddr: 0x2F828, symSize: 0xCC }
  - { offsetInCU: 0xA7569, offset: 0x19078D, size: 0x8, addend: 0x0, symName: __ZNSt3__117bad_function_callD1Ev, symObjAddr: 0x46F4, symBinAddr: 0x2F9B0, symSize: 0x4 }
  - { offsetInCU: 0xA758C, offset: 0x1907B0, size: 0x8, addend: 0x0, symName: __ZNSt3__117bad_function_callD1Ev, symObjAddr: 0x46F4, symBinAddr: 0x2F9B0, symSize: 0x4 }
  - { offsetInCU: 0xA75BF, offset: 0x1907E3, size: 0x8, addend: 0x0, symName: __ZNSt3__117bad_function_callD0Ev, symObjAddr: 0x46F8, symBinAddr: 0x2F9B4, symSize: 0x14 }
  - { offsetInCU: 0xA7633, offset: 0x190857, size: 0x8, addend: 0x0, symName: __ZNSt3__15dequeINS_12basic_stringIcNS_11char_traitsIcEENS_9allocatorIcEEEENS4_IS6_EEE26__maybe_remove_front_spareB8ue170006Eb, symObjAddr: 0x4820, symBinAddr: 0x2FA3C, symSize: 0x64 }
  - { offsetInCU: 0xA78CB, offset: 0x190AEF, size: 0x8, addend: 0x0, symName: __ZNKSt3__14lessINS_12basic_stringIcNS_11char_traitsIcEENS_9allocatorIcEEEEEclB8ue170006ERKS6_S9_, symObjAddr: 0x4910, symBinAddr: 0x2FB2C, symSize: 0x68 }
  - { offsetInCU: 0xA7B26, offset: 0x190D4A, size: 0x8, addend: 0x0, symName: __ZNSt3__16__treeINS_12__value_typeINS_12basic_stringIcNS_11char_traitsIcEENS_9allocatorIcEEEEPN2v810PersistentINS8_6ObjectENS8_27NonCopyablePersistentTraitsISA_EEEEEENS_19__map_value_compareIS7_SF_NS_4lessIS7_EELb1EEENS5_ISF_EEE12__find_equalIS7_EERPNS_16__tree_node_baseIPvEERPNS_15__tree_end_nodeISQ_EERKT_, symObjAddr: 0x49FC, symBinAddr: 0x2FC18, symSize: 0x9C }
  - { offsetInCU: 0xA7C25, offset: 0x190E49, size: 0x8, addend: 0x0, symName: __ZNSt3__16__treeINS_12__value_typeINS_12basic_stringIcNS_11char_traitsIcEENS_9allocatorIcEEEEPN2v810PersistentINS8_6ObjectENS8_27NonCopyablePersistentTraitsISA_EEEEEENS_19__map_value_compareIS7_SF_NS_4lessIS7_EELb1EEENS5_ISF_EEE16__construct_nodeIJRS7_RSE_EEENS_10unique_ptrINS_11__tree_nodeISF_PvEENS_22__tree_node_destructorINS5_ISS_EEEEEEDpOT_, symObjAddr: 0x4A98, symBinAddr: 0x2FCB4, symSize: 0xA8 }
  - { offsetInCU: 0xA7F8C, offset: 0x1911B0, size: 0x8, addend: 0x0, symName: __ZNSt3__16__treeINS_12__value_typeINS_12basic_stringIcNS_11char_traitsIcEENS_9allocatorIcEEEEPN2v810PersistentINS8_6ObjectENS8_27NonCopyablePersistentTraitsISA_EEEEEENS_19__map_value_compareIS7_SF_NS_4lessIS7_EELb1EEENS5_ISF_EEE16__insert_node_atEPNS_15__tree_end_nodeIPNS_16__tree_node_baseIPvEEEERSQ_SQ_, symObjAddr: 0x4B40, symBinAddr: 0x2FD5C, symSize: 0x54 }
  - { offsetInCU: 0xA8348, offset: 0x19156C, size: 0x8, addend: 0x0, symName: __ZNSt3__122__tree_node_destructorINS_9allocatorINS_11__tree_nodeINS_12__value_typeINS_12basic_stringIcNS_11char_traitsIcEENS1_IcEEEEPN2v810PersistentINS9_6ObjectENS9_27NonCopyablePersistentTraitsISB_EEEEEEPvEEEEEclB8ue170006EPSI_, symObjAddr: 0x4D2C, symBinAddr: 0x2FF48, symSize: 0x4C }
  - { offsetInCU: 0xA8805, offset: 0x191A29, size: 0x8, addend: 0x0, symName: __GLOBAL__sub_I_JsV8InspectorClient.mm, symObjAddr: 0x5398, symBinAddr: 0x2FFE4, symSize: 0x2C }
  - { offsetInCU: 0xA881D, offset: 0x191A41, size: 0x8, addend: 0x0, symName: __GLOBAL__sub_I_JsV8InspectorClient.mm, symObjAddr: 0x5398, symBinAddr: 0x2FFE4, symSize: 0x2C }
  - { offsetInCU: 0xA8889, offset: 0x191AAD, size: 0x8, addend: 0x0, symName: __GLOBAL__sub_I_JsV8InspectorClient.mm, symObjAddr: 0x5398, symBinAddr: 0x2FFE4, symSize: 0x2C }
  - { offsetInCU: 0xA88A7, offset: 0x191ACB, size: 0x8, addend: 0x0, symName: __GLOBAL__sub_I_JsV8InspectorClient.mm, symObjAddr: 0x5398, symBinAddr: 0x2FFE4, symSize: 0x2C }
  - { offsetInCU: 0xA88C4, offset: 0x191AE8, size: 0x8, addend: 0x0, symName: __GLOBAL__sub_I_JsV8InspectorClient.mm, symObjAddr: 0x5398, symBinAddr: 0x2FFE4, symSize: 0x2C }
  - { offsetInCU: 0x26, offset: 0x192275, size: 0x8, addend: 0x0, symName: __ZN3tns12ClassBuilder16GetExtendedClassENSt3__112basic_stringIcNS1_11char_traitsIcEENS1_9allocatorIcEEEES7_, symObjAddr: 0x0, symBinAddr: 0x30010, symSize: 0x360 }
  - { offsetInCU: 0x7507, offset: 0x199756, size: 0x8, addend: 0x0, symName: __ZN3tns12ClassBuilder16GetExtendedClassENSt3__112basic_stringIcNS1_11char_traitsIcEENS1_9allocatorIcEEEES7_, symObjAddr: 0x0, symBinAddr: 0x30010, symSize: 0x360 }
  - { offsetInCU: 0x8C77, offset: 0x19AEC6, size: 0x8, addend: 0x0, symName: GCC_except_table0, symObjAddr: 0x4D8, symBinAddr: 0xC2ABDC, symSize: 0x0 }
  - { offsetInCU: 0x6BE4, offset: 0x1A1D2A, size: 0x8, addend: 0x0, symName: __ZNSt3__115allocate_sharedB8ue170006IN2v810PersistentINS1_6ObjectENS1_27NonCopyablePersistentTraitsIS3_EEEENS_9allocatorIS6_EEJRPNS1_7IsolateENS1_5LocalIS3_EEEvEENS_10shared_ptrIT_EERKT0_DpOT1_, symObjAddr: 0x20D4, symBinAddr: 0x321C0, symSize: 0x60 }
  - { offsetInCU: 0xD0F2, offset: 0x1A8238, size: 0x8, addend: 0x0, symName: __ZN10robin_hood6detail7doThrowISt9bad_allocJEEEvDpOT0_, symObjAddr: 0x2908, symBinAddr: 0x329A4, symSize: 0x28 }
  - { offsetInCU: 0x102A3, offset: 0x1AB3E9, size: 0x8, addend: 0x0, symName: __ZN3tns7Pointer8RegisterEN2v85LocalINS1_7ContextEEENS2_INS1_6ObjectEEE, symObjAddr: 0x0, symBinAddr: 0x30370, symSize: 0x118 }
  - { offsetInCU: 0x106A5, offset: 0x1AB7EB, size: 0x8, addend: 0x0, symName: __ZN3tns7Pointer18GetPointerCtorFuncEN2v85LocalINS1_7ContextEEE, symObjAddr: 0x118, symBinAddr: 0x30488, symSize: 0x39C }
  - { offsetInCU: 0x11AA3, offset: 0x1ACBE9, size: 0x8, addend: 0x0, symName: __ZN3tns7Pointer17RegisterAddMethodEN2v85LocalINS1_7ContextEEENS2_INS1_6ObjectEEE, symObjAddr: 0x974, symBinAddr: 0x30CE4, symSize: 0x174 }
  - { offsetInCU: 0x12084, offset: 0x1AD1CA, size: 0x8, addend: 0x0, symName: __ZN3tns7Pointer22RegisterSubtractMethodEN2v85LocalINS1_7ContextEEENS2_INS1_6ObjectEEE, symObjAddr: 0xAE8, symBinAddr: 0x30E58, symSize: 0x174 }
  - { offsetInCU: 0x12665, offset: 0x1AD7AB, size: 0x8, addend: 0x0, symName: __ZN3tns7Pointer22RegisterToStringMethodEN2v85LocalINS1_7ContextEEENS2_INS1_6ObjectEEE, symObjAddr: 0xC5C, symBinAddr: 0x30FCC, symSize: 0x174 }
  - { offsetInCU: 0x12C46, offset: 0x1ADD8C, size: 0x8, addend: 0x0, symName: __ZN3tns7Pointer25RegisterToHexStringMethodEN2v85LocalINS1_7ContextEEENS2_INS1_6ObjectEEE, symObjAddr: 0xDD0, symBinAddr: 0x31140, symSize: 0x174 }
  - { offsetInCU: 0x13227, offset: 0x1AE36D, size: 0x8, addend: 0x0, symName: __ZN3tns7Pointer29RegisterToDecimalStringMethodEN2v85LocalINS1_7ContextEEENS2_INS1_6ObjectEEE, symObjAddr: 0xF44, symBinAddr: 0x312B4, symSize: 0x174 }
  - { offsetInCU: 0x13808, offset: 0x1AE94E, size: 0x8, addend: 0x0, symName: __ZN3tns7Pointer22RegisterToNumberMethodEN2v85LocalINS1_7ContextEEENS2_INS1_6ObjectEEE, symObjAddr: 0x10B8, symBinAddr: 0x31428, symSize: 0x174 }
  - { offsetInCU: 0x13DFA, offset: 0x1AEF40, size: 0x8, addend: 0x0, symName: __ZN3tns7Pointer22RegisterToBigIntMethodEN2v85LocalINS1_7ContextEEENS2_INS1_6ObjectEEE, symObjAddr: 0x122C, symBinAddr: 0x3159C, symSize: 0x174 }
  - { offsetInCU: 0x14467, offset: 0x1AF5AD, size: 0x8, addend: 0x0, symName: __ZN3tns7Pointer11NewInstanceEN2v85LocalINS1_7ContextEEEPv, symObjAddr: 0x4B4, symBinAddr: 0x30824, symSize: 0xA4 }
  - { offsetInCU: 0x14812, offset: 0x1AF958, size: 0x8, addend: 0x0, symName: __ZN3tns7Pointer26PointerConstructorCallbackERKN2v820FunctionCallbackInfoINS1_5ValueEEE, symObjAddr: 0x558, symBinAddr: 0x308C8, symSize: 0x41C }
  - { offsetInCU: 0x15515, offset: 0x1B065B, size: 0x8, addend: 0x0, symName: __ZNK10robin_hood6detail5TableILb1ELm80EPKvNSt3__110shared_ptrIN2v810PersistentINS6_6ObjectENS6_27NonCopyablePersistentTraitsIS8_EEEEEENS_4hashIS3_vEENS4_8equal_toIS3_EEE7findIdxIS3_EEmRKT_, symObjAddr: 0x1FEC, symBinAddr: 0x320D8, symSize: 0xE8 }
  - { offsetInCU: 0x1556F, offset: 0x1B06B5, size: 0x8, addend: 0x0, symName: __ZNK10robin_hood6detail5TableILb1ELm80EPKvNSt3__110shared_ptrIN2v810PersistentINS6_6ObjectENS6_27NonCopyablePersistentTraitsIS8_EEEEEENS_4hashIS3_vEENS4_8equal_toIS3_EEE7findIdxIS3_EEmRKT_, symObjAddr: 0x1FEC, symBinAddr: 0x320D8, symSize: 0xE8 }
  - { offsetInCU: 0x1569E, offset: 0x1B07E4, size: 0x8, addend: 0x0, symName: __ZN10robin_hood6detail5TableILb1ELm80EPKvNSt3__110shared_ptrIN2v810PersistentINS6_6ObjectENS6_27NonCopyablePersistentTraitsIS8_EEEEEENS_4hashIS3_vEENS4_8equal_toIS3_EEE7emplaceIJRPvSC_EEENS4_4pairINSH_4IterILb0EEEbEEDpOT_, symObjAddr: 0x13A0, symBinAddr: 0x31710, symSize: 0x128 }
  - { offsetInCU: 0x15F4E, offset: 0x1B1094, size: 0x8, addend: 0x0, symName: __ZN10robin_hood6detail5TableILb1ELm80EPKvNSt3__110shared_ptrIN2v810PersistentINS6_6ObjectENS6_27NonCopyablePersistentTraitsIS8_EEEEEENS_4hashIS3_vEENS4_8equal_toIS3_EEE25insertKeyPrepareEmptySpotIRKS3_EENS4_4pairImNSH_14InsertionStateEEEOT_, symObjAddr: 0x222C, symBinAddr: 0x322C8, symSize: 0x1A0 }
  - { offsetInCU: 0x1619C, offset: 0x1B12E2, size: 0x8, addend: 0x0, symName: __ZNK10robin_hood6detail5TableILb1ELm80EPKvNSt3__110shared_ptrIN2v810PersistentINS6_6ObjectENS6_27NonCopyablePersistentTraitsIS8_EEEEEENS_4hashIS3_vEENS4_8equal_toIS3_EEE18throwOverflowErrorEv, symObjAddr: 0x23CC, symBinAddr: 0x32468, symSize: 0x50 }
  - { offsetInCU: 0x16479, offset: 0x1B15BF, size: 0x8, addend: 0x0, symName: __ZN3tns18PointerTypeWrapperD1Ev, symObjAddr: 0x15D4, symBinAddr: 0x31838, symSize: 0x4 }
  - { offsetInCU: 0x164A4, offset: 0x1B15EA, size: 0x8, addend: 0x0, symName: __ZN3tns18PointerTypeWrapperD0Ev, symObjAddr: 0x15D8, symBinAddr: 0x3183C, symSize: 0x4 }
  - { offsetInCU: 0x164CF, offset: 0x1B1615, size: 0x8, addend: 0x0, symName: __ZN3tns18PointerTypeWrapper4TypeEv, symObjAddr: 0x15DC, symBinAddr: 0x31840, symSize: 0x8 }
  - { offsetInCU: 0x164F6, offset: 0x1B163C, size: 0x8, addend: 0x0, symName: __ZN3tns14PointerWrapperD1Ev, symObjAddr: 0x15E4, symBinAddr: 0x31848, symSize: 0x4 }
  - { offsetInCU: 0x16521, offset: 0x1B1667, size: 0x8, addend: 0x0, symName: __ZN3tns14PointerWrapperD0Ev, symObjAddr: 0x15E8, symBinAddr: 0x3184C, symSize: 0x4 }
  - { offsetInCU: 0x1654C, offset: 0x1B1692, size: 0x8, addend: 0x0, symName: __ZN3tns14PointerWrapper4TypeEv, symObjAddr: 0x15EC, symBinAddr: 0x31850, symSize: 0x8 }
  - { offsetInCU: 0x16785, offset: 0x1B18CB, size: 0x8, addend: 0x0, symName: '__ZZN3tns7Pointer17RegisterAddMethodEN2v85LocalINS1_7ContextEEENS2_INS1_6ObjectEEEEN3$_08__invokeERKNS1_20FunctionCallbackInfoINS1_5ValueEEE', symObjAddr: 0x15F4, symBinAddr: 0x31858, symSize: 0x188 }
  - { offsetInCU: 0x16ECF, offset: 0x1B2015, size: 0x8, addend: 0x0, symName: '__ZZN3tns7Pointer22RegisterSubtractMethodEN2v85LocalINS1_7ContextEEENS2_INS1_6ObjectEEEEN3$_18__invokeERKNS1_20FunctionCallbackInfoINS1_5ValueEEE', symObjAddr: 0x177C, symBinAddr: 0x319E0, symSize: 0x210 }
  - { offsetInCU: 0x177E0, offset: 0x1B2926, size: 0x8, addend: 0x0, symName: '__ZZN3tns7Pointer22RegisterToStringMethodEN2v85LocalINS1_7ContextEEENS2_INS1_6ObjectEEEEN3$_28__invokeERKNS1_20FunctionCallbackInfoINS1_5ValueEEE', symObjAddr: 0x198C, symBinAddr: 0x31BF0, symSize: 0x144 }
  - { offsetInCU: 0x17D9F, offset: 0x1B2EE5, size: 0x8, addend: 0x0, symName: '__ZZN3tns7Pointer25RegisterToHexStringMethodEN2v85LocalINS1_7ContextEEENS2_INS1_6ObjectEEEEN3$_38__invokeERKNS1_20FunctionCallbackInfoINS1_5ValueEEE', symObjAddr: 0x1AD0, symBinAddr: 0x31D34, symSize: 0x144 }
  - { offsetInCU: 0x18369, offset: 0x1B34AF, size: 0x8, addend: 0x0, symName: '__ZZN3tns7Pointer29RegisterToDecimalStringMethodEN2v85LocalINS1_7ContextEEENS2_INS1_6ObjectEEEEN3$_48__invokeERKNS1_20FunctionCallbackInfoINS1_5ValueEEE', symObjAddr: 0x1C14, symBinAddr: 0x31E78, symSize: 0x144 }
  - { offsetInCU: 0x18963, offset: 0x1B3AA9, size: 0x8, addend: 0x0, symName: '__ZZN3tns7Pointer22RegisterToNumberMethodEN2v85LocalINS1_7ContextEEENS2_INS1_6ObjectEEEEN3$_58__invokeERKNS1_20FunctionCallbackInfoINS1_5ValueEEE', symObjAddr: 0x1D58, symBinAddr: 0x31FBC, symSize: 0x90 }
  - { offsetInCU: 0x18C1D, offset: 0x1B3D63, size: 0x8, addend: 0x0, symName: '__ZZN3tns7Pointer22RegisterToBigIntMethodEN2v85LocalINS1_7ContextEEENS2_INS1_6ObjectEEEEN3$_68__invokeERKNS1_20FunctionCallbackInfoINS1_5ValueEEE', symObjAddr: 0x1DE8, symBinAddr: 0x3204C, symSize: 0x8C }
  - { offsetInCU: 0x193CA, offset: 0x1B4510, size: 0x8, addend: 0x0, symName: __ZNSt3__120__shared_ptr_emplaceIN2v810PersistentINS1_6ObjectENS1_27NonCopyablePersistentTraitsIS3_EEEENS_9allocatorIS6_EEEC2B8ue170006IJRPNS1_7IsolateENS1_5LocalIS3_EEEEES8_DpOT_, symObjAddr: 0x2134, symBinAddr: 0x32220, symSize: 0x68 }
  - { offsetInCU: 0x195FE, offset: 0x1B4744, size: 0x8, addend: 0x0, symName: __ZNSt3__120__shared_ptr_emplaceIN2v810PersistentINS1_6ObjectENS1_27NonCopyablePersistentTraitsIS3_EEEENS_9allocatorIS6_EEED1Ev, symObjAddr: 0x219C, symBinAddr: 0x32288, symSize: 0x14 }
  - { offsetInCU: 0x19621, offset: 0x1B4767, size: 0x8, addend: 0x0, symName: __ZNSt3__120__shared_ptr_emplaceIN2v810PersistentINS1_6ObjectENS1_27NonCopyablePersistentTraitsIS3_EEEENS_9allocatorIS6_EEED1Ev, symObjAddr: 0x219C, symBinAddr: 0x32288, symSize: 0x14 }
  - { offsetInCU: 0x19658, offset: 0x1B479E, size: 0x8, addend: 0x0, symName: __ZNSt3__120__shared_ptr_emplaceIN2v810PersistentINS1_6ObjectENS1_27NonCopyablePersistentTraitsIS3_EEEENS_9allocatorIS6_EEED0Ev, symObjAddr: 0x21B0, symBinAddr: 0x3229C, symSize: 0x24 }
  - { offsetInCU: 0x196BE, offset: 0x1B4804, size: 0x8, addend: 0x0, symName: __ZNSt3__120__shared_ptr_emplaceIN2v810PersistentINS1_6ObjectENS1_27NonCopyablePersistentTraitsIS3_EEEENS_9allocatorIS6_EEE16__on_zero_sharedEv, symObjAddr: 0x21D4, symBinAddr: 0x322C0, symSize: 0x4 }
  - { offsetInCU: 0x196E3, offset: 0x1B4829, size: 0x8, addend: 0x0, symName: __ZNSt3__120__shared_ptr_emplaceIN2v810PersistentINS1_6ObjectENS1_27NonCopyablePersistentTraitsIS3_EEEENS_9allocatorIS6_EEE21__on_zero_shared_weakEv, symObjAddr: 0x21D8, symBinAddr: 0x322C4, symSize: 0x4 }
  - { offsetInCU: 0x19717, offset: 0x1B485D, size: 0x8, addend: 0x0, symName: __ZNSt3__120__shared_ptr_emplaceIN2v810PersistentINS1_6ObjectENS1_27NonCopyablePersistentTraitsIS3_EEEENS_9allocatorIS6_EEE21__on_zero_shared_weakEv, symObjAddr: 0x21D8, symBinAddr: 0x322C4, symSize: 0x4 }
  - { offsetInCU: 0x19739, offset: 0x1B487F, size: 0x8, addend: 0x0, symName: __ZNSt3__120__shared_ptr_emplaceIN2v810PersistentINS1_6ObjectENS1_27NonCopyablePersistentTraitsIS3_EEEENS_9allocatorIS6_EEE21__on_zero_shared_weakEv, symObjAddr: 0x21D8, symBinAddr: 0x322C4, symSize: 0x4 }
  - { offsetInCU: 0x1975B, offset: 0x1B48A1, size: 0x8, addend: 0x0, symName: __ZNSt3__120__shared_ptr_emplaceIN2v810PersistentINS1_6ObjectENS1_27NonCopyablePersistentTraitsIS3_EEEENS_9allocatorIS6_EEE21__on_zero_shared_weakEv, symObjAddr: 0x21D8, symBinAddr: 0x322C4, symSize: 0x4 }
  - { offsetInCU: 0x19786, offset: 0x1B48CC, size: 0x8, addend: 0x0, symName: __ZNSt3__120__shared_ptr_emplaceIN2v810PersistentINS1_6ObjectENS1_27NonCopyablePersistentTraitsIS3_EEEENS_9allocatorIS6_EEE21__on_zero_shared_weakEv, symObjAddr: 0x21D8, symBinAddr: 0x322C4, symSize: 0x4 }
  - { offsetInCU: 0x197AC, offset: 0x1B48F2, size: 0x8, addend: 0x0, symName: __ZNSt3__120__shared_ptr_emplaceIN2v810PersistentINS1_6ObjectENS1_27NonCopyablePersistentTraitsIS3_EEEENS_9allocatorIS6_EEE21__on_zero_shared_weakEv, symObjAddr: 0x21D8, symBinAddr: 0x322C4, symSize: 0x4 }
  - { offsetInCU: 0x19804, offset: 0x1B494A, size: 0x8, addend: 0x0, symName: __ZN10robin_hood6detail5TableILb1ELm80EPKvNSt3__110shared_ptrIN2v810PersistentINS6_6ObjectENS6_27NonCopyablePersistentTraitsIS8_EEEEEENS_4hashIS3_vEENS4_8equal_toIS3_EEE13increase_sizeEv, symObjAddr: 0x241C, symBinAddr: 0x324B8, symSize: 0x12C }
  - { offsetInCU: 0x198C7, offset: 0x1B4A0D, size: 0x8, addend: 0x0, symName: __ZN10robin_hood6detail5TableILb1ELm80EPKvNSt3__110shared_ptrIN2v810PersistentINS6_6ObjectENS6_27NonCopyablePersistentTraitsIS8_EEEEEENS_4hashIS3_vEENS4_8equal_toIS3_EEE7shiftUpEmm, symObjAddr: 0x2548, symBinAddr: 0x325E4, symSize: 0xEC }
  - { offsetInCU: 0x19A2C, offset: 0x1B4B72, size: 0x8, addend: 0x0, symName: __ZNSt14overflow_errorC1B8ue170006EPKc, symObjAddr: 0x2ADC, symBinAddr: 0x32B1C, symSize: 0x24 }
  - { offsetInCU: 0x19AC1, offset: 0x1B4C07, size: 0x8, addend: 0x0, symName: __ZN10robin_hood6detail5TableILb1ELm80EPKvNSt3__110shared_ptrIN2v810PersistentINS6_6ObjectENS6_27NonCopyablePersistentTraitsIS8_EEEEEENS_4hashIS3_vEENS4_8equal_toIS3_EEE17try_increase_infoEv, symObjAddr: 0x2710, symBinAddr: 0x327AC, symSize: 0x100 }
  - { offsetInCU: 0x19BBE, offset: 0x1B4D04, size: 0x8, addend: 0x0, symName: __ZN10robin_hood6detail5TableILb1ELm80EPKvNSt3__110shared_ptrIN2v810PersistentINS6_6ObjectENS6_27NonCopyablePersistentTraitsIS8_EEEEEENS_4hashIS3_vEENS4_8equal_toIS3_EEE8initDataEm, symObjAddr: 0x2634, symBinAddr: 0x326D0, symSize: 0xDC }
  - { offsetInCU: 0x19CCC, offset: 0x1B4E12, size: 0x8, addend: 0x0, symName: __ZN10robin_hood6detail5TableILb1ELm80EPKvNSt3__110shared_ptrIN2v810PersistentINS6_6ObjectENS6_27NonCopyablePersistentTraitsIS8_EEEEEENS_4hashIS3_vEENS4_8equal_toIS3_EEE17try_increase_infoEv, symObjAddr: 0x2710, symBinAddr: 0x327AC, symSize: 0x100 }
  - { offsetInCU: 0x19CD6, offset: 0x1B4E1C, size: 0x8, addend: 0x0, symName: __ZN10robin_hood6detail5TableILb1ELm80EPKvNSt3__110shared_ptrIN2v810PersistentINS6_6ObjectENS6_27NonCopyablePersistentTraitsIS8_EEEEEENS_4hashIS3_vEENS4_8equal_toIS3_EEE16rehashPowerOfTwoEmb, symObjAddr: 0x2810, symBinAddr: 0x328AC, symSize: 0xF8 }
  - { offsetInCU: 0x19F31, offset: 0x1B5077, size: 0x8, addend: 0x0, symName: __ZN10robin_hood6detail5TableILb1ELm80EPKvNSt3__110shared_ptrIN2v810PersistentINS6_6ObjectENS6_27NonCopyablePersistentTraitsIS8_EEEEEENS_4hashIS3_vEENS4_8equal_toIS3_EEE11insert_moveEONSH_8DataNodeISH_Lb1EEE, symObjAddr: 0x2930, symBinAddr: 0x329CC, symSize: 0x150 }
  - { offsetInCU: 0x21BD, offset: 0x1B7539, size: 0x8, addend: 0x0, symName: __ZN3tns10ToNSStringEPN2v87IsolateERKNS0_5LocalINS0_5ValueEEE, symObjAddr: 0x2800, symBinAddr: 0x35124, symSize: 0xCC }
  - { offsetInCU: 0xEE35, offset: 0x1C41B1, size: 0x8, addend: 0x0, symName: __ZNSt3__119__allocate_at_leastB8ue170006INS_9allocatorIPKN3tns10MethodMetaEEEEENS_19__allocation_resultINS_16allocator_traitsIT_E7pointerEEERS9_m, symObjAddr: 0x8874, symBinAddr: 0x39DA0, symSize: 0x34 }
  - { offsetInCU: 0xEED3, offset: 0x1C424F, size: 0x8, addend: 0x0, symName: __ZNSt3__16vectorIN2v85LocalINS1_5ValueEEENS_9allocatorIS4_EEE18__assign_with_sizeB8ue170006IPS4_S9_EEvT_T0_l, symObjAddr: 0x88A8, symBinAddr: 0x39DD4, symSize: 0x108 }
  - { offsetInCU: 0xF1C0, offset: 0x1C453C, size: 0x8, addend: 0x0, symName: __ZNSt3__119__allocate_at_leastB8ue170006INS_9allocatorIN2v85LocalINS2_5ValueEEEEEEENS_19__allocation_resultINS_16allocator_traitsIT_E7pointerEEERS9_m, symObjAddr: 0x7F18, symBinAddr: 0x3952C, symSize: 0x34 }
  - { offsetInCU: 0xFBD0, offset: 0x1C4F4C, size: 0x8, addend: 0x0, symName: __ZNSt3__115allocate_sharedB8ue170006IN2v810PersistentINS1_5ValueENS1_27NonCopyablePersistentTraitsIS3_EEEENS_9allocatorIS6_EEJRPNS1_7IsolateERNS1_5LocalINS1_6ObjectEEEEvEENS_10shared_ptrIT_EERKT0_DpOT1_, symObjAddr: 0x998C, symBinAddr: 0x3ADF8, symSize: 0x60 }
  - { offsetInCU: 0x11818, offset: 0x1C6B94, size: 0x8, addend: 0x0, symName: __ZNK3tns10MethodMeta8selectorEv, symObjAddr: 0x5E48, symBinAddr: 0x37F48, symSize: 0x21C }
  - { offsetInCU: 0x1183D, offset: 0x1C6BB9, size: 0x8, addend: 0x0, symName: __ZZNK3tns10MethodMeta8selectorEvE23methodMetaSelectorCache, symObjAddr: 0xB540, symBinAddr: 0xD26C98, symSize: 0x0 }
  - { offsetInCU: 0x11853, offset: 0x1C6BCF, size: 0x8, addend: 0x0, symName: __ZZNK3tns10MethodMeta8selectorEvE1p, symObjAddr: 0xB580, symBinAddr: 0xD26CD8, symSize: 0x0 }
  - { offsetInCU: 0x1D022, offset: 0x1D239E, size: 0x8, addend: 0x0, symName: __ZN3tns12ArgConverter4InitEN2v85LocalINS1_7ContextEEEPFvNS2_INS1_4NameEEERKNS1_20PropertyCallbackInfoINS1_5ValueEEEEPFvS6_NS2_IS8_EESB_E, symObjAddr: 0x0, symBinAddr: 0x32B40, symSize: 0x180 }
  - { offsetInCU: 0x1D543, offset: 0x1D28BF, size: 0x8, addend: 0x0, symName: __ZN3tns12ArgConverter27CreateEmptyInstanceFunctionEN2v85LocalINS1_7ContextEEEPFvNS2_INS1_4NameEEERKNS1_20PropertyCallbackInfoINS1_5ValueEEEEPFvS6_NS2_IS8_EESB_E, symObjAddr: 0x180, symBinAddr: 0x32CC0, symSize: 0x138 }
  - { offsetInCU: 0x1E43C, offset: 0x1D37B8, size: 0x8, addend: 0x0, symName: __ZN3tns12ArgConverter6InvokeEN2v85LocalINS1_7ContextEEEP10objc_classNS2_INS1_6ObjectEEERNS_6V8ArgsEPKNS_10MethodMetaEb, symObjAddr: 0x2B8, symBinAddr: 0x32DF8, symSize: 0x674 }
  - { offsetInCU: 0x20742, offset: 0x1D5ABE, size: 0x8, addend: 0x0, symName: __ZNK10robin_hood6detail5TableILb1ELm80ENSt3__112basic_stringIcNS2_11char_traitsIcEENS2_9allocatorIcEEEENS2_10unique_ptrIN2v810PersistentINSA_6ObjectENSA_27NonCopyablePersistentTraitsISC_EEEENS2_14default_deleteISF_EEEENS_4hashIS8_vEENS2_8equal_toIS8_EEE7findIdxIS8_EEmRKT_, symObjAddr: 0x7864, symBinAddr: 0x39290, symSize: 0x108 }
  - { offsetInCU: 0x20944, offset: 0x1D5CC0, size: 0x8, addend: 0x0, symName: __ZN3tns12ArgConverter19FindMethodOverloadsEP10objc_classNSt3__112basic_stringIcNS3_11char_traitsIcEENS3_9allocatorIcEEEENS_10MemberTypeERNS3_6vectorIPKNS_10MethodMetaENS7_ISE_EEEE, symObjAddr: 0x92C, symBinAddr: 0x3346C, symSize: 0x294 }
  - { offsetInCU: 0x216D2, offset: 0x1D6A4E, size: 0x8, addend: 0x0, symName: __ZN3tns14ObjCMethodCallC2EN2v85LocalINS1_7ContextEEEPKNS_10MethodMetaEP11objc_objectP10objc_classRNS_6V8ArgsEb, symObjAddr: 0x5C90, symBinAddr: 0x37D90, symSize: 0x1B8 }
  - { offsetInCU: 0x21CC8, offset: 0x1D7044, size: 0x8, addend: 0x0, symName: __ZNK10robin_hood6detail5TableILb1ELm80ENSt3__112basic_stringIcNS2_11char_traitsIcEENS2_9allocatorIcEEEENS2_10unique_ptrIN2v810PersistentINSA_6ObjectENSA_27NonCopyablePersistentTraitsISC_EEEENS2_14default_deleteISF_EEEENS_4hashIS8_vEENS2_8equal_toIS8_EEE7findIdxIS8_EEmRKT_, symObjAddr: 0x7864, symBinAddr: 0x39290, symSize: 0x108 }
  - { offsetInCU: 0x2259E, offset: 0x1D791A, size: 0x8, addend: 0x0, symName: __ZN3tns12ArgConverter8FindMetaEP10objc_classPKNS_12TypeEncodingE, symObjAddr: 0x2ECC, symBinAddr: 0x35710, symSize: 0x2C4 }
  - { offsetInCU: 0x2349A, offset: 0x1D8816, size: 0x8, addend: 0x0, symName: __ZNK3tns13InterfaceMeta8baseNameEv, symObjAddr: 0x53C0, symBinAddr: 0x37B58, symSize: 0x78 }
  - { offsetInCU: 0x23728, offset: 0x1D8AA4, size: 0x8, addend: 0x0, symName: __ZNSt3__16__treeIPKN3tns10MemberMetaENS_4lessIS4_EENS_9allocatorIS4_EEE7destroyEPNS_11__tree_nodeIS4_PvEE, symObjAddr: 0x9A94, symBinAddr: 0x3AEC0, symSize: 0x40 }
  - { offsetInCU: 0x23857, offset: 0x1D8BD3, size: 0x8, addend: 0x0, symName: __ZNKSt3__16vectorIPKN3tns10MethodMetaENS_9allocatorIS4_EEE20__throw_length_errorB8ue170006Ev, symObjAddr: 0x8860, symBinAddr: 0x39D8C, symSize: 0x14 }
  - { offsetInCU: 0x23880, offset: 0x1D8BFC, size: 0x8, addend: 0x0, symName: __ZNSt3__119__allocate_at_leastB8ue170006INS_9allocatorIPKN3tns10MethodMetaEEEEENS_19__allocation_resultINS_16allocator_traitsIT_E7pointerEEERS9_m, symObjAddr: 0x8874, symBinAddr: 0x39DA0, symSize: 0x34 }
  - { offsetInCU: 0x239D1, offset: 0x1D8D4D, size: 0x8, addend: 0x0, symName: __ZN3tns12ArgConverter15ConvertArgumentEN2v85LocalINS1_7ContextEEEPNS_15BaseDataWrapperEbRKNSt3__16vectorINS7_12basic_stringIcNS7_11char_traitsIcEENS7_9allocatorIcEEEENSC_ISE_EEEE, symObjAddr: 0xD20, symBinAddr: 0x33700, symSize: 0x60 }
  - { offsetInCU: 0x23A68, offset: 0x1D8DE4, size: 0x8, addend: 0x0, symName: __ZN3tns12ArgConverter15CreateJsWrapperEN2v85LocalINS1_7ContextEEEPNS_15BaseDataWrapperENS2_INS1_6ObjectEEEbRKNSt3__16vectorINS9_12basic_stringIcNS9_11char_traitsIcEENS9_9allocatorIcEEEENSE_ISG_EEEE, symObjAddr: 0xD80, symBinAddr: 0x33760, symSize: 0xBA8 }
  - { offsetInCU: 0x271E6, offset: 0x1DC562, size: 0x8, addend: 0x0, symName: __ZN3tns12ArgConverter17CreateEmptyObjectEN2v85LocalINS1_7ContextEEEb, symObjAddr: 0x46A8, symBinAddr: 0x36E9C, symSize: 0x110 }
  - { offsetInCU: 0x2771D, offset: 0x1DCA99, size: 0x8, addend: 0x0, symName: __ZN3tns12ArgConverter17CreateEmptyStructEN2v85LocalINS1_7ContextEEE, symObjAddr: 0x454C, symBinAddr: 0x36D90, symSize: 0x10C }
  - { offsetInCU: 0x27E47, offset: 0x1DD1C3, size: 0x8, addend: 0x0, symName: __ZNKSt3__18functionIFN2v85LocalINS1_16FunctionTemplateEEENS2_INS1_7ContextEEEPKN3tns13BaseClassMetaENS7_21KnownUnknownClassPairERKNS_6vectorINS_12basic_stringIcNS_11char_traitsIcEENS_9allocatorIcEEEENSG_ISI_EEEEEEclES6_SA_SB_SM_, symObjAddr: 0x47B8, symBinAddr: 0x36FAC, symSize: 0x4C }
  - { offsetInCU: 0x27EEE, offset: 0x1DD26A, size: 0x8, addend: 0x0, symName: __ZNK3tns11GlobalTableILNS_15GlobalTableTypeE0EE8findMetaEPKcb, symObjAddr: 0x4804, symBinAddr: 0x36FF8, symSize: 0x54 }
  - { offsetInCU: 0x27EF9, offset: 0x1DD275, size: 0x8, addend: 0x0, symName: __ZNK10robin_hood6detail5TableILb1ELm80EPKN3tns4MetaENSt3__110unique_ptrIN2v810PersistentINS8_5ValueENS8_27NonCopyablePersistentTraitsISA_EEEENS6_14default_deleteISD_EEEENS_4hashIS5_vEENS6_8equal_toIS5_EEE7findIdxIS5_EEmRKT_, symObjAddr: 0x8A3C, symBinAddr: 0x39F1C, symSize: 0xD8 }
  - { offsetInCU: 0x27F52, offset: 0x1DD2CE, size: 0x8, addend: 0x0, symName: __ZNK10robin_hood6detail5TableILb1ELm80EPKN3tns4MetaENSt3__110unique_ptrIN2v810PersistentINS8_5ValueENS8_27NonCopyablePersistentTraitsISA_EEEENS6_14default_deleteISD_EEEENS_4hashIS5_vEENS6_8equal_toIS5_EEE7findIdxIS5_EEmRKT_, symObjAddr: 0x8A3C, symBinAddr: 0x39F1C, symSize: 0xD8 }
  - { offsetInCU: 0x281F7, offset: 0x1DD573, size: 0x8, addend: 0x0, symName: __ZN10robin_hood6detail5TableILb1ELm80EP11objc_objectNSt3__110shared_ptrIN2v810PersistentINS6_5ValueENS6_27NonCopyablePersistentTraitsIS8_EEEEEENS_4hashIS3_vEENS4_8equal_toIS3_EEE7emplaceIJRS3_RSC_EEENS4_4pairINSH_4IterILb0EEEbEEDpOT_, symObjAddr: 0x3988, symBinAddr: 0x361CC, symSize: 0x138 }
  - { offsetInCU: 0x2908A, offset: 0x1DE406, size: 0x8, addend: 0x0, symName: __ZN3tns12ArgConverter14MethodCallbackEP7ffi_cifPvPS3_S3_, symObjAddr: 0x1928, symBinAddr: 0x34308, symSize: 0x7BC }
  - { offsetInCU: 0x2A93A, offset: 0x1DFCB6, size: 0x8, addend: 0x0, symName: __ZNSt3__16vectorIN2v85LocalINS1_5ValueEEENS_9allocatorIS4_EEE7reserveEm, symObjAddr: 0x20E4, symBinAddr: 0x34AC4, symSize: 0x94 }
  - { offsetInCU: 0x2AC0D, offset: 0x1DFF89, size: 0x8, addend: 0x0, symName: __ZNK3tns12TypeEncoding4nextEv, symObjAddr: 0x2178, symBinAddr: 0x34B58, symSize: 0xE4 }
  - { offsetInCU: 0x2AC18, offset: 0x1DFF94, size: 0x8, addend: 0x0, symName: __ZNK3tns12TypeEncoding4nextEv, symObjAddr: 0x2178, symBinAddr: 0x34B58, symSize: 0xE4 }
  - { offsetInCU: 0x2ADE5, offset: 0x1E0161, size: 0x8, addend: 0x0, symName: __ZN3tns12ArgConverter19IsErrorOutParameterEPKNS_12TypeEncodingE, symObjAddr: 0x225C, symBinAddr: 0x34C3C, symSize: 0xA4 }
  - { offsetInCU: 0x2B081, offset: 0x1E03FD, size: 0x8, addend: 0x0, symName: __ZN3tns12ArgConverter8SetValueEN2v85LocalINS1_7ContextEEEPvNS2_INS1_5ValueEEEPKNS_12TypeEncodingE, symObjAddr: 0x23BC, symBinAddr: 0x34CE0, symSize: 0x444 }
  - { offsetInCU: 0x2BF28, offset: 0x1E12A4, size: 0x8, addend: 0x0, symName: __ZNKSt3__16vectorIN2v85LocalINS1_5ValueEEENS_9allocatorIS4_EEE20__throw_length_errorB8ue170006Ev, symObjAddr: 0x7F04, symBinAddr: 0x39518, symSize: 0x14 }
  - { offsetInCU: 0x2BF51, offset: 0x1E12CD, size: 0x8, addend: 0x0, symName: __ZNSt3__119__allocate_at_leastB8ue170006INS_9allocatorIN2v85LocalINS2_5ValueEEEEEEENS_19__allocation_resultINS_16allocator_traitsIT_E7pointerEEERS9_m, symObjAddr: 0x7F18, symBinAddr: 0x3952C, symSize: 0x34 }
  - { offsetInCU: 0x2C544, offset: 0x1E18C0, size: 0x8, addend: 0x0, symName: __ZNK3tns5PtrToIcE8valuePtrEv, symObjAddr: 0x28CC, symBinAddr: 0x351F0, symSize: 0x78 }
  - { offsetInCU: 0x2C799, offset: 0x1E1B15, size: 0x8, addend: 0x0, symName: __ZN3tns12ArgConverter7GetMetaENSt3__112basic_stringIcNS1_11char_traitsIcEENS1_9allocatorIcEEEE, symObjAddr: 0x2944, symBinAddr: 0x35268, symSize: 0x13C }
  - { offsetInCU: 0x2CE76, offset: 0x1E21F2, size: 0x8, addend: 0x0, symName: __ZNK10robin_hood6detail5TableILb1ELm80ENSt3__112basic_stringIcNS2_11char_traitsIcEENS2_9allocatorIcEEEEPKN3tns4MetaENS_4hashIS8_vEENS2_8equal_toIS8_EEE7findIdxIS8_EEmRKT_, symObjAddr: 0x9468, symBinAddr: 0x3A948, symSize: 0x108 }
  - { offsetInCU: 0x2CFA3, offset: 0x1E231F, size: 0x8, addend: 0x0, symName: __ZNK3tns11GlobalTableILNS_15GlobalTableTypeE0EE8findMetaEPKcb, symObjAddr: 0x4804, symBinAddr: 0x36FF8, symSize: 0x54 }
  - { offsetInCU: 0x2D031, offset: 0x1E23AD, size: 0x8, addend: 0x0, symName: __ZNK3tns11GlobalTableILNS_15GlobalTableTypeE1EE8findMetaEPKcb, symObjAddr: 0x4858, symBinAddr: 0x3704C, symSize: 0x54 }
  - { offsetInCU: 0x2D0C5, offset: 0x1E2441, size: 0x8, addend: 0x0, symName: __ZN10robin_hood6detail5TableILb1ELm80ENSt3__112basic_stringIcNS2_11char_traitsIcEENS2_9allocatorIcEEEEPKN3tns4MetaENS_4hashIS8_vEENS2_8equal_toIS8_EEEixISC_EENS2_9enable_ifIXntsr3std7is_voidIT_EE5valueERSK_E4typeERKS8_, symObjAddr: 0x8B14, symBinAddr: 0x39FF4, symSize: 0x110 }
  - { offsetInCU: 0x2D807, offset: 0x1E2B83, size: 0x8, addend: 0x0, symName: __ZN3tns12ArgConverter15ConstructObjectEN2v85LocalINS1_7ContextEEERKNS1_20FunctionCallbackInfoINS1_5ValueEEEP10objc_classPKNS_13InterfaceMetaE, symObjAddr: 0x2B60, symBinAddr: 0x353A4, symSize: 0x36C }
  - { offsetInCU: 0x2E43C, offset: 0x1E37B8, size: 0x8, addend: 0x0, symName: __ZN3tns12ArgConverter15FindInitializerEN2v85LocalINS1_7ContextEEEP10objc_classPKNS_13InterfaceMetaERKNS1_20FunctionCallbackInfoINS1_5ValueEEERNSt3__16vectorINS2_ISB_EENSF_9allocatorISH_EEEE, symObjAddr: 0x3190, symBinAddr: 0x359D4, symSize: 0x7F8 }
  - { offsetInCU: 0x30EC5, offset: 0x1E6241, size: 0x8, addend: 0x0, symName: __ZN3tns12ArgConverter15GetInitializersEPNS_6CachesEP10objc_classPKNS_13InterfaceMetaE, symObjAddr: 0x3E5C, symBinAddr: 0x366A0, symSize: 0xF0 }
  - { offsetInCU: 0x312A6, offset: 0x1E6622, size: 0x8, addend: 0x0, symName: __ZN3tns12ArgConverter9CanInvokeEN2v85LocalINS1_7ContextEEEPKNS_10MethodMetaERKNS1_20FunctionCallbackInfoINS1_5ValueEEE, symObjAddr: 0x3F4C, symBinAddr: 0x36790, symSize: 0x168 }
  - { offsetInCU: 0x318A3, offset: 0x1E6C1F, size: 0x8, addend: 0x0, symName: __ZNK3tns13InterfaceMeta8baseMetaEv, symObjAddr: 0x40B4, symBinAddr: 0x368F8, symSize: 0x48 }
  - { offsetInCU: 0x3190B, offset: 0x1E6C87, size: 0x8, addend: 0x0, symName: __ZNSt3__16vectorIN2v85LocalINS1_5ValueEEENS_9allocatorIS4_EEE18__assign_with_sizeB8ue170006IPS4_S9_EEvT_T0_l, symObjAddr: 0x88A8, symBinAddr: 0x39DD4, symSize: 0x108 }
  - { offsetInCU: 0x31F85, offset: 0x1E7301, size: 0x8, addend: 0x0, symName: __ZNSt3__16vectorIN2v85LocalINS1_5ValueEEENS_9allocatorIS4_EEE11__vallocateB8ue170006Em, symObjAddr: 0x89B0, symBinAddr: 0x39EDC, symSize: 0x40 }
  - { offsetInCU: 0x31FA2, offset: 0x1E731E, size: 0x8, addend: 0x0, symName: __ZN3tns12ArgConverter18GetInitializerArgsEN2v85LocalINS1_6ObjectEEERNSt3__112basic_stringIcNS5_11char_traitsIcEENS5_9allocatorIcEEEE, symObjAddr: 0x3AC0, symBinAddr: 0x36304, symSize: 0x39C }
  - { offsetInCU: 0x33247, offset: 0x1E85C3, size: 0x8, addend: 0x0, symName: __ZNSt3__118basic_stringstreamIcNS_11char_traitsIcEENS_9allocatorIcEEEC1B8ue170006Ev, symObjAddr: 0x40FC, symBinAddr: 0x36940, symSize: 0xE8 }
  - { offsetInCU: 0x3331D, offset: 0x1E8699, size: 0x8, addend: 0x0, symName: __ZNSt3__118basic_stringstreamIcNS_11char_traitsIcEENS_9allocatorIcEEED1Ev, symObjAddr: 0x41E4, symBinAddr: 0x36A28, symSize: 0x94 }
  - { offsetInCU: 0x33831, offset: 0x1E8BAD, size: 0x8, addend: 0x0, symName: __ZN10robin_hood6detail5TableILb1ELm80EP11objc_objectNSt3__110shared_ptrIN2v810PersistentINS6_5ValueENS6_27NonCopyablePersistentTraitsIS8_EEEEEENS_4hashIS3_vEENS4_8equal_toIS3_EEE25insertKeyPrepareEmptySpotIRKS3_EENS4_4pairImNSH_14InsertionStateEEEOT_, symObjAddr: 0x8034, symBinAddr: 0x39560, symSize: 0x1A0 }
  - { offsetInCU: 0x33A7F, offset: 0x1E8DFB, size: 0x8, addend: 0x0, symName: __ZNK10robin_hood6detail5TableILb1ELm80EP11objc_objectNSt3__110shared_ptrIN2v810PersistentINS6_5ValueENS6_27NonCopyablePersistentTraitsIS8_EEEEEENS_4hashIS3_vEENS4_8equal_toIS3_EEE18throwOverflowErrorEv, symObjAddr: 0x81D4, symBinAddr: 0x39700, symSize: 0x50 }
  - { offsetInCU: 0x33CC0, offset: 0x1E903C, size: 0x8, addend: 0x0, symName: __ZNK10robin_hood6detail5TableILb1ELm80EPKN3tns13InterfaceMetaENSt3__16vectorIPKNS2_10MethodMetaENS6_9allocatorISA_EEEENS_4hashIS5_vEENS6_8equal_toIS5_EEE7findIdxIS5_EEmRKT_, symObjAddr: 0x9AD4, symBinAddr: 0x3AF00, symSize: 0xD8 }
  - { offsetInCU: 0x33D19, offset: 0x1E9095, size: 0x8, addend: 0x0, symName: __ZNK10robin_hood6detail5TableILb1ELm80EPKN3tns13InterfaceMetaENSt3__16vectorIPKNS2_10MethodMetaENS6_9allocatorISA_EEEENS_4hashIS5_vEENS6_8equal_toIS5_EEE7findIdxIS5_EEmRKT_, symObjAddr: 0x9AD4, symBinAddr: 0x3AF00, symSize: 0xD8 }
  - { offsetInCU: 0x33E4A, offset: 0x1E91C6, size: 0x8, addend: 0x0, symName: __ZNSt3__16vectorIPKN3tns10MethodMetaENS_9allocatorIS4_EEE16__init_with_sizeB8ue170006IPS4_S9_EEvT_T0_m, symObjAddr: 0x9BAC, symBinAddr: 0x3AFD8, symSize: 0x78 }
  - { offsetInCU: 0x3425F, offset: 0x1E95DB, size: 0x8, addend: 0x0, symName: __ZNK3tns13BaseClassMeta25initializersWithProtocolsENS_21KnownUnknownClassPairERKNSt3__16vectorIPKNS_12ProtocolMetaENS2_9allocatorIS6_EEEE, symObjAddr: 0x5438, symBinAddr: 0x37BD0, symSize: 0x68 }
  - { offsetInCU: 0x345A7, offset: 0x1E9923, size: 0x8, addend: 0x0, symName: __ZN10robin_hood6detail5TableILb1ELm80EPKN3tns13InterfaceMetaENSt3__16vectorIPKNS2_10MethodMetaENS6_9allocatorISA_EEEENS_4hashIS5_vEENS6_8equal_toIS5_EEE7emplaceIJRS5_RSD_EEENS6_4pairINSI_4IterILb0EEEbEEDpOT_, symObjAddr: 0x54A0, symBinAddr: 0x37C38, symSize: 0x158 }
  - { offsetInCU: 0x34DBA, offset: 0x1EA136, size: 0x8, addend: 0x0, symName: __ZN3tns12ArgConverter9CanInvokeEN2v85LocalINS1_7ContextEEEPKNS_12TypeEncodingENS2_INS1_5ValueEEE, symObjAddr: 0x4278, symBinAddr: 0x36ABC, symSize: 0x2D4 }
  - { offsetInCU: 0x355C2, offset: 0x1EA93E, size: 0x8, addend: 0x0, symName: __ZNK3tns11GlobalTableILNS_15GlobalTableTypeE0EE17findInterfaceMetaEPKc, symObjAddr: 0x6E54, symBinAddr: 0x38AD0, symSize: 0x4C }
  - { offsetInCU: 0x356DD, offset: 0x1EAA59, size: 0x8, addend: 0x0, symName: __ZN3tns12ArgConverter19CreateEmptyInstanceEN2v85LocalINS1_7ContextEEEPNS1_10PersistentINS1_8FunctionENS1_27NonCopyablePersistentTraitsIS6_EEEEb, symObjAddr: 0x4C78, symBinAddr: 0x3746C, symSize: 0x154 }
  - { offsetInCU: 0x35BE0, offset: 0x1EAF5C, size: 0x8, addend: 0x0, symName: __ZN3WTF12StringHasher26computeHashAndMaskTop8BitsIcXadL_ZNS0_16defaultConverterEcEEEEjPKT_, symObjAddr: 0x6F94, symBinAddr: 0x38C10, symSize: 0x4C }
  - { offsetInCU: 0x35C9C, offset: 0x1EB018, size: 0x8, addend: 0x0, symName: __ZNK3tns11GlobalTableILNS_15GlobalTableTypeE0EE8findMetaEPKcmjb, symObjAddr: 0x7094, symBinAddr: 0x38D10, symSize: 0x16C }
  - { offsetInCU: 0x3625A, offset: 0x1EB5D6, size: 0x8, addend: 0x0, symName: __ZNK3tns11GlobalTableILNS_15GlobalTableTypeE1EE8findMetaEPKcmjb, symObjAddr: 0x9570, symBinAddr: 0x3AA50, symSize: 0x16C }
  - { offsetInCU: 0x36989, offset: 0x1EBD05, size: 0x8, addend: 0x0, symName: __ZN3tns12ArgConverter16FindProtocolMetaEP8Protocol, symObjAddr: 0x48AC, symBinAddr: 0x370A0, symSize: 0x3CC }
  - { offsetInCU: 0x384D6, offset: 0x1ED852, size: 0x8, addend: 0x0, symName: __ZNSt3__115allocate_sharedB8ue170006IN2v810PersistentINS1_5ValueENS1_27NonCopyablePersistentTraitsIS3_EEEENS_9allocatorIS6_EEJRPNS1_7IsolateERNS1_5LocalINS1_6ObjectEEEEvEENS_10shared_ptrIT_EERKT0_DpOT1_, symObjAddr: 0x998C, symBinAddr: 0x3ADF8, symSize: 0x60 }
  - { offsetInCU: 0x3874F, offset: 0x1EDACB, size: 0x8, addend: 0x0, symName: __ZN3tns12ArgConverter29IndexedPropertyGetterCallbackEjRKN2v820PropertyCallbackInfoINS1_5ValueEEE, symObjAddr: 0x4E28, symBinAddr: 0x375C0, symSize: 0x4E8 }
  - { offsetInCU: 0x396D1, offset: 0x1EEA4D, size: 0x8, addend: 0x0, symName: __ZN3tns12ArgConverter29IndexedPropertySetterCallbackEjN2v85LocalINS1_5ValueEEERKNS1_20PropertyCallbackInfoIS3_EE, symObjAddr: 0x5310, symBinAddr: 0x37AA8, symSize: 0xB0 }
  - { offsetInCU: 0x39C24, offset: 0x1EEFA0, size: 0x8, addend: 0x0, symName: __ZN10robin_hood6detail5TableILb1ELm80EPKN3tns13InterfaceMetaENSt3__16vectorIPKNS2_10MethodMetaENS6_9allocatorISA_EEEENS_4hashIS5_vEENS6_8equal_toIS5_EEE25insertKeyPrepareEmptySpotIRKS5_EENS6_4pairImNSI_14InsertionStateEEEOT_, symObjAddr: 0x9C64, symBinAddr: 0x3B090, symSize: 0x194 }
  - { offsetInCU: 0x39DB2, offset: 0x1EF12E, size: 0x8, addend: 0x0, symName: __ZNK10robin_hood6detail5TableILb1ELm80EPKN3tns13InterfaceMetaENSt3__16vectorIPKNS2_10MethodMetaENS6_9allocatorISA_EEEENS_4hashIS5_vEENS6_8equal_toIS5_EEE18throwOverflowErrorEv, symObjAddr: 0x9DF8, symBinAddr: 0x3B224, symSize: 0x50 }
  - { offsetInCU: 0x3A3FD, offset: 0x1EF779, size: 0x8, addend: 0x0, symName: __ZNK10robin_hood6detail5TableILb1ELm80EPKN3tns10MethodMetaEP13objc_selectorNS_4hashIS5_vEENSt3__18equal_toIS5_EEE7findIdxIS5_EEmRKT_, symObjAddr: 0x6138, symBinAddr: 0x38238, symSize: 0xD8 }
  - { offsetInCU: 0x3A456, offset: 0x1EF7D2, size: 0x8, addend: 0x0, symName: __ZNK10robin_hood6detail5TableILb1ELm80EPKN3tns10MethodMetaEP13objc_selectorNS_4hashIS5_vEENSt3__18equal_toIS5_EEE7findIdxIS5_EEmRKT_, symObjAddr: 0x6138, symBinAddr: 0x38238, symSize: 0xD8 }
  - { offsetInCU: 0x3A59E, offset: 0x1EF91A, size: 0x8, addend: 0x0, symName: __ZN10robin_hood6detail5TableILb1ELm80EPKN3tns10MethodMetaEP13objc_selectorNS_4hashIS5_vEENSt3__18equal_toIS5_EEE7emplaceIJS5_RS7_EEENSA_4pairINSD_4IterILb0EEEbEEDpOT_, symObjAddr: 0x60A4, symBinAddr: 0x381A4, symSize: 0x94 }
  - { offsetInCU: 0x3A79A, offset: 0x1EFB16, size: 0x8, addend: 0x0, symName: __ZN10robin_hood6detail5TableILb1ELm80EPKN3tns10MethodMetaEP13objc_selectorNS_4hashIS5_vEENSt3__18equal_toIS5_EEED1Ev, symObjAddr: 0x6064, symBinAddr: 0x38164, symSize: 0x40 }
  - { offsetInCU: 0x3A9F5, offset: 0x1EFD71, size: 0x8, addend: 0x0, symName: __ZN10robin_hood6detail5TableILb1ELm80EPKN3tns10MethodMetaEP13objc_selectorNS_4hashIS5_vEENSt3__18equal_toIS5_EEE25insertKeyPrepareEmptySpotIRKS5_EENSA_4pairImNSD_14InsertionStateEEEOT_, symObjAddr: 0x6210, symBinAddr: 0x38310, symSize: 0x194 }
  - { offsetInCU: 0x3AB83, offset: 0x1EFEFF, size: 0x8, addend: 0x0, symName: __ZNK10robin_hood6detail5TableILb1ELm80EPKN3tns10MethodMetaEP13objc_selectorNS_4hashIS5_vEENSt3__18equal_toIS5_EEE18throwOverflowErrorEv, symObjAddr: 0x63A4, symBinAddr: 0x384A4, symSize: 0x50 }
  - { offsetInCU: 0x3ACC4, offset: 0x1F0040, size: 0x8, addend: 0x0, symName: __ZN10robin_hood6detail5TableILb1ELm80EPKN3tns10MethodMetaEP13objc_selectorNS_4hashIS5_vEENSt3__18equal_toIS5_EEE13increase_sizeEv, symObjAddr: 0x63F4, symBinAddr: 0x384F4, symSize: 0x12C }
  - { offsetInCU: 0x3AD87, offset: 0x1F0103, size: 0x8, addend: 0x0, symName: __ZN10robin_hood6detail5TableILb1ELm80EPKN3tns10MethodMetaEP13objc_selectorNS_4hashIS5_vEENSt3__18equal_toIS5_EEE7shiftUpEmm, symObjAddr: 0x6520, symBinAddr: 0x38620, symSize: 0x98 }
  - { offsetInCU: 0x3AE4A, offset: 0x1F01C6, size: 0x8, addend: 0x0, symName: __ZN10robin_hood6detail5TableILb1ELm80EPKN3tns10MethodMetaEP13objc_selectorNS_4hashIS5_vEENSt3__18equal_toIS5_EEE17try_increase_infoEv, symObjAddr: 0x6684, symBinAddr: 0x38784, symSize: 0x100 }
  - { offsetInCU: 0x3AF47, offset: 0x1F02C3, size: 0x8, addend: 0x0, symName: __ZN10robin_hood6detail5TableILb1ELm80EPKN3tns10MethodMetaEP13objc_selectorNS_4hashIS5_vEENSt3__18equal_toIS5_EEE8initDataEm, symObjAddr: 0x65B8, symBinAddr: 0x386B8, symSize: 0xCC }
  - { offsetInCU: 0x3B054, offset: 0x1F03D0, size: 0x8, addend: 0x0, symName: __ZN10robin_hood6detail5TableILb1ELm80EPKN3tns10MethodMetaEP13objc_selectorNS_4hashIS5_vEENSt3__18equal_toIS5_EEE17try_increase_infoEv, symObjAddr: 0x6684, symBinAddr: 0x38784, symSize: 0x100 }
  - { offsetInCU: 0x3B05F, offset: 0x1F03DB, size: 0x8, addend: 0x0, symName: __ZN10robin_hood6detail5TableILb1ELm80EPKN3tns10MethodMetaEP13objc_selectorNS_4hashIS5_vEENSt3__18equal_toIS5_EEE16rehashPowerOfTwoEmb, symObjAddr: 0x6784, symBinAddr: 0x38884, symSize: 0xF0 }
  - { offsetInCU: 0x3B1D1, offset: 0x1F054D, size: 0x8, addend: 0x0, symName: __ZN10robin_hood6detail5TableILb1ELm80EPKN3tns10MethodMetaEP13objc_selectorNS_4hashIS5_vEENSt3__18equal_toIS5_EEE11insert_moveEONSD_8DataNodeISD_Lb1EEE, symObjAddr: 0x689C, symBinAddr: 0x38974, symSize: 0x128 }
  - { offsetInCU: 0x3B361, offset: 0x1F06DD, size: 0x8, addend: 0x0, symName: __ZN3tns15ObjCDataWrapperD1Ev, symObjAddr: 0x69E8, symBinAddr: 0x38A9C, symSize: 0x4 }
  - { offsetInCU: 0x3B38D, offset: 0x1F0709, size: 0x8, addend: 0x0, symName: __ZN3tns15ObjCDataWrapperD0Ev, symObjAddr: 0x69EC, symBinAddr: 0x38AA0, symSize: 0x4 }
  - { offsetInCU: 0x3B3B9, offset: 0x1F0735, size: 0x8, addend: 0x0, symName: __ZN3tns15ObjCDataWrapper4TypeEv, symObjAddr: 0x69F0, symBinAddr: 0x38AA4, symSize: 0x8 }
  - { offsetInCU: 0x3BD16, offset: 0x1F1092, size: 0x8, addend: 0x0, symName: __ZNK3tns12V8VectorArgsixEi, symObjAddr: 0x6E30, symBinAddr: 0x38AAC, symSize: 0x10 }
  - { offsetInCU: 0x3BD66, offset: 0x1F10E2, size: 0x8, addend: 0x0, symName: __ZNK3tns12V8VectorArgs6LengthEv, symObjAddr: 0x6E40, symBinAddr: 0x38ABC, symSize: 0x14 }
  - { offsetInCU: 0x3BDAB, offset: 0x1F1127, size: 0x8, addend: 0x0, symName: __ZNK3tns11GlobalTableILNS_15GlobalTableTypeE0EE17findInterfaceMetaEPKcmj, symObjAddr: 0x6EA0, symBinAddr: 0x38B1C, symSize: 0xF4 }
  - { offsetInCU: 0x3C214, offset: 0x1F1590, size: 0x8, addend: 0x0, symName: __ZN3WTF12StringHasher28addCharactersAssumingAlignedIcXadL_ZNS0_16defaultConverterEcEEEEvPKT_, symObjAddr: 0x6FE0, symBinAddr: 0x38C5C, symSize: 0x80 }
  - { offsetInCU: 0x3C303, offset: 0x1F167F, size: 0x8, addend: 0x0, symName: __ZNK3WTF12StringHasher13avalancheBitsEv, symObjAddr: 0x7060, symBinAddr: 0x38CDC, symSize: 0x34 }
  - { offsetInCU: 0x3C464, offset: 0x1F17E0, size: 0x8, addend: 0x0, symName: __ZN3tns11GlobalTableILNS_15GlobalTableTypeE0EE11compareNameERKNS_4MetaEPKcm, symObjAddr: 0x7200, symBinAddr: 0x38E7C, symSize: 0x120 }
  - { offsetInCU: 0x3C80D, offset: 0x1F1B89, size: 0x8, addend: 0x0, symName: __ZThn16_NSt3__118basic_stringstreamIcNS_11char_traitsIcEENS_9allocatorIcEEED1Ev, symObjAddr: 0x7320, symBinAddr: 0x38F9C, symSize: 0x8C }
  - { offsetInCU: 0x3C9B3, offset: 0x1F1D2F, size: 0x8, addend: 0x0, symName: __ZTv0_n24_NSt3__118basic_stringstreamIcNS_11char_traitsIcEENS_9allocatorIcEEED1Ev, symObjAddr: 0x73AC, symBinAddr: 0x39028, symSize: 0x94 }
  - { offsetInCU: 0x3CB57, offset: 0x1F1ED3, size: 0x8, addend: 0x0, symName: __ZNSt3__118basic_stringstreamIcNS_11char_traitsIcEENS_9allocatorIcEEED0Ev, symObjAddr: 0x7440, symBinAddr: 0x390BC, symSize: 0x94 }
  - { offsetInCU: 0x3CD20, offset: 0x1F209C, size: 0x8, addend: 0x0, symName: __ZThn16_NSt3__118basic_stringstreamIcNS_11char_traitsIcEENS_9allocatorIcEEED0Ev, symObjAddr: 0x74D4, symBinAddr: 0x39150, symSize: 0x94 }
  - { offsetInCU: 0x3CEE4, offset: 0x1F2260, size: 0x8, addend: 0x0, symName: __ZTv0_n24_NSt3__118basic_stringstreamIcNS_11char_traitsIcEENS_9allocatorIcEEED0Ev, symObjAddr: 0x7568, symBinAddr: 0x391E4, symSize: 0x9C }
  - { offsetInCU: 0x3D0A4, offset: 0x1F2420, size: 0x8, addend: 0x0, symName: __ZN3tns16ObjCClassWrapperD1Ev, symObjAddr: 0x7604, symBinAddr: 0x39280, symSize: 0x4 }
  - { offsetInCU: 0x3D0D0, offset: 0x1F244C, size: 0x8, addend: 0x0, symName: __ZN3tns16ObjCClassWrapperD0Ev, symObjAddr: 0x7608, symBinAddr: 0x39284, symSize: 0x4 }
  - { offsetInCU: 0x3D0FC, offset: 0x1F2478, size: 0x8, addend: 0x0, symName: __ZN3tns16ObjCClassWrapper4TypeEv, symObjAddr: 0x760C, symBinAddr: 0x39288, symSize: 0x8 }
  - { offsetInCU: 0x3D375, offset: 0x1F26F1, size: 0x8, addend: 0x0, symName: __ZNK10robin_hood4hashINSt3__112basic_stringIcNS1_11char_traitsIcEENS1_9allocatorIcEEEEvEclERKS7_, symObjAddr: 0x7A0C, symBinAddr: 0x39438, symSize: 0xE0 }
  - { offsetInCU: 0x3D484, offset: 0x1F2800, size: 0x8, addend: 0x0, symName: __ZNKSt3__18equal_toINS_12basic_stringIcNS_11char_traitsIcEENS_9allocatorIcEEEEEclB8ue170006ERKS6_S9_, symObjAddr: 0x796C, symBinAddr: 0x39398, symSize: 0xA0 }
  - { offsetInCU: 0x3DB1D, offset: 0x1F2E99, size: 0x8, addend: 0x0, symName: __ZNKSt3__16vectorIN2v85LocalINS1_5ValueEEENS_9allocatorIS4_EEE20__throw_length_errorB8ue170006Ev, symObjAddr: 0x7F04, symBinAddr: 0x39518, symSize: 0x14 }
  - { offsetInCU: 0x3DC68, offset: 0x1F2FE4, size: 0x8, addend: 0x0, symName: __ZN10robin_hood6detail5TableILb1ELm80EP11objc_objectNSt3__110shared_ptrIN2v810PersistentINS6_5ValueENS6_27NonCopyablePersistentTraitsIS8_EEEEEENS_4hashIS3_vEENS4_8equal_toIS3_EEE13increase_sizeEv, symObjAddr: 0x8224, symBinAddr: 0x39750, symSize: 0x12C }
  - { offsetInCU: 0x3DD2B, offset: 0x1F30A7, size: 0x8, addend: 0x0, symName: __ZN10robin_hood6detail5TableILb1ELm80EP11objc_objectNSt3__110shared_ptrIN2v810PersistentINS6_5ValueENS6_27NonCopyablePersistentTraitsIS8_EEEEEENS_4hashIS3_vEENS4_8equal_toIS3_EEE7shiftUpEmm, symObjAddr: 0x8350, symBinAddr: 0x3987C, symSize: 0xEC }
  - { offsetInCU: 0x3DEC8, offset: 0x1F3244, size: 0x8, addend: 0x0, symName: __ZN10robin_hood6detail5TableILb1ELm80EP11objc_objectNSt3__110shared_ptrIN2v810PersistentINS6_5ValueENS6_27NonCopyablePersistentTraitsIS8_EEEEEENS_4hashIS3_vEENS4_8equal_toIS3_EEE17try_increase_infoEv, symObjAddr: 0x8518, symBinAddr: 0x39A44, symSize: 0x100 }
  - { offsetInCU: 0x3DFC5, offset: 0x1F3341, size: 0x8, addend: 0x0, symName: __ZN10robin_hood6detail5TableILb1ELm80EP11objc_objectNSt3__110shared_ptrIN2v810PersistentINS6_5ValueENS6_27NonCopyablePersistentTraitsIS8_EEEEEENS_4hashIS3_vEENS4_8equal_toIS3_EEE8initDataEm, symObjAddr: 0x843C, symBinAddr: 0x39968, symSize: 0xDC }
  - { offsetInCU: 0x3E0D2, offset: 0x1F344E, size: 0x8, addend: 0x0, symName: __ZN10robin_hood6detail5TableILb1ELm80EP11objc_objectNSt3__110shared_ptrIN2v810PersistentINS6_5ValueENS6_27NonCopyablePersistentTraitsIS8_EEEEEENS_4hashIS3_vEENS4_8equal_toIS3_EEE17try_increase_infoEv, symObjAddr: 0x8518, symBinAddr: 0x39A44, symSize: 0x100 }
  - { offsetInCU: 0x3E0DD, offset: 0x1F3459, size: 0x8, addend: 0x0, symName: __ZN10robin_hood6detail5TableILb1ELm80EP11objc_objectNSt3__110shared_ptrIN2v810PersistentINS6_5ValueENS6_27NonCopyablePersistentTraitsIS8_EEEEEENS_4hashIS3_vEENS4_8equal_toIS3_EEE16rehashPowerOfTwoEmb, symObjAddr: 0x8618, symBinAddr: 0x39B44, symSize: 0xF8 }
  - { offsetInCU: 0x3E327, offset: 0x1F36A3, size: 0x8, addend: 0x0, symName: __ZN10robin_hood6detail5TableILb1ELm80EP11objc_objectNSt3__110shared_ptrIN2v810PersistentINS6_5ValueENS6_27NonCopyablePersistentTraitsIS8_EEEEEENS_4hashIS3_vEENS4_8equal_toIS3_EEE11insert_moveEONSH_8DataNodeISH_Lb1EEE, symObjAddr: 0x8710, symBinAddr: 0x39C3C, symSize: 0x150 }
  - { offsetInCU: 0x3E704, offset: 0x1F3A80, size: 0x8, addend: 0x0, symName: __ZNSt3__16vectorIN2v85LocalINS1_5ValueEEENS_9allocatorIS4_EEE11__vallocateB8ue170006Em, symObjAddr: 0x89B0, symBinAddr: 0x39EDC, symSize: 0x40 }
  - { offsetInCU: 0x3EB94, offset: 0x1F3F10, size: 0x8, addend: 0x0, symName: __ZN10robin_hood6detail5TableILb1ELm80ENSt3__112basic_stringIcNS2_11char_traitsIcEENS2_9allocatorIcEEEEPKN3tns4MetaENS_4hashIS8_vEENS2_8equal_toIS8_EEE25insertKeyPrepareEmptySpotIRKS8_EENS2_4pairImNSH_14InsertionStateEEEOT_, symObjAddr: 0x8C24, symBinAddr: 0x3A104, symSize: 0x188 }
  - { offsetInCU: 0x3ECD0, offset: 0x1F404C, size: 0x8, addend: 0x0, symName: __ZNK10robin_hood6detail5TableILb1ELm80ENSt3__112basic_stringIcNS2_11char_traitsIcEENS2_9allocatorIcEEEEPKN3tns4MetaENS_4hashIS8_vEENS2_8equal_toIS8_EEE18throwOverflowErrorEv, symObjAddr: 0x8DAC, symBinAddr: 0x3A28C, symSize: 0x50 }
  - { offsetInCU: 0x3EDB5, offset: 0x1F4131, size: 0x8, addend: 0x0, symName: __ZN10robin_hood6detail5TableILb1ELm80ENSt3__112basic_stringIcNS2_11char_traitsIcEENS2_9allocatorIcEEEEPKN3tns4MetaENS_4hashIS8_vEENS2_8equal_toIS8_EEE13increase_sizeEv, symObjAddr: 0x8DFC, symBinAddr: 0x3A2DC, symSize: 0x12C }
  - { offsetInCU: 0x3EE78, offset: 0x1F41F4, size: 0x8, addend: 0x0, symName: __ZN10robin_hood6detail5TableILb1ELm80ENSt3__112basic_stringIcNS2_11char_traitsIcEENS2_9allocatorIcEEEEPKN3tns4MetaENS_4hashIS8_vEENS2_8equal_toIS8_EEE7shiftUpEmm, symObjAddr: 0x8F28, symBinAddr: 0x3A408, symSize: 0x118 }
  - { offsetInCU: 0x3F0E3, offset: 0x1F445F, size: 0x8, addend: 0x0, symName: __ZN10robin_hood6detail5TableILb1ELm80ENSt3__112basic_stringIcNS2_11char_traitsIcEENS2_9allocatorIcEEEEPKN3tns4MetaENS_4hashIS8_vEENS2_8equal_toIS8_EEE17try_increase_infoEv, symObjAddr: 0x910C, symBinAddr: 0x3A5EC, symSize: 0x100 }
  - { offsetInCU: 0x3F1E0, offset: 0x1F455C, size: 0x8, addend: 0x0, symName: __ZN10robin_hood6detail5TableILb1ELm80ENSt3__112basic_stringIcNS2_11char_traitsIcEENS2_9allocatorIcEEEEPKN3tns4MetaENS_4hashIS8_vEENS2_8equal_toIS8_EEE8initDataEm, symObjAddr: 0x9040, symBinAddr: 0x3A520, symSize: 0xCC }
  - { offsetInCU: 0x3F2ED, offset: 0x1F4669, size: 0x8, addend: 0x0, symName: __ZN10robin_hood6detail5TableILb1ELm80ENSt3__112basic_stringIcNS2_11char_traitsIcEENS2_9allocatorIcEEEEPKN3tns4MetaENS_4hashIS8_vEENS2_8equal_toIS8_EEE17try_increase_infoEv, symObjAddr: 0x910C, symBinAddr: 0x3A5EC, symSize: 0x100 }
  - { offsetInCU: 0x3F2F8, offset: 0x1F4674, size: 0x8, addend: 0x0, symName: __ZN10robin_hood6detail5TableILb1ELm80ENSt3__112basic_stringIcNS2_11char_traitsIcEENS2_9allocatorIcEEEEPKN3tns4MetaENS_4hashIS8_vEENS2_8equal_toIS8_EEE16rehashPowerOfTwoEmb, symObjAddr: 0x920C, symBinAddr: 0x3A6EC, symSize: 0x100 }
  - { offsetInCU: 0x3F66A, offset: 0x1F49E6, size: 0x8, addend: 0x0, symName: __ZN10robin_hood6detail5TableILb1ELm80ENSt3__112basic_stringIcNS2_11char_traitsIcEENS2_9allocatorIcEEEEPKN3tns4MetaENS_4hashIS8_vEENS2_8equal_toIS8_EEE11insert_moveEONSH_8DataNodeISH_Lb1EEE, symObjAddr: 0x930C, symBinAddr: 0x3A7EC, symSize: 0x15C }
  - { offsetInCU: 0x3FA3C, offset: 0x1F4DB8, size: 0x8, addend: 0x0, symName: __ZN3tns11GlobalTableILNS_15GlobalTableTypeE1EE11compareNameERKNS_4MetaEPKcm, symObjAddr: 0x96DC, symBinAddr: 0x3ABBC, symSize: 0x23C }
  - { offsetInCU: 0x4039C, offset: 0x1F5718, size: 0x8, addend: 0x0, symName: __ZNSt3__120__shared_ptr_emplaceIN2v810PersistentINS1_5ValueENS1_27NonCopyablePersistentTraitsIS3_EEEENS_9allocatorIS6_EEEC2B8ue170006IJRPNS1_7IsolateERNS1_5LocalINS1_6ObjectEEEEEES8_DpOT_, symObjAddr: 0x99EC, symBinAddr: 0x3AE58, symSize: 0x68 }
  - { offsetInCU: 0x4085A, offset: 0x1F5BD6, size: 0x8, addend: 0x0, symName: __ZNSt3__16vectorIPKN3tns10MethodMetaENS_9allocatorIS4_EEE11__vallocateB8ue170006Em, symObjAddr: 0x9C24, symBinAddr: 0x3B050, symSize: 0x40 }
  - { offsetInCU: 0x408CD, offset: 0x1F5C49, size: 0x8, addend: 0x0, symName: __ZN10robin_hood6detail5TableILb1ELm80EPKN3tns13InterfaceMetaENSt3__16vectorIPKNS2_10MethodMetaENS6_9allocatorISA_EEEENS_4hashIS5_vEENS6_8equal_toIS5_EEE25insertKeyPrepareEmptySpotIRKS5_EENS6_4pairImNSI_14InsertionStateEEEOT_, symObjAddr: 0x9C64, symBinAddr: 0x3B090, symSize: 0x194 }
  - { offsetInCU: 0x4091C, offset: 0x1F5C98, size: 0x8, addend: 0x0, symName: __ZN10robin_hood6detail5TableILb1ELm80EPKN3tns13InterfaceMetaENSt3__16vectorIPKNS2_10MethodMetaENS6_9allocatorISA_EEEENS_4hashIS5_vEENS6_8equal_toIS5_EEE13increase_sizeEv, symObjAddr: 0x9E48, symBinAddr: 0x3B274, symSize: 0x12C }
  - { offsetInCU: 0x409DF, offset: 0x1F5D5B, size: 0x8, addend: 0x0, symName: __ZN10robin_hood6detail5TableILb1ELm80EPKN3tns13InterfaceMetaENSt3__16vectorIPKNS2_10MethodMetaENS6_9allocatorISA_EEEENS_4hashIS5_vEENS6_8equal_toIS5_EEE7shiftUpEmm, symObjAddr: 0x9F74, symBinAddr: 0x3B3A0, symSize: 0xF4 }
  - { offsetInCU: 0x40B9C, offset: 0x1F5F18, size: 0x8, addend: 0x0, symName: __ZN10robin_hood6detail5TableILb1ELm80EPKN3tns13InterfaceMetaENSt3__16vectorIPKNS2_10MethodMetaENS6_9allocatorISA_EEEENS_4hashIS5_vEENS6_8equal_toIS5_EEE17try_increase_infoEv, symObjAddr: 0xA134, symBinAddr: 0x3B560, symSize: 0x100 }
  - { offsetInCU: 0x40C99, offset: 0x1F6015, size: 0x8, addend: 0x0, symName: __ZN10robin_hood6detail5TableILb1ELm80EPKN3tns13InterfaceMetaENSt3__16vectorIPKNS2_10MethodMetaENS6_9allocatorISA_EEEENS_4hashIS5_vEENS6_8equal_toIS5_EEE8initDataEm, symObjAddr: 0xA068, symBinAddr: 0x3B494, symSize: 0xCC }
  - { offsetInCU: 0x40DA6, offset: 0x1F6122, size: 0x8, addend: 0x0, symName: __ZN10robin_hood6detail5TableILb1ELm80EPKN3tns13InterfaceMetaENSt3__16vectorIPKNS2_10MethodMetaENS6_9allocatorISA_EEEENS_4hashIS5_vEENS6_8equal_toIS5_EEE17try_increase_infoEv, symObjAddr: 0xA134, symBinAddr: 0x3B560, symSize: 0x100 }
  - { offsetInCU: 0x40DB1, offset: 0x1F612D, size: 0x8, addend: 0x0, symName: __ZN10robin_hood6detail5TableILb1ELm80EPKN3tns13InterfaceMetaENSt3__16vectorIPKNS2_10MethodMetaENS6_9allocatorISA_EEEENS_4hashIS5_vEENS6_8equal_toIS5_EEE16rehashPowerOfTwoEmb, symObjAddr: 0xA234, symBinAddr: 0x3B660, symSize: 0x100 }
  - { offsetInCU: 0x4109E, offset: 0x1F641A, size: 0x8, addend: 0x0, symName: __ZNSt3__16vectorIPKN3tns10MethodMetaENS_9allocatorIS4_EEE13__move_assignERS7_NS_17integral_constantIbLb1EEE, symObjAddr: 0xA490, symBinAddr: 0x3B8BC, symSize: 0x50 }
  - { offsetInCU: 0x4127C, offset: 0x1F65F8, size: 0x8, addend: 0x0, symName: __ZN10robin_hood6detail5TableILb1ELm80EPKN3tns13InterfaceMetaENSt3__16vectorIPKNS2_10MethodMetaENS6_9allocatorISA_EEEENS_4hashIS5_vEENS6_8equal_toIS5_EEE11insert_moveEONSI_8DataNodeISI_Lb1EEE, symObjAddr: 0xA334, symBinAddr: 0x3B760, symSize: 0x15C }
  - { offsetInCU: 0x53, offset: 0x1F698D, size: 0x8, addend: 0x0, symName: __ZN3tns6Worker15GlobalFunctionsE, symObjAddr: 0x28F2E8, symBinAddr: 0x15B2000, symSize: 0x0 }
  - { offsetInCU: 0xDFE3, offset: 0x20491D, size: 0x8, addend: 0x0, symName: __ZNSt3__115allocate_sharedB8ue170006IN3tns6worker7MessageENS_9allocatorIS3_EEJEvEENS_10shared_ptrIT_EERKT0_DpOT1_, symObjAddr: 0x3824, symBinAddr: 0x3EBAC, symSize: 0x48 }
  - { offsetInCU: 0xEA76, offset: 0x2053B0, size: 0x8, addend: 0x0, symName: __ZNSt3__115allocate_sharedB8ue170006IN3tns6Caches11WorkerStateENS_9allocatorIS3_EEJRPN2v87IsolateERNS_10shared_ptrINS6_10PersistentINS6_5ValueENS6_27NonCopyablePersistentTraitsISC_EEEEEERPNS1_13WorkerWrapperEEvEENSA_IT_EERKT0_DpOT1_, symObjAddr: 0x2B8C, symBinAddr: 0x3DF60, symSize: 0x70 }
  - { offsetInCU: 0xF053, offset: 0x20598D, size: 0x8, addend: 0x0, symName: __ZNSt3__135__uninitialized_allocator_copy_implB8ue170006INS_9allocatorINS_12basic_stringIcNS_11char_traitsIcEENS1_IcEEEEEEPKS6_S9_PS6_EET2_RT_T0_T1_SB_, symObjAddr: 0x257C, symBinAddr: 0x3D950, symSize: 0xBC }
  - { offsetInCU: 0x1782D, offset: 0x20E167, size: 0x8, addend: 0x0, symName: __ZN3tns6Worker19ConstructorCallbackERKN2v820FunctionCallbackInfoINS1_5ValueEEE, symObjAddr: 0xD64, symBinAddr: 0x3C670, symSize: 0x750 }
  - { offsetInCU: 0x193E3, offset: 0x20FD1D, size: 0x8, addend: 0x0, symName: __ZN3tns6Worker25PostMessageToMainCallbackERKN2v820FunctionCallbackInfoINS1_5ValueEEE, symObjAddr: 0x4B4, symBinAddr: 0x3BDC0, symSize: 0x604 }
  - { offsetInCU: 0x1CD65, offset: 0x21369F, size: 0x8, addend: 0x0, symName: __ZNSt3__16vectorINS_12basic_stringIcNS_11char_traitsIcEENS_9allocatorIcEEEENS4_IS6_EEED1B8ue170006Ev, symObjAddr: 0x0, symBinAddr: 0x3B90C, symSize: 0x34 }
  - { offsetInCU: 0x1D005, offset: 0x21393F, size: 0x8, addend: 0x0, symName: __ZN3tns6Worker4InitEPN2v87IsolateENS1_5LocalINS1_14ObjectTemplateEEE, symObjAddr: 0x34, symBinAddr: 0x3B940, symSize: 0xB8 }
  - { offsetInCU: 0x1D265, offset: 0x213B9F, size: 0x8, addend: 0x0, symName: __ZN3tns6Worker4InitEPN2v87IsolateENS1_5LocalINS1_14ObjectTemplateEEEb, symObjAddr: 0xEC, symBinAddr: 0x3B9F8, symSize: 0x3C8 }
  - { offsetInCU: 0x1E06D, offset: 0x2149A7, size: 0x8, addend: 0x0, symName: __ZNSt3__135__uninitialized_allocator_copy_implB8ue170006INS_9allocatorINS_12basic_stringIcNS_11char_traitsIcEENS1_IcEEEEEEPKS6_S9_PS6_EET2_RT_T0_T1_SB_, symObjAddr: 0x257C, symBinAddr: 0x3D950, symSize: 0xBC }
  - { offsetInCU: 0x1EAD8, offset: 0x215412, size: 0x8, addend: 0x0, symName: __ZN3tns6Worker11GetWorkerIdEPN2v87IsolateENS1_5LocalINS1_6ObjectEEE, symObjAddr: 0x1CA4, symBinAddr: 0x3D4E8, symSize: 0x11C }
  - { offsetInCU: 0x1EEC0, offset: 0x2157FA, size: 0x8, addend: 0x0, symName: __ZNK10robin_hood6detail5TableILb1ELm80EiNSt3__110shared_ptrIN3tns6Caches11WorkerStateEEENS_4hashIivEENS2_8equal_toIiEEE7findIdxIiEEmRKT_, symObjAddr: 0x373C, symBinAddr: 0x3EAC4, symSize: 0xE8 }
  - { offsetInCU: 0x1EF19, offset: 0x215853, size: 0x8, addend: 0x0, symName: __ZNK10robin_hood6detail5TableILb1ELm80EiNSt3__110shared_ptrIN3tns6Caches11WorkerStateEEENS_4hashIivEENS2_8equal_toIiEEE7findIdxIiEEmRKT_, symObjAddr: 0x373C, symBinAddr: 0x3EAC4, symSize: 0xE8 }
  - { offsetInCU: 0x1EF45, offset: 0x21587F, size: 0x8, addend: 0x0, symName: __ZNK10robin_hood6detail5TableILb1ELm80EiNSt3__110shared_ptrIN3tns6Caches11WorkerStateEEENS_4hashIivEENS2_8equal_toIiEEE7findIdxIiEEmRKT_, symObjAddr: 0x373C, symBinAddr: 0x3EAC4, symSize: 0xE8 }
  - { offsetInCU: 0x1F049, offset: 0x215983, size: 0x8, addend: 0x0, symName: __ZNSt3__110shared_ptrIN3tns6worker7MessageEED2B8ue170006Ev, symObjAddr: 0x3A24, symBinAddr: 0x3EDAC, symSize: 0x50 }
  - { offsetInCU: 0x1F0CC, offset: 0x215A06, size: 0x8, addend: 0x0, symName: __ZNSt3__110shared_ptrIN3tns6Caches11WorkerStateEED2B8ue170006Ev, symObjAddr: 0x2CD4, symBinAddr: 0x3E0A8, symSize: 0x50 }
  - { offsetInCU: 0x1F196, offset: 0x215AD0, size: 0x8, addend: 0x0, symName: __ZN3tns6Worker19CloseWorkerCallbackERKN2v820FunctionCallbackInfoINS1_5ValueEEE, symObjAddr: 0xAB8, symBinAddr: 0x3C3C4, symSize: 0x2AC }
  - { offsetInCU: 0x20969, offset: 0x2172A3, size: 0x8, addend: 0x0, symName: __ZN10robin_hood6detail5TableILb1ELm80EiNSt3__110shared_ptrIN3tns6Caches11WorkerStateEEENS_4hashIivEENS2_8equal_toIiEEEixIS7_EENS2_9enable_ifIXntsr3std7is_voidIT_EE5valueERSF_E4typeERKi, symObjAddr: 0x2D24, symBinAddr: 0x3E0F8, symSize: 0xDC }
  - { offsetInCU: 0x20D05, offset: 0x21763F, size: 0x8, addend: 0x0, symName: __ZNSt3__110shared_ptrIN3tns6Caches11WorkerStateEEaSB8ue170006ERKS4_, symObjAddr: 0x2E00, symBinAddr: 0x3E1D4, symSize: 0x68 }
  - { offsetInCU: 0x20F54, offset: 0x21788E, size: 0x8, addend: 0x0, symName: __ZN3tns6Worker19PostMessageCallbackERKN2v820FunctionCallbackInfoINS1_5ValueEEE, symObjAddr: 0x14B4, symBinAddr: 0x3CDC0, symSize: 0x4A0 }
  - { offsetInCU: 0x21E51, offset: 0x21878B, size: 0x8, addend: 0x0, symName: __ZN3tns6Worker17TerminateCallbackERKN2v820FunctionCallbackInfoINS1_5ValueEEE, symObjAddr: 0x1954, symBinAddr: 0x3D260, symSize: 0xA4 }
  - { offsetInCU: 0x224ED, offset: 0x218E27, size: 0x8, addend: 0x0, symName: __ZN3tns6Worker17OnMessageCallbackEPN2v87IsolateENS1_5LocalINS1_5ValueEEENSt3__110shared_ptrINS_6worker7MessageEEE, symObjAddr: 0x1AB4, symBinAddr: 0x3D304, symSize: 0x1E4 }
  - { offsetInCU: 0x22BDB, offset: 0x219515, size: 0x8, addend: 0x0, symName: __ZN3tns6Worker9SerializeEPN2v87IsolateENS1_5LocalINS1_5ValueEEERS6_, symObjAddr: 0x1DC0, symBinAddr: 0x3D604, symSize: 0x200 }
  - { offsetInCU: 0x234B3, offset: 0x219DED, size: 0x8, addend: 0x0, symName: __ZN3tns6Worker11SetWorkerIdEPN2v87IsolateEi, symObjAddr: 0x1FC0, symBinAddr: 0x3D804, symSize: 0x120 }
  - { offsetInCU: 0x23812, offset: 0x21A14C, size: 0x8, addend: 0x0, symName: __Z24_register_isolate_workerPN2v87IsolateENS_5LocalINS_16FunctionTemplateEEE, symObjAddr: 0x20E0, symBinAddr: 0x3D924, symSize: 0x2C }
  - { offsetInCU: 0x23FFE, offset: 0x21A938, size: 0x8, addend: 0x0, symName: __ZNSt3__128__exception_guard_exceptionsINS_29_AllocatorDestroyRangeReverseINS_9allocatorINS_12basic_stringIcNS_11char_traitsIcEENS2_IcEEEEEEPS7_EEED2B8ue170006Ev, symObjAddr: 0x2638, symBinAddr: 0x3DA0C, symSize: 0x34 }
  - { offsetInCU: 0x24036, offset: 0x21A970, size: 0x8, addend: 0x0, symName: __ZNKSt3__129_AllocatorDestroyRangeReverseINS_9allocatorINS_12basic_stringIcNS_11char_traitsIcEENS1_IcEEEEEEPS6_EclB8ue170006Ev, symObjAddr: 0x266C, symBinAddr: 0x3DA40, symSize: 0x4C }
  - { offsetInCU: 0x2428A, offset: 0x21ABC4, size: 0x8, addend: 0x0, symName: __ZNSt3__110__function6__funcIPFvPN2v87IsolateENS2_5LocalINS2_5ValueEEENS_10shared_ptrIN3tns6worker7MessageEEEENS_9allocatorISE_EEFvS4_NS5_INS2_6ObjectEEESC_EED1Ev, symObjAddr: 0x26B8, symBinAddr: 0x3DA8C, symSize: 0x4 }
  - { offsetInCU: 0x242B6, offset: 0x21ABF0, size: 0x8, addend: 0x0, symName: __ZNSt3__110__function6__funcIPFvPN2v87IsolateENS2_5LocalINS2_5ValueEEENS_10shared_ptrIN3tns6worker7MessageEEEENS_9allocatorISE_EEFvS4_NS5_INS2_6ObjectEEESC_EED0Ev, symObjAddr: 0x26BC, symBinAddr: 0x3DA90, symSize: 0x4 }
  - { offsetInCU: 0x244BC, offset: 0x21ADF6, size: 0x8, addend: 0x0, symName: __ZNKSt3__110__function6__funcIPFvPN2v87IsolateENS2_5LocalINS2_5ValueEEENS_10shared_ptrIN3tns6worker7MessageEEEENS_9allocatorISE_EEFvS4_NS5_INS2_6ObjectEEESC_EE7__cloneEv, symObjAddr: 0x26C0, symBinAddr: 0x3DA94, symSize: 0x38 }
  - { offsetInCU: 0x247AF, offset: 0x21B0E9, size: 0x8, addend: 0x0, symName: __ZNKSt3__110__function6__funcIPFvPN2v87IsolateENS2_5LocalINS2_5ValueEEENS_10shared_ptrIN3tns6worker7MessageEEEENS_9allocatorISE_EEFvS4_NS5_INS2_6ObjectEEESC_EE7__cloneEPNS0_6__baseISJ_EE, symObjAddr: 0x26F8, symBinAddr: 0x3DACC, symSize: 0x18 }
  - { offsetInCU: 0x247E6, offset: 0x21B120, size: 0x8, addend: 0x0, symName: __ZNKSt3__110__function6__funcIPFvPN2v87IsolateENS2_5LocalINS2_5ValueEEENS_10shared_ptrIN3tns6worker7MessageEEEENS_9allocatorISE_EEFvS4_NS5_INS2_6ObjectEEESC_EE7__cloneEPNS0_6__baseISJ_EE, symObjAddr: 0x26F8, symBinAddr: 0x3DACC, symSize: 0x18 }
  - { offsetInCU: 0x24814, offset: 0x21B14E, size: 0x8, addend: 0x0, symName: __ZNKSt3__110__function6__funcIPFvPN2v87IsolateENS2_5LocalINS2_5ValueEEENS_10shared_ptrIN3tns6worker7MessageEEEENS_9allocatorISE_EEFvS4_NS5_INS2_6ObjectEEESC_EE7__cloneEPNS0_6__baseISJ_EE, symObjAddr: 0x26F8, symBinAddr: 0x3DACC, symSize: 0x18 }
  - { offsetInCU: 0x248AB, offset: 0x21B1E5, size: 0x8, addend: 0x0, symName: __ZNSt3__110__function6__funcIPFvPN2v87IsolateENS2_5LocalINS2_5ValueEEENS_10shared_ptrIN3tns6worker7MessageEEEENS_9allocatorISE_EEFvS4_NS5_INS2_6ObjectEEESC_EE7destroyEv, symObjAddr: 0x2710, symBinAddr: 0x3DAE4, symSize: 0x4 }
  - { offsetInCU: 0x248FE, offset: 0x21B238, size: 0x8, addend: 0x0, symName: __ZNSt3__110__function6__funcIPFvPN2v87IsolateENS2_5LocalINS2_5ValueEEENS_10shared_ptrIN3tns6worker7MessageEEEENS_9allocatorISE_EEFvS4_NS5_INS2_6ObjectEEESC_EE18destroy_deallocateEv, symObjAddr: 0x2714, symBinAddr: 0x3DAE8, symSize: 0x4 }
  - { offsetInCU: 0x24933, offset: 0x21B26D, size: 0x8, addend: 0x0, symName: __ZNSt3__110__function6__funcIPFvPN2v87IsolateENS2_5LocalINS2_5ValueEEENS_10shared_ptrIN3tns6worker7MessageEEEENS_9allocatorISE_EEFvS4_NS5_INS2_6ObjectEEESC_EE18destroy_deallocateEv, symObjAddr: 0x2714, symBinAddr: 0x3DAE8, symSize: 0x4 }
  - { offsetInCU: 0x24955, offset: 0x21B28F, size: 0x8, addend: 0x0, symName: __ZNSt3__110__function6__funcIPFvPN2v87IsolateENS2_5LocalINS2_5ValueEEENS_10shared_ptrIN3tns6worker7MessageEEEENS_9allocatorISE_EEFvS4_NS5_INS2_6ObjectEEESC_EE18destroy_deallocateEv, symObjAddr: 0x2714, symBinAddr: 0x3DAE8, symSize: 0x4 }
  - { offsetInCU: 0x24980, offset: 0x21B2BA, size: 0x8, addend: 0x0, symName: __ZNSt3__110__function6__funcIPFvPN2v87IsolateENS2_5LocalINS2_5ValueEEENS_10shared_ptrIN3tns6worker7MessageEEEENS_9allocatorISE_EEFvS4_NS5_INS2_6ObjectEEESC_EE18destroy_deallocateEv, symObjAddr: 0x2714, symBinAddr: 0x3DAE8, symSize: 0x4 }
  - { offsetInCU: 0x249A6, offset: 0x21B2E0, size: 0x8, addend: 0x0, symName: __ZNSt3__110__function6__funcIPFvPN2v87IsolateENS2_5LocalINS2_5ValueEEENS_10shared_ptrIN3tns6worker7MessageEEEENS_9allocatorISE_EEFvS4_NS5_INS2_6ObjectEEESC_EE18destroy_deallocateEv, symObjAddr: 0x2714, symBinAddr: 0x3DAE8, symSize: 0x4 }
  - { offsetInCU: 0x24A07, offset: 0x21B341, size: 0x8, addend: 0x0, symName: __ZNSt3__110__function6__funcIPFvPN2v87IsolateENS2_5LocalINS2_5ValueEEENS_10shared_ptrIN3tns6worker7MessageEEEENS_9allocatorISE_EEFvS4_NS5_INS2_6ObjectEEESC_EEclEOS4_OSI_OSC_, symObjAddr: 0x2718, symBinAddr: 0x3DAEC, symSize: 0x8 }
  - { offsetInCU: 0x24A99, offset: 0x21B3D3, size: 0x8, addend: 0x0, symName: __ZNSt3__128__invoke_void_return_wrapperIvLb1EE6__callB8ue170006IJRPFvPN2v87IsolateENS3_5LocalINS3_5ValueEEENS_10shared_ptrIN3tns6worker7MessageEEEES5_NS6_INS3_6ObjectEEESD_EEEvDpOT_, symObjAddr: 0x2720, symBinAddr: 0x3DAF4, symSize: 0x88 }
  - { offsetInCU: 0x24C85, offset: 0x21B5BF, size: 0x8, addend: 0x0, symName: __ZNSt3__128__invoke_void_return_wrapperIvLb1EE6__callB8ue170006IJRPFvPN2v87IsolateENS3_5LocalINS3_5ValueEEENS_10shared_ptrIN3tns6worker7MessageEEEES5_NS6_INS3_6ObjectEEESD_EEEvDpOT_.cold.1, symObjAddr: 0x3DD8, symBinAddr: 0xB6ADE8, symSize: 0x40 }
  - { offsetInCU: 0x24DD0, offset: 0x21B70A, size: 0x8, addend: 0x0, symName: '__ZNSt3__110__function6__funcIZN3tns6Worker19ConstructorCallbackERKN2v820FunctionCallbackInfoINS4_5ValueEEEE3$_0NS_9allocatorISA_EEFPNS4_7IsolateEvEED1Ev', symObjAddr: 0x27A8, symBinAddr: 0x3DB7C, symSize: 0x3C }
  - { offsetInCU: 0x2502A, offset: 0x21B964, size: 0x8, addend: 0x0, symName: '__ZNSt3__110__function6__funcIZN3tns6Worker19ConstructorCallbackERKN2v820FunctionCallbackInfoINS4_5ValueEEEE3$_0NS_9allocatorISA_EEFPNS4_7IsolateEvEED0Ev', symObjAddr: 0x27E4, symBinAddr: 0x3DBB8, symSize: 0x3C }
  - { offsetInCU: 0x2559A, offset: 0x21BED4, size: 0x8, addend: 0x0, symName: '__ZNKSt3__110__function6__funcIZN3tns6Worker19ConstructorCallbackERKN2v820FunctionCallbackInfoINS4_5ValueEEEE3$_0NS_9allocatorISA_EEFPNS4_7IsolateEvEE7__cloneEv', symObjAddr: 0x2820, symBinAddr: 0x3DBF4, symSize: 0x78 }
  - { offsetInCU: 0x25A43, offset: 0x21C37D, size: 0x8, addend: 0x0, symName: '__ZNKSt3__110__function6__funcIZN3tns6Worker19ConstructorCallbackERKN2v820FunctionCallbackInfoINS4_5ValueEEEE3$_0NS_9allocatorISA_EEFPNS4_7IsolateEvEE7__cloneEPNS0_6__baseISF_EE', symObjAddr: 0x2898, symBinAddr: 0x3DC6C, symSize: 0x40 }
  - { offsetInCU: 0x25C54, offset: 0x21C58E, size: 0x8, addend: 0x0, symName: '__ZNSt3__110__function6__funcIZN3tns6Worker19ConstructorCallbackERKN2v820FunctionCallbackInfoINS4_5ValueEEEE3$_0NS_9allocatorISA_EEFPNS4_7IsolateEvEE7destroyEv', symObjAddr: 0x28D8, symBinAddr: 0x3DCAC, symSize: 0x14 }
  - { offsetInCU: 0x25D29, offset: 0x21C663, size: 0x8, addend: 0x0, symName: '__ZNSt3__110__function6__funcIZN3tns6Worker19ConstructorCallbackERKN2v820FunctionCallbackInfoINS4_5ValueEEEE3$_0NS_9allocatorISA_EEFPNS4_7IsolateEvEE7destroyEv', symObjAddr: 0x28D8, symBinAddr: 0x3DCAC, symSize: 0x14 }
  - { offsetInCU: 0x25E07, offset: 0x21C741, size: 0x8, addend: 0x0, symName: '__ZNSt3__110__function6__funcIZN3tns6Worker19ConstructorCallbackERKN2v820FunctionCallbackInfoINS4_5ValueEEEE3$_0NS_9allocatorISA_EEFPNS4_7IsolateEvEE18destroy_deallocateEv', symObjAddr: 0x28EC, symBinAddr: 0x3DCC0, symSize: 0x30 }
  - { offsetInCU: 0x26272, offset: 0x21CBAC, size: 0x8, addend: 0x0, symName: '__ZNSt3__110__function6__funcIZN3tns6Worker19ConstructorCallbackERKN2v820FunctionCallbackInfoINS4_5ValueEEEE3$_0NS_9allocatorISA_EEFPNS4_7IsolateEvEEclEv', symObjAddr: 0x291C, symBinAddr: 0x3DCF0, symSize: 0x270 }
  - { offsetInCU: 0x26BB0, offset: 0x21D4EA, size: 0x8, addend: 0x0, symName: __ZNSt3__120__shared_ptr_emplaceIN3tns6Caches11WorkerStateENS_9allocatorIS3_EEEC2B8ue170006IJRPN2v87IsolateERNS_10shared_ptrINS8_10PersistentINS8_5ValueENS8_27NonCopyablePersistentTraitsISE_EEEEEERPNS1_13WorkerWrapperEEEES5_DpOT_, symObjAddr: 0x2BFC, symBinAddr: 0x3DFD0, symSize: 0x94 }
  - { offsetInCU: 0x26EE3, offset: 0x21D81D, size: 0x8, addend: 0x0, symName: __ZNSt3__120__shared_ptr_emplaceIN3tns6Caches11WorkerStateENS_9allocatorIS3_EEED1Ev, symObjAddr: 0x2C90, symBinAddr: 0x3E064, symSize: 0x14 }
  - { offsetInCU: 0x26F05, offset: 0x21D83F, size: 0x8, addend: 0x0, symName: __ZNSt3__120__shared_ptr_emplaceIN3tns6Caches11WorkerStateENS_9allocatorIS3_EEED1Ev, symObjAddr: 0x2C90, symBinAddr: 0x3E064, symSize: 0x14 }
  - { offsetInCU: 0x26F3D, offset: 0x21D877, size: 0x8, addend: 0x0, symName: __ZNSt3__120__shared_ptr_emplaceIN3tns6Caches11WorkerStateENS_9allocatorIS3_EEED0Ev, symObjAddr: 0x2CA4, symBinAddr: 0x3E078, symSize: 0x24 }
  - { offsetInCU: 0x26FDB, offset: 0x21D915, size: 0x8, addend: 0x0, symName: __ZNSt3__120__shared_ptr_emplaceIN3tns6Caches11WorkerStateENS_9allocatorIS3_EEE16__on_zero_sharedEv, symObjAddr: 0x2CC8, symBinAddr: 0x3E09C, symSize: 0x8 }
  - { offsetInCU: 0x27004, offset: 0x21D93E, size: 0x8, addend: 0x0, symName: __ZNSt3__120__shared_ptr_emplaceIN3tns6Caches11WorkerStateENS_9allocatorIS3_EEE16__on_zero_sharedEv, symObjAddr: 0x2CC8, symBinAddr: 0x3E09C, symSize: 0x8 }
  - { offsetInCU: 0x27022, offset: 0x21D95C, size: 0x8, addend: 0x0, symName: __ZNSt3__120__shared_ptr_emplaceIN3tns6Caches11WorkerStateENS_9allocatorIS3_EEE16__on_zero_sharedEv, symObjAddr: 0x2CC8, symBinAddr: 0x3E09C, symSize: 0x8 }
  - { offsetInCU: 0x27068, offset: 0x21D9A2, size: 0x8, addend: 0x0, symName: __ZNSt3__120__shared_ptr_emplaceIN3tns6Caches11WorkerStateENS_9allocatorIS3_EEE21__on_zero_shared_weakEv, symObjAddr: 0x2CD0, symBinAddr: 0x3E0A4, symSize: 0x4 }
  - { offsetInCU: 0x2709B, offset: 0x21D9D5, size: 0x8, addend: 0x0, symName: __ZNSt3__120__shared_ptr_emplaceIN3tns6Caches11WorkerStateENS_9allocatorIS3_EEE21__on_zero_shared_weakEv, symObjAddr: 0x2CD0, symBinAddr: 0x3E0A4, symSize: 0x4 }
  - { offsetInCU: 0x270BD, offset: 0x21D9F7, size: 0x8, addend: 0x0, symName: __ZNSt3__120__shared_ptr_emplaceIN3tns6Caches11WorkerStateENS_9allocatorIS3_EEE21__on_zero_shared_weakEv, symObjAddr: 0x2CD0, symBinAddr: 0x3E0A4, symSize: 0x4 }
  - { offsetInCU: 0x270DF, offset: 0x21DA19, size: 0x8, addend: 0x0, symName: __ZNSt3__120__shared_ptr_emplaceIN3tns6Caches11WorkerStateENS_9allocatorIS3_EEE21__on_zero_shared_weakEv, symObjAddr: 0x2CD0, symBinAddr: 0x3E0A4, symSize: 0x4 }
  - { offsetInCU: 0x2710B, offset: 0x21DA45, size: 0x8, addend: 0x0, symName: __ZNSt3__120__shared_ptr_emplaceIN3tns6Caches11WorkerStateENS_9allocatorIS3_EEE21__on_zero_shared_weakEv, symObjAddr: 0x2CD0, symBinAddr: 0x3E0A4, symSize: 0x4 }
  - { offsetInCU: 0x27132, offset: 0x21DA6C, size: 0x8, addend: 0x0, symName: __ZNSt3__120__shared_ptr_emplaceIN3tns6Caches11WorkerStateENS_9allocatorIS3_EEE21__on_zero_shared_weakEv, symObjAddr: 0x2CD0, symBinAddr: 0x3E0A4, symSize: 0x4 }
  - { offsetInCU: 0x27464, offset: 0x21DD9E, size: 0x8, addend: 0x0, symName: __ZN10robin_hood6detail5TableILb1ELm80EiNSt3__110shared_ptrIN3tns6Caches11WorkerStateEEENS_4hashIivEENS2_8equal_toIiEEE25insertKeyPrepareEmptySpotIRKiEENS2_4pairImNSC_14InsertionStateEEEOT_, symObjAddr: 0x2E68, symBinAddr: 0x3E23C, symSize: 0x1A0 }
  - { offsetInCU: 0x275F2, offset: 0x21DF2C, size: 0x8, addend: 0x0, symName: __ZNK10robin_hood6detail5TableILb1ELm80EiNSt3__110shared_ptrIN3tns6Caches11WorkerStateEEENS_4hashIivEENS2_8equal_toIiEEE18throwOverflowErrorEv, symObjAddr: 0x3008, symBinAddr: 0x3E3DC, symSize: 0x50 }
  - { offsetInCU: 0x27626, offset: 0x21DF60, size: 0x8, addend: 0x0, symName: __ZNSt3__110shared_ptrIN3tns6Caches11WorkerStateEEaSB8ue170006EOS4_, symObjAddr: 0x36BC, symBinAddr: 0x3EA68, symSize: 0x5C }
  - { offsetInCU: 0x278B5, offset: 0x21E1EF, size: 0x8, addend: 0x0, symName: __ZN10robin_hood6detail5TableILb1ELm80EiNSt3__110shared_ptrIN3tns6Caches11WorkerStateEEENS_4hashIivEENS2_8equal_toIiEEE13increase_sizeEv, symObjAddr: 0x3058, symBinAddr: 0x3E42C, symSize: 0x12C }
  - { offsetInCU: 0x27978, offset: 0x21E2B2, size: 0x8, addend: 0x0, symName: __ZN10robin_hood6detail5TableILb1ELm80EiNSt3__110shared_ptrIN3tns6Caches11WorkerStateEEENS_4hashIivEENS2_8equal_toIiEEE7shiftUpEmm, symObjAddr: 0x3184, symBinAddr: 0x3E558, symSize: 0xEC }
  - { offsetInCU: 0x27B5F, offset: 0x21E499, size: 0x8, addend: 0x0, symName: __ZN10robin_hood6detail5TableILb1ELm80EiNSt3__110shared_ptrIN3tns6Caches11WorkerStateEEENS_4hashIivEENS2_8equal_toIiEEE17try_increase_infoEv, symObjAddr: 0x334C, symBinAddr: 0x3E720, symSize: 0x100 }
  - { offsetInCU: 0x27C5C, offset: 0x21E596, size: 0x8, addend: 0x0, symName: __ZN10robin_hood6detail5TableILb1ELm80EiNSt3__110shared_ptrIN3tns6Caches11WorkerStateEEENS_4hashIivEENS2_8equal_toIiEEE8initDataEm, symObjAddr: 0x3270, symBinAddr: 0x3E644, symSize: 0xDC }
  - { offsetInCU: 0x27D69, offset: 0x21E6A3, size: 0x8, addend: 0x0, symName: __ZN10robin_hood6detail5TableILb1ELm80EiNSt3__110shared_ptrIN3tns6Caches11WorkerStateEEENS_4hashIivEENS2_8equal_toIiEEE17try_increase_infoEv, symObjAddr: 0x334C, symBinAddr: 0x3E720, symSize: 0x100 }
  - { offsetInCU: 0x27D74, offset: 0x21E6AE, size: 0x8, addend: 0x0, symName: __ZN10robin_hood6detail5TableILb1ELm80EiNSt3__110shared_ptrIN3tns6Caches11WorkerStateEEENS_4hashIivEENS2_8equal_toIiEEE16rehashPowerOfTwoEmb, symObjAddr: 0x344C, symBinAddr: 0x3E820, symSize: 0xF8 }
  - { offsetInCU: 0x28002, offset: 0x21E93C, size: 0x8, addend: 0x0, symName: __ZN10robin_hood6detail5TableILb1ELm80EiNSt3__110shared_ptrIN3tns6Caches11WorkerStateEEENS_4hashIivEENS2_8equal_toIiEEE11insert_moveEONSC_8DataNodeISC_Lb1EEE, symObjAddr: 0x356C, symBinAddr: 0x3E918, symSize: 0x150 }
  - { offsetInCU: 0x28506, offset: 0x21EE40, size: 0x8, addend: 0x0, symName: __ZNSt3__120__shared_ptr_emplaceIN3tns6worker7MessageENS_9allocatorIS3_EEEC2B8ue170006IJEEES5_DpOT_, symObjAddr: 0x386C, symBinAddr: 0x3EBF4, symSize: 0x70 }
  - { offsetInCU: 0x286BD, offset: 0x21EFF7, size: 0x8, addend: 0x0, symName: __ZNSt3__120__shared_ptr_emplaceIN3tns6worker7MessageENS_9allocatorIS3_EEED1Ev, symObjAddr: 0x38DC, symBinAddr: 0x3EC64, symSize: 0x14 }
  - { offsetInCU: 0x286DF, offset: 0x21F019, size: 0x8, addend: 0x0, symName: __ZNSt3__120__shared_ptr_emplaceIN3tns6worker7MessageENS_9allocatorIS3_EEED1Ev, symObjAddr: 0x38DC, symBinAddr: 0x3EC64, symSize: 0x14 }
  - { offsetInCU: 0x28717, offset: 0x21F051, size: 0x8, addend: 0x0, symName: __ZNSt3__120__shared_ptr_emplaceIN3tns6worker7MessageENS_9allocatorIS3_EEED0Ev, symObjAddr: 0x38F0, symBinAddr: 0x3EC78, symSize: 0x24 }
  - { offsetInCU: 0x28841, offset: 0x21F17B, size: 0x8, addend: 0x0, symName: __ZNSt3__120__shared_ptr_emplaceIN3tns6worker7MessageENS_9allocatorIS3_EEE16__on_zero_sharedEv, symObjAddr: 0x3914, symBinAddr: 0x3EC9C, symSize: 0x4C }
  - { offsetInCU: 0x28A05, offset: 0x21F33F, size: 0x8, addend: 0x0, symName: __ZNSt3__16vectorINS_10shared_ptrIN2v812BackingStoreEEENS_9allocatorIS4_EEE16__destroy_vectorclB8ue170006Ev, symObjAddr: 0x3964, symBinAddr: 0x3ECEC, symSize: 0x70 }
  - { offsetInCU: 0x28B8B, offset: 0x21F4C5, size: 0x8, addend: 0x0, symName: __ZNSt3__120__shared_ptr_emplaceIN3tns6worker7MessageENS_9allocatorIS3_EEE21__on_zero_shared_weakEv, symObjAddr: 0x3960, symBinAddr: 0x3ECE8, symSize: 0x4 }
  - { offsetInCU: 0x28BBE, offset: 0x21F4F8, size: 0x8, addend: 0x0, symName: __ZNSt3__120__shared_ptr_emplaceIN3tns6worker7MessageENS_9allocatorIS3_EEE21__on_zero_shared_weakEv, symObjAddr: 0x3960, symBinAddr: 0x3ECE8, symSize: 0x4 }
  - { offsetInCU: 0x28BE0, offset: 0x21F51A, size: 0x8, addend: 0x0, symName: __ZNSt3__120__shared_ptr_emplaceIN3tns6worker7MessageENS_9allocatorIS3_EEE21__on_zero_shared_weakEv, symObjAddr: 0x3960, symBinAddr: 0x3ECE8, symSize: 0x4 }
  - { offsetInCU: 0x28C02, offset: 0x21F53C, size: 0x8, addend: 0x0, symName: __ZNSt3__120__shared_ptr_emplaceIN3tns6worker7MessageENS_9allocatorIS3_EEE21__on_zero_shared_weakEv, symObjAddr: 0x3960, symBinAddr: 0x3ECE8, symSize: 0x4 }
  - { offsetInCU: 0x28C2E, offset: 0x21F568, size: 0x8, addend: 0x0, symName: __ZNSt3__120__shared_ptr_emplaceIN3tns6worker7MessageENS_9allocatorIS3_EEE21__on_zero_shared_weakEv, symObjAddr: 0x3960, symBinAddr: 0x3ECE8, symSize: 0x4 }
  - { offsetInCU: 0x28C55, offset: 0x21F58F, size: 0x8, addend: 0x0, symName: __ZNSt3__120__shared_ptr_emplaceIN3tns6worker7MessageENS_9allocatorIS3_EEE21__on_zero_shared_weakEv, symObjAddr: 0x3960, symBinAddr: 0x3ECE8, symSize: 0x4 }
  - { offsetInCU: 0x28D88, offset: 0x21F6C2, size: 0x8, addend: 0x0, symName: __ZNSt3__110shared_ptrIN2v812BackingStoreEED2B8ue170006Ev, symObjAddr: 0x39D4, symBinAddr: 0x3ED5C, symSize: 0x50 }
  - { offsetInCU: 0x28EBD, offset: 0x21F7F7, size: 0x8, addend: 0x0, symName: '__ZNSt3__110__function6__funcIZN3tns6Worker25PostMessageToMainCallbackERKN2v820FunctionCallbackInfoINS4_5ValueEEEE3$_1NS_9allocatorISA_EEFvvEED1Ev', symObjAddr: 0x3A74, symBinAddr: 0x3EDFC, symSize: 0x3C }
  - { offsetInCU: 0x29030, offset: 0x21F96A, size: 0x8, addend: 0x0, symName: '__ZNSt3__110__function6__funcIZN3tns6Worker25PostMessageToMainCallbackERKN2v820FunctionCallbackInfoINS4_5ValueEEEE3$_1NS_9allocatorISA_EEFvvEED0Ev', symObjAddr: 0x3AB0, symBinAddr: 0x3EE38, symSize: 0x3C }
  - { offsetInCU: 0x293A4, offset: 0x21FCDE, size: 0x8, addend: 0x0, symName: '__ZNKSt3__110__function6__funcIZN3tns6Worker25PostMessageToMainCallbackERKN2v820FunctionCallbackInfoINS4_5ValueEEEE3$_1NS_9allocatorISA_EEFvvEE7__cloneEv', symObjAddr: 0x3AEC, symBinAddr: 0x3EE74, symSize: 0x60 }
  - { offsetInCU: 0x2981A, offset: 0x220154, size: 0x8, addend: 0x0, symName: '__ZNKSt3__110__function6__funcIZN3tns6Worker25PostMessageToMainCallbackERKN2v820FunctionCallbackInfoINS4_5ValueEEEE3$_1NS_9allocatorISA_EEFvvEE7__cloneEPNS0_6__baseISD_EE', symObjAddr: 0x3B4C, symBinAddr: 0x3EED4, symSize: 0x40 }
  - { offsetInCU: 0x29851, offset: 0x22018B, size: 0x8, addend: 0x0, symName: '__ZNKSt3__110__function6__funcIZN3tns6Worker25PostMessageToMainCallbackERKN2v820FunctionCallbackInfoINS4_5ValueEEEE3$_1NS_9allocatorISA_EEFvvEE7__cloneEPNS0_6__baseISD_EE', symObjAddr: 0x3B4C, symBinAddr: 0x3EED4, symSize: 0x40 }
  - { offsetInCU: 0x2987F, offset: 0x2201B9, size: 0x8, addend: 0x0, symName: '__ZNKSt3__110__function6__funcIZN3tns6Worker25PostMessageToMainCallbackERKN2v820FunctionCallbackInfoINS4_5ValueEEEE3$_1NS_9allocatorISA_EEFvvEE7__cloneEPNS0_6__baseISD_EE', symObjAddr: 0x3B4C, symBinAddr: 0x3EED4, symSize: 0x40 }
  - { offsetInCU: 0x29B01, offset: 0x22043B, size: 0x8, addend: 0x0, symName: '__ZNSt3__110__function6__funcIZN3tns6Worker25PostMessageToMainCallbackERKN2v820FunctionCallbackInfoINS4_5ValueEEEE3$_1NS_9allocatorISA_EEFvvEE7destroyEv', symObjAddr: 0x3B8C, symBinAddr: 0x3EF14, symSize: 0x28 }
  - { offsetInCU: 0x29C5F, offset: 0x220599, size: 0x8, addend: 0x0, symName: '__ZNSt3__110__function6__funcIZN3tns6Worker25PostMessageToMainCallbackERKN2v820FunctionCallbackInfoINS4_5ValueEEEE3$_1NS_9allocatorISA_EEFvvEE18destroy_deallocateEv', symObjAddr: 0x3BB4, symBinAddr: 0x3EF3C, symSize: 0x34 }
  - { offsetInCU: 0x29F59, offset: 0x220893, size: 0x8, addend: 0x0, symName: '__ZNSt3__110__function6__funcIZN3tns6Worker25PostMessageToMainCallbackERKN2v820FunctionCallbackInfoINS4_5ValueEEEE3$_1NS_9allocatorISA_EEFvvEEclEv', symObjAddr: 0x3BE8, symBinAddr: 0x3EF70, symSize: 0x1F0 }
  - { offsetInCU: 0x2A8B4, offset: 0x2211EE, size: 0x8, addend: 0x0, symName: __GLOBAL__sub_I_Worker.mm, symObjAddr: 0x43E0, symBinAddr: 0x3F160, symSize: 0x16C }
  - { offsetInCU: 0x26, offset: 0x221A16, size: 0x8, addend: 0x0, symName: __ZN3tns15SimpleAllocatorC2Ev, symObjAddr: 0x0, symBinAddr: 0x3F2CC, symSize: 0x10 }
  - { offsetInCU: 0x2CFF, offset: 0x2246EF, size: 0x8, addend: 0x0, symName: __ZN3tns15SimpleAllocatorC2Ev, symObjAddr: 0x0, symBinAddr: 0x3F2CC, symSize: 0x10 }
  - { offsetInCU: 0x2D41, offset: 0x224731, size: 0x8, addend: 0x0, symName: __ZN3tns15SimpleAllocatorC1Ev, symObjAddr: 0x10, symBinAddr: 0x3F2DC, symSize: 0x10 }
  - { offsetInCU: 0x2D6F, offset: 0x22475F, size: 0x8, addend: 0x0, symName: __ZN3tns15SimpleAllocatorC1Ev, symObjAddr: 0x10, symBinAddr: 0x3F2DC, symSize: 0x10 }
  - { offsetInCU: 0x2D88, offset: 0x224778, size: 0x8, addend: 0x0, symName: __ZN3tns15SimpleAllocatorD2Ev, symObjAddr: 0x20, symBinAddr: 0x3F2EC, symSize: 0x4 }
  - { offsetInCU: 0x2DB3, offset: 0x2247A3, size: 0x8, addend: 0x0, symName: __ZN3tns15SimpleAllocatorD1Ev, symObjAddr: 0x24, symBinAddr: 0x3F2F0, symSize: 0x4 }
  - { offsetInCU: 0x2DDE, offset: 0x2247CE, size: 0x8, addend: 0x0, symName: __ZN3tns15SimpleAllocatorD0Ev, symObjAddr: 0x28, symBinAddr: 0x3F2F4, symSize: 0x4 }
  - { offsetInCU: 0x2E09, offset: 0x2247F9, size: 0x8, addend: 0x0, symName: __ZN3tns15SimpleAllocator8AllocateEm, symObjAddr: 0x2C, symBinAddr: 0x3F2F8, symSize: 0xC }
  - { offsetInCU: 0x2E48, offset: 0x224838, size: 0x8, addend: 0x0, symName: __ZN3tns15SimpleAllocator21AllocateUninitializedEm, symObjAddr: 0x38, symBinAddr: 0x3F304, symSize: 0x8 }
  - { offsetInCU: 0x2E86, offset: 0x224876, size: 0x8, addend: 0x0, symName: __ZN3tns15SimpleAllocator4FreeEPvm, symObjAddr: 0x40, symBinAddr: 0x3F30C, symSize: 0x8 }
  - { offsetInCU: 0x51, offset: 0x224906, size: 0x8, addend: 0x0, symName: __ZN3tns7Console9inspectorE, symObjAddr: 0x2930F0, symBinAddr: 0x15B2018, symSize: 0x0 }
  - { offsetInCU: 0xB3DD, offset: 0x22FC92, size: 0x8, addend: 0x0, symName: __ZN3tns7Console26VerbosityToInspectorMethodENSt3__112basic_stringIcNS1_11char_traitsIcEENS1_9allocatorIcEEEE.cold.1, symObjAddr: 0x46A0, symBinAddr: 0xB6AE28, symSize: 0x28 }
  - { offsetInCU: 0x14F6A, offset: 0x23981F, size: 0x8, addend: 0x0, symName: __ZN3tns7Console4InitEN2v85LocalINS1_7ContextEEE, symObjAddr: 0x0, symBinAddr: 0x3F314, symSize: 0x468 }
  - { offsetInCU: 0x168B3, offset: 0x23B168, size: 0x8, addend: 0x0, symName: __ZN3tns7Console17AttachLogFunctionEN2v85LocalINS1_7ContextEEENS2_INS1_6ObjectEEENSt3__112basic_stringIcNS7_11char_traitsIcEENS7_9allocatorIcEEEEPFvRKNS1_20FunctionCallbackInfoINS1_5ValueEEEE, symObjAddr: 0x468, symBinAddr: 0x3F77C, symSize: 0x178 }
  - { offsetInCU: 0x1716F, offset: 0x23BA24, size: 0x8, addend: 0x0, symName: __ZN3tns7Console11LogCallbackERKN2v820FunctionCallbackInfoINS1_5ValueEEE, symObjAddr: 0x5E0, symBinAddr: 0x3F8F4, symSize: 0x518 }
  - { offsetInCU: 0x18D00, offset: 0x23D5B5, size: 0x8, addend: 0x0, symName: __ZN3tns7Console19BuildStringFromArgsERKN2v820FunctionCallbackInfoINS1_5ValueEEEi, symObjAddr: 0x1A78, symBinAddr: 0x40D8C, symSize: 0x25C }
  - { offsetInCU: 0x19728, offset: 0x23DFDD, size: 0x8, addend: 0x0, symName: __ZN3tns7Console26VerbosityToInspectorMethodENSt3__112basic_stringIcNS1_11char_traitsIcEENS1_9allocatorIcEEEE, symObjAddr: 0x1E78, symBinAddr: 0x40FE8, symSize: 0x1C0 }
  - { offsetInCU: 0x19BFE, offset: 0x23E4B3, size: 0x8, addend: 0x0, symName: __ZN3tns7Console22SendToDevToolsFrontEndEN12v8_inspector14ConsoleAPITypeERKN2v820FunctionCallbackInfoINS3_5ValueEEE, symObjAddr: 0x2038, symBinAddr: 0x411A8, symSize: 0x1B0 }
  - { offsetInCU: 0x19C09, offset: 0x23E4BE, size: 0x8, addend: 0x0, symName: __ZN3tns7Console22SendToDevToolsFrontEndEN12v8_inspector14ConsoleAPITypeERKN2v820FunctionCallbackInfoINS3_5ValueEEE, symObjAddr: 0x2038, symBinAddr: 0x411A8, symSize: 0x1B0 }
  - { offsetInCU: 0x1A51A, offset: 0x23EDCF, size: 0x8, addend: 0x0, symName: __ZN3tns7Console14AssertCallbackERKN2v820FunctionCallbackInfoINS1_5ValueEEE, symObjAddr: 0xAF8, symBinAddr: 0x3FE0C, symSize: 0x1D8 }
  - { offsetInCU: 0x1AE34, offset: 0x23F6E9, size: 0x8, addend: 0x0, symName: __ZN3tns7Console11DirCallbackERKN2v820FunctionCallbackInfoINS1_5ValueEEE, symObjAddr: 0xCD0, symBinAddr: 0x3FFE4, symSize: 0x818 }
  - { offsetInCU: 0x1C8E0, offset: 0x241195, size: 0x8, addend: 0x0, symName: __ZN3tns7Console18BuildStringFromArgEN2v85LocalINS1_7ContextEEERKNS2_INS1_5ValueEEE, symObjAddr: 0x227C, symBinAddr: 0x41358, symSize: 0x3BC }
  - { offsetInCU: 0x1D04C, offset: 0x241901, size: 0x8, addend: 0x0, symName: __ZN3tns7Console17TransformJSObjectEN2v85LocalINS1_6ObjectEEE, symObjAddr: 0x2638, symBinAddr: 0x41714, symSize: 0x23C }
  - { offsetInCU: 0x1DBC2, offset: 0x242477, size: 0x8, addend: 0x0, symName: __ZN3tns7Console12TimeCallbackERKN2v820FunctionCallbackInfoINS1_5ValueEEE, symObjAddr: 0x14E8, symBinAddr: 0x407FC, symSize: 0x180 }
  - { offsetInCU: 0x1E2F4, offset: 0x242BA9, size: 0x8, addend: 0x0, symName: __ZN10robin_hood6detail5TableILb1ELm80ENSt3__112basic_stringIcNS2_11char_traitsIcEENS2_9allocatorIcEEEEdNS_4hashIS8_vEENS2_8equal_toIS8_EEE7emplaceIJRS8_RdEEENS2_4pairINSD_4IterILb0EEEbEEDpOT_, symObjAddr: 0x2874, symBinAddr: 0x41950, symSize: 0x150 }
  - { offsetInCU: 0x1EC1D, offset: 0x2434D2, size: 0x8, addend: 0x0, symName: __ZN3tns7Console15TimeEndCallbackERKN2v820FunctionCallbackInfoINS1_5ValueEEE, symObjAddr: 0x1668, symBinAddr: 0x4097C, symSize: 0x3F8 }
  - { offsetInCU: 0x1FF73, offset: 0x244828, size: 0x8, addend: 0x0, symName: __ZNK10robin_hood6detail5TableILb1ELm80ENSt3__112basic_stringIcNS2_11char_traitsIcEENS2_9allocatorIcEEEEdNS_4hashIS8_vEENS2_8equal_toIS8_EEE7findIdxIS8_EEmRKT_, symObjAddr: 0x446C, symBinAddr: 0x42474, symSize: 0x108 }
  - { offsetInCU: 0x200A0, offset: 0x244955, size: 0x8, addend: 0x0, symName: __ZN10robin_hood6detail5TableILb1ELm80ENSt3__112basic_stringIcNS2_11char_traitsIcEENS2_9allocatorIcEEEEdNS_4hashIS8_vEENS2_8equal_toIS8_EEE5eraseERKS8_, symObjAddr: 0x29C4, symBinAddr: 0x41AA0, symSize: 0xCC }
  - { offsetInCU: 0x20162, offset: 0x244A17, size: 0x8, addend: 0x0, symName: __ZN3tns7Console22SendToDevToolsFrontEndEPN2v87IsolateEN12v8_inspector14ConsoleAPITypeERKNSt3__112basic_stringIcNS6_11char_traitsIcEENS6_9allocatorIcEEEE, symObjAddr: 0x2A90, symBinAddr: 0x41B6C, symSize: 0xBC }
  - { offsetInCU: 0x20772, offset: 0x245027, size: 0x8, addend: 0x0, symName: __ZN3tns7Console21AttachInspectorClientEPN12v8_inspector19JsV8InspectorClientE, symObjAddr: 0x1A60, symBinAddr: 0x40D74, symSize: 0xC }
  - { offsetInCU: 0x20796, offset: 0x24504B, size: 0x8, addend: 0x0, symName: __ZN3tns7Console21DetachInspectorClientEv, symObjAddr: 0x1A6C, symBinAddr: 0x40D80, symSize: 0xC }
  - { offsetInCU: 0x20B27, offset: 0x2453DC, size: 0x8, addend: 0x0, symName: __ZN3tns7Console26VerbosityToInspectorMethodENSt3__112basic_stringIcNS1_11char_traitsIcEENS1_9allocatorIcEEEE.cold.1, symObjAddr: 0x46A0, symBinAddr: 0xB6AE28, symSize: 0x28 }
  - { offsetInCU: 0x2159E, offset: 0x245E53, size: 0x8, addend: 0x0, symName: __ZN10robin_hood6detail5TableILb1ELm80ENSt3__112basic_stringIcNS2_11char_traitsIcEENS2_9allocatorIcEEEEdNS_4hashIS8_vEENS2_8equal_toIS8_EEE25insertKeyPrepareEmptySpotIRKS8_EENS2_4pairImNSD_14InsertionStateEEEOT_, symObjAddr: 0x3A54, symBinAddr: 0x41C28, symSize: 0x188 }
  - { offsetInCU: 0x216DA, offset: 0x245F8F, size: 0x8, addend: 0x0, symName: __ZNK10robin_hood6detail5TableILb1ELm80ENSt3__112basic_stringIcNS2_11char_traitsIcEENS2_9allocatorIcEEEEdNS_4hashIS8_vEENS2_8equal_toIS8_EEE18throwOverflowErrorEv, symObjAddr: 0x3BDC, symBinAddr: 0x41DB0, symSize: 0x50 }
  - { offsetInCU: 0x218E5, offset: 0x24619A, size: 0x8, addend: 0x0, symName: __ZN10robin_hood6detail5TableILb1ELm80ENSt3__112basic_stringIcNS2_11char_traitsIcEENS2_9allocatorIcEEEEdNS_4hashIS8_vEENS2_8equal_toIS8_EEE9shiftDownEm, symObjAddr: 0x4574, symBinAddr: 0x4257C, symSize: 0xE4 }
  - { offsetInCU: 0x2272C, offset: 0x246FE1, size: 0x8, addend: 0x0, symName: __ZN10robin_hood6detail5TableILb1ELm80ENSt3__112basic_stringIcNS2_11char_traitsIcEENS2_9allocatorIcEEEEdNS_4hashIS8_vEENS2_8equal_toIS8_EEE25insertKeyPrepareEmptySpotIRKS8_EENS2_4pairImNSD_14InsertionStateEEEOT_, symObjAddr: 0x3A54, symBinAddr: 0x41C28, symSize: 0x188 }
  - { offsetInCU: 0x22777, offset: 0x24702C, size: 0x8, addend: 0x0, symName: __ZN10robin_hood6detail5TableILb1ELm80ENSt3__112basic_stringIcNS2_11char_traitsIcEENS2_9allocatorIcEEEEdNS_4hashIS8_vEENS2_8equal_toIS8_EEE13increase_sizeEv, symObjAddr: 0x3CCC, symBinAddr: 0x41E00, symSize: 0x12C }
  - { offsetInCU: 0x2283A, offset: 0x2470EF, size: 0x8, addend: 0x0, symName: __ZN10robin_hood6detail5TableILb1ELm80ENSt3__112basic_stringIcNS2_11char_traitsIcEENS2_9allocatorIcEEEEdNS_4hashIS8_vEENS2_8equal_toIS8_EEE7shiftUpEmm, symObjAddr: 0x3DF8, symBinAddr: 0x41F2C, symSize: 0x120 }
  - { offsetInCU: 0x22B3F, offset: 0x2473F4, size: 0x8, addend: 0x0, symName: __ZN10robin_hood6detail5TableILb1ELm80ENSt3__112basic_stringIcNS2_11char_traitsIcEENS2_9allocatorIcEEEEdNS_4hashIS8_vEENS2_8equal_toIS8_EEE17try_increase_infoEv, symObjAddr: 0x40C4, symBinAddr: 0x42118, symSize: 0x100 }
  - { offsetInCU: 0x22C3C, offset: 0x2474F1, size: 0x8, addend: 0x0, symName: __ZN10robin_hood6detail5TableILb1ELm80ENSt3__112basic_stringIcNS2_11char_traitsIcEENS2_9allocatorIcEEEEdNS_4hashIS8_vEENS2_8equal_toIS8_EEE8initDataEm, symObjAddr: 0x3FF8, symBinAddr: 0x4204C, symSize: 0xCC }
  - { offsetInCU: 0x22D49, offset: 0x2475FE, size: 0x8, addend: 0x0, symName: __ZN10robin_hood6detail5TableILb1ELm80ENSt3__112basic_stringIcNS2_11char_traitsIcEENS2_9allocatorIcEEEEdNS_4hashIS8_vEENS2_8equal_toIS8_EEE17try_increase_infoEv, symObjAddr: 0x40C4, symBinAddr: 0x42118, symSize: 0x100 }
  - { offsetInCU: 0x22D54, offset: 0x247609, size: 0x8, addend: 0x0, symName: __ZN10robin_hood6detail5TableILb1ELm80ENSt3__112basic_stringIcNS2_11char_traitsIcEENS2_9allocatorIcEEEEdNS_4hashIS8_vEENS2_8equal_toIS8_EEE16rehashPowerOfTwoEmb, symObjAddr: 0x41C4, symBinAddr: 0x42218, symSize: 0x100 }
  - { offsetInCU: 0x2308C, offset: 0x247941, size: 0x8, addend: 0x0, symName: __ZN10robin_hood6detail5TableILb1ELm80ENSt3__112basic_stringIcNS2_11char_traitsIcEENS2_9allocatorIcEEEEdNS_4hashIS8_vEENS2_8equal_toIS8_EEE11insert_moveEONSD_8DataNodeISD_Lb1EEE, symObjAddr: 0x42EC, symBinAddr: 0x42318, symSize: 0x15C }
  - { offsetInCU: 0x51, offset: 0x247DCD, size: 0x8, addend: 0x0, symName: __ZN3tns9Constants14SwizzledPrefixE, symObjAddr: 0x2CFE8, symBinAddr: 0x15B2020, symSize: 0x0 }
  - { offsetInCU: 0x52C8, offset: 0x24D044, size: 0x8, addend: 0x0, symName: __GLOBAL__sub_I_Constants.cpp, symObjAddr: 0x138, symBinAddr: 0x42660, symSize: 0x44 }
  - { offsetInCU: 0x35EB, offset: 0x250692, size: 0x8, addend: 0x0, symName: __ZN3tns12SymbolLoader8instanceEv, symObjAddr: 0x0, symBinAddr: 0x426A4, symSize: 0x94 }
  - { offsetInCU: 0x360D, offset: 0x2506B4, size: 0x8, addend: 0x0, symName: __ZZN3tns12SymbolLoader8instanceEvE6loader, symObjAddr: 0xA0BB8, symBinAddr: 0x159D010, symSize: 0x0 }
  - { offsetInCU: 0x5910, offset: 0x2529B7, size: 0x8, addend: 0x0, symName: __ZN3tns12SymbolLoaderD1Ev, symObjAddr: 0x94, symBinAddr: 0x42738, symSize: 0x28 }
  - { offsetInCU: 0x598D, offset: 0x252A34, size: 0x8, addend: 0x0, symName: __ZN10robin_hood6detail5TableILb1ELm80EPKN3tns10ModuleMetaENSt3__110unique_ptrINS2_14SymbolResolverENS6_14default_deleteIS8_EEEENS_4hashIS5_vEENS6_8equal_toIS5_EEE7destroyEv, symObjAddr: 0x724, symBinAddr: 0x42DC8, symSize: 0x4C }
  - { offsetInCU: 0x5E18, offset: 0x252EBF, size: 0x8, addend: 0x0, symName: __ZN3tns12SymbolLoader13resolveModuleEPKNS_10ModuleMetaE, symObjAddr: 0xBC, symBinAddr: 0x42760, symSize: 0x394 }
  - { offsetInCU: 0x6A12, offset: 0x253AB9, size: 0x8, addend: 0x0, symName: __ZNK10robin_hood6detail5TableILb1ELm80EPKN3tns10ModuleMetaENSt3__110unique_ptrINS2_14SymbolResolverENS6_14default_deleteIS8_EEEENS_4hashIS5_vEENS6_8equal_toIS5_EEE7findIdxIS5_EEmRKT_, symObjAddr: 0x850, symBinAddr: 0x42EE8, symSize: 0xD8 }
  - { offsetInCU: 0x6A6B, offset: 0x253B12, size: 0x8, addend: 0x0, symName: __ZNK10robin_hood6detail5TableILb1ELm80EPKN3tns10ModuleMetaENSt3__110unique_ptrINS2_14SymbolResolverENS6_14default_deleteIS8_EEEENS_4hashIS5_vEENS6_8equal_toIS5_EEE7findIdxIS5_EEmRKT_, symObjAddr: 0x850, symBinAddr: 0x42EE8, symSize: 0xD8 }
  - { offsetInCU: 0x6B9B, offset: 0x253C42, size: 0x8, addend: 0x0, symName: __ZNK3tns10ModuleMeta7getNameEv, symObjAddr: 0x450, symBinAddr: 0x42AF4, symSize: 0x78 }
  - { offsetInCU: 0x6E5A, offset: 0x253F01, size: 0x8, addend: 0x0, symName: __ZNK3tns11LibraryMeta7getNameEv, symObjAddr: 0x4C8, symBinAddr: 0x42B6C, symSize: 0x78 }
  - { offsetInCU: 0x70F2, offset: 0x254199, size: 0x8, addend: 0x0, symName: __ZN10robin_hood6detail5TableILb1ELm80EPKN3tns10ModuleMetaENSt3__110unique_ptrINS2_14SymbolResolverENS6_14default_deleteIS8_EEEENS_4hashIS5_vEENS6_8equal_toIS5_EEE7emplaceIJRS5_SB_EEENS6_4pairINSG_4IterILb0EEEbEEDpOT_, symObjAddr: 0x540, symBinAddr: 0x42BE4, symSize: 0x118 }
  - { offsetInCU: 0x7BF6, offset: 0x254C9D, size: 0x8, addend: 0x0, symName: __ZN10robin_hood6detail5TableILb1ELm80EPKN3tns10ModuleMetaENSt3__110unique_ptrINS2_14SymbolResolverENS6_14default_deleteIS8_EEEENS_4hashIS5_vEENS6_8equal_toIS5_EEE25insertKeyPrepareEmptySpotIRKS5_EENS6_4pairImNSG_14InsertionStateEEEOT_, symObjAddr: 0xA74, symBinAddr: 0x4310C, symSize: 0x194 }
  - { offsetInCU: 0x7D84, offset: 0x254E2B, size: 0x8, addend: 0x0, symName: __ZNK10robin_hood6detail5TableILb1ELm80EPKN3tns10ModuleMetaENSt3__110unique_ptrINS2_14SymbolResolverENS6_14default_deleteIS8_EEEENS_4hashIS5_vEENS6_8equal_toIS5_EEE18throwOverflowErrorEv, symObjAddr: 0xC08, symBinAddr: 0x432A0, symSize: 0x50 }
  - { offsetInCU: 0x7DB8, offset: 0x254E5F, size: 0x8, addend: 0x0, symName: __ZN3tns12SymbolLoader18loadFunctionSymbolEPKNS_10ModuleMetaEPKc, symObjAddr: 0x658, symBinAddr: 0x42CFC, symSize: 0x44 }
  - { offsetInCU: 0x7E51, offset: 0x254EF8, size: 0x8, addend: 0x0, symName: __ZN3tns12SymbolLoader14loadDataSymbolEPKNS_10ModuleMetaEPKc, symObjAddr: 0x69C, symBinAddr: 0x42D40, symSize: 0x44 }
  - { offsetInCU: 0x7ED3, offset: 0x254F7A, size: 0x8, addend: 0x0, symName: __ZN3tns12SymbolLoader12ensureModuleEPKNS_10ModuleMetaE, symObjAddr: 0x6E0, symBinAddr: 0x42D84, symSize: 0x44 }
  - { offsetInCU: 0x7F44, offset: 0x254FEB, size: 0x8, addend: 0x0, symName: __ZNK10robin_hood6detail5TableILb1ELm80EPKN3tns10ModuleMetaENSt3__110unique_ptrINS2_14SymbolResolverENS6_14default_deleteIS8_EEEENS_4hashIS5_vEENS6_8equal_toIS5_EEE9DestroyerISG_Lb0EE20nodesDoNotDeallocateERSG_, symObjAddr: 0x77C, symBinAddr: 0x42E14, symSize: 0xD4 }
  - { offsetInCU: 0x8261, offset: 0x255308, size: 0x8, addend: 0x0, symName: __ZN3tns22CFBundleSymbolResolver18loadFunctionSymbolEPKc, symObjAddr: 0x928, symBinAddr: 0x42FC0, symSize: 0x60 }
  - { offsetInCU: 0x8323, offset: 0x2553CA, size: 0x8, addend: 0x0, symName: __ZN3tns22CFBundleSymbolResolver14loadDataSymbolEPKc, symObjAddr: 0x988, symBinAddr: 0x43020, symSize: 0x60 }
  - { offsetInCU: 0x83B6, offset: 0x25545D, size: 0x8, addend: 0x0, symName: __ZN3tns22CFBundleSymbolResolver4loadEv, symObjAddr: 0x9E8, symBinAddr: 0x43080, symSize: 0x5C }
  - { offsetInCU: 0x844A, offset: 0x2554F1, size: 0x8, addend: 0x0, symName: __ZN3tns22CFBundleSymbolResolverD1Ev, symObjAddr: 0xA44, symBinAddr: 0x430DC, symSize: 0x4 }
  - { offsetInCU: 0x8475, offset: 0x25551C, size: 0x8, addend: 0x0, symName: __ZN3tns22CFBundleSymbolResolverD0Ev, symObjAddr: 0xA48, symBinAddr: 0x430E0, symSize: 0x4 }
  - { offsetInCU: 0x84A0, offset: 0x255547, size: 0x8, addend: 0x0, symName: __ZN3tns16DlSymbolResolver18loadFunctionSymbolEPKc, symObjAddr: 0xA4C, symBinAddr: 0x430E4, symSize: 0x8 }
  - { offsetInCU: 0x84E1, offset: 0x255588, size: 0x8, addend: 0x0, symName: __ZN3tns16DlSymbolResolver14loadDataSymbolEPKc, symObjAddr: 0xA54, symBinAddr: 0x430EC, symSize: 0x8 }
  - { offsetInCU: 0x8522, offset: 0x2555C9, size: 0x8, addend: 0x0, symName: __ZN3tns16DlSymbolResolver4loadEv, symObjAddr: 0xA5C, symBinAddr: 0x430F4, symSize: 0x10 }
  - { offsetInCU: 0x8549, offset: 0x2555F0, size: 0x8, addend: 0x0, symName: __ZN3tns16DlSymbolResolverD1Ev, symObjAddr: 0xA6C, symBinAddr: 0x43104, symSize: 0x4 }
  - { offsetInCU: 0x8574, offset: 0x25561B, size: 0x8, addend: 0x0, symName: __ZN3tns16DlSymbolResolverD0Ev, symObjAddr: 0xA70, symBinAddr: 0x43108, symSize: 0x4 }
  - { offsetInCU: 0x85CD, offset: 0x255674, size: 0x8, addend: 0x0, symName: __ZN10robin_hood6detail5TableILb1ELm80EPKN3tns10ModuleMetaENSt3__110unique_ptrINS2_14SymbolResolverENS6_14default_deleteIS8_EEEENS_4hashIS5_vEENS6_8equal_toIS5_EEE13increase_sizeEv, symObjAddr: 0xC58, symBinAddr: 0x432F0, symSize: 0x12C }
  - { offsetInCU: 0x8690, offset: 0x255737, size: 0x8, addend: 0x0, symName: __ZN10robin_hood6detail5TableILb1ELm80EPKN3tns10ModuleMetaENSt3__110unique_ptrINS2_14SymbolResolverENS6_14default_deleteIS8_EEEENS_4hashIS5_vEENS6_8equal_toIS5_EEE7shiftUpEmm, symObjAddr: 0xD84, symBinAddr: 0x4341C, symSize: 0xEC }
  - { offsetInCU: 0x8860, offset: 0x255907, size: 0x8, addend: 0x0, symName: __ZN10robin_hood6detail5TableILb1ELm80EPKN3tns10ModuleMetaENSt3__110unique_ptrINS2_14SymbolResolverENS6_14default_deleteIS8_EEEENS_4hashIS5_vEENS6_8equal_toIS5_EEE17try_increase_infoEv, symObjAddr: 0xF3C, symBinAddr: 0x435D4, symSize: 0x100 }
  - { offsetInCU: 0x895D, offset: 0x255A04, size: 0x8, addend: 0x0, symName: __ZN10robin_hood6detail5TableILb1ELm80EPKN3tns10ModuleMetaENSt3__110unique_ptrINS2_14SymbolResolverENS6_14default_deleteIS8_EEEENS_4hashIS5_vEENS6_8equal_toIS5_EEE8initDataEm, symObjAddr: 0xE70, symBinAddr: 0x43508, symSize: 0xCC }
  - { offsetInCU: 0x8A6B, offset: 0x255B12, size: 0x8, addend: 0x0, symName: __ZN10robin_hood6detail5TableILb1ELm80EPKN3tns10ModuleMetaENSt3__110unique_ptrINS2_14SymbolResolverENS6_14default_deleteIS8_EEEENS_4hashIS5_vEENS6_8equal_toIS5_EEE17try_increase_infoEv, symObjAddr: 0xF3C, symBinAddr: 0x435D4, symSize: 0x100 }
  - { offsetInCU: 0x8A75, offset: 0x255B1C, size: 0x8, addend: 0x0, symName: __ZN10robin_hood6detail5TableILb1ELm80EPKN3tns10ModuleMetaENSt3__110unique_ptrINS2_14SymbolResolverENS6_14default_deleteIS8_EEEENS_4hashIS5_vEENS6_8equal_toIS5_EEE16rehashPowerOfTwoEmb, symObjAddr: 0x103C, symBinAddr: 0x436D4, symSize: 0x108 }
  - { offsetInCU: 0x8CF7, offset: 0x255D9E, size: 0x8, addend: 0x0, symName: __ZN10robin_hood6detail5TableILb1ELm80EPKN3tns10ModuleMetaENSt3__110unique_ptrINS2_14SymbolResolverENS6_14default_deleteIS8_EEEENS_4hashIS5_vEENS6_8equal_toIS5_EEE11insert_moveEONSG_8DataNodeISG_Lb1EEE, symObjAddr: 0x116C, symBinAddr: 0x437DC, symSize: 0x160 }
  - { offsetInCU: 0x3305, offset: 0x2598F4, size: 0x8, addend: 0x0, symName: __ZN3tns22FastEnumerationAdapterEPN2v87IsolateEP11objc_objectP22NSFastEnumerationStatePS4_mPNS0_10PersistentINS0_8FunctionENS0_27NonCopyablePersistentTraitsIS9_EEEE, symObjAddr: 0x0, symBinAddr: 0x4393C, symSize: 0x618 }
  - { offsetInCU: 0xE2, offset: 0x25D7D5, size: 0x8, addend: 0x0, symName: __ZN3tns30collectInheritanceChainMembersEPKcmNS_10MemberTypeEbPKNS_13BaseClassMetaENSt3__18functionIFvPKNS_10MemberMetaEEEE, symObjAddr: 0x1110, symBinAddr: 0x44E10, symSize: 0x6B4 }
  - { offsetInCU: 0x114, offset: 0x25D807, size: 0x8, addend: 0x0, symName: __ZZN3tns30collectInheritanceChainMembersEPKcmNS_10MemberTypeEbPKNS_13BaseClassMetaENSt3__18functionIFvPKNS_10MemberMetaEEEEE11nsObjectLen, symObjAddr: 0x1E43B8, symBinAddr: 0x159D090, symSize: 0x0 }
  - { offsetInCU: 0x1C3B, offset: 0x25F32E, size: 0x8, addend: 0x0, symName: __ZN3tnsL16metaFileInstanceE, symObjAddr: 0x1E43C8, symBinAddr: 0x159D0A0, symSize: 0x0 }
  - { offsetInCU: 0x2803, offset: 0x25FEF6, size: 0x8, addend: 0x0, symName: __ZN3tns22LogMetadataUnavailableEPKchhS1_, symObjAddr: 0x0, symBinAddr: 0x43F54, symSize: 0x34 }
  - { offsetInCU: 0x2870, offset: 0x25FF63, size: 0x8, addend: 0x0, symName: __ZN3tns17getMetasByJSNamesENSt3__13setIPKNS_10MemberMetaENS0_4lessIS4_EENS0_9allocatorIS4_EEEE, symObjAddr: 0x34, symBinAddr: 0x43F88, symSize: 0x1C0 }
  - { offsetInCU: 0x12F2A, offset: 0x27061D, size: 0x8, addend: 0x0, symName: __ZNSt3__119__allocate_at_leastB8ue170006INS_9allocatorIPKN3tns12PropertyMetaEEEEENS_19__allocation_resultINS_16allocator_traitsIT_E7pointerEEERS9_m, symObjAddr: 0x36EC, symBinAddr: 0x464B4, symSize: 0x34 }
  - { offsetInCU: 0x12FC8, offset: 0x2706BB, size: 0x8, addend: 0x0, symName: __ZNSt3__16vectorIPKN3tns12PropertyMetaENS_9allocatorIS4_EEE16__init_with_sizeB8ue170006IPS4_S9_EEvT_T0_m, symObjAddr: 0x3720, symBinAddr: 0x464E8, symSize: 0x78 }
  - { offsetInCU: 0x15207, offset: 0x2728FA, size: 0x8, addend: 0x0, symName: __ZNK3tns10MethodMeta20isImplementedInClassEP10objc_classb, symObjAddr: 0x3F0, symBinAddr: 0x44344, symSize: 0x208 }
  - { offsetInCU: 0x1522C, offset: 0x27291F, size: 0x8, addend: 0x0, symName: __ZZNK3tns10MethodMeta20isImplementedInClassEP10objc_classbE15sampleInstances, symObjAddr: 0x1E4378, symBinAddr: 0x159D050, symSize: 0x0 }
  - { offsetInCU: 0x196AC, offset: 0x276D9F, size: 0x8, addend: 0x0, symName: __ZNK3tns13BaseClassMeta7membersEPKcmNS_10MemberTypeEbbRKNSt3__16vectorIPKNS_12ProtocolMetaENS4_9allocatorIS8_EEEE, symObjAddr: 0xCA0, symBinAddr: 0x449A0, symSize: 0x470 }
  - { offsetInCU: 0x1D508, offset: 0x27ABFB, size: 0x8, addend: 0x0, symName: __ZN10robin_hood6detail5TableILb1ELm80ENSt3__112basic_stringIcNS2_11char_traitsIcEENS2_9allocatorIcEEEENS2_3setIPKN3tns10MemberMetaENS2_4lessISD_EENS6_ISD_EEEENS_4hashIS8_vEENS2_8equal_toIS8_EEE25insertKeyPrepareEmptySpotIRS8_EENS2_4pairImNSM_14InsertionStateEEEOT_, symObjAddr: 0x39A8, symBinAddr: 0x466D0, symSize: 0x18C }
  - { offsetInCU: 0x1D51F, offset: 0x27AC12, size: 0x8, addend: 0x0, symName: __ZN10robin_hood6detail5TableILb1ELm80ENSt3__112basic_stringIcNS2_11char_traitsIcEENS2_9allocatorIcEEEENS2_3setIPKN3tns10MemberMetaENS2_4lessISD_EENS6_ISD_EEEENS_4hashIS8_vEENS2_8equal_toIS8_EEEixISH_EENS2_9enable_ifIXntsr3std7is_voidIT_EE5valueERSP_E4typeEOS8_, symObjAddr: 0x1F4, symBinAddr: 0x44148, symSize: 0x15C }
  - { offsetInCU: 0x1DD75, offset: 0x27B468, size: 0x8, addend: 0x0, symName: __ZNSt3__16__treeIPKN3tns10MemberMetaENS_4lessIS4_EENS_9allocatorIS4_EEE25__emplace_unique_key_argsIS4_JRKS4_EEENS_4pairINS_15__tree_iteratorIS4_PNS_11__tree_nodeIS4_PvEElEEbEERKT_DpOT0_, symObjAddr: 0x44B0, symBinAddr: 0x47018, symSize: 0xB8 }
  - { offsetInCU: 0x1DFC6, offset: 0x27B6B9, size: 0x8, addend: 0x0, symName: __ZN10robin_hood6detail5TableILb1ELm80ENSt3__112basic_stringIcNS2_11char_traitsIcEENS2_9allocatorIcEEEENS2_3setIPKN3tns10MemberMetaENS2_4lessISD_EENS6_ISD_EEEENS_4hashIS8_vEENS2_8equal_toIS8_EEE7destroyEv, symObjAddr: 0x37D8, symBinAddr: 0x465A0, symSize: 0x4C }
  - { offsetInCU: 0x1E5FD, offset: 0x27BCF0, size: 0x8, addend: 0x0, symName: __ZN10robin_hood6detail5TableILb1ELm80ENSt3__112basic_stringIcNS2_11char_traitsIcEENS2_9allocatorIcEEEENS2_3setIPKN3tns10MemberMetaENS2_4lessISD_EENS6_ISD_EEEENS_4hashIS8_vEENS2_8equal_toIS8_EEE25insertKeyPrepareEmptySpotIRS8_EENS2_4pairImNSM_14InsertionStateEEEOT_, symObjAddr: 0x39A8, symBinAddr: 0x466D0, symSize: 0x18C }
  - { offsetInCU: 0x1E739, offset: 0x27BE2C, size: 0x8, addend: 0x0, symName: __ZNK10robin_hood6detail5TableILb1ELm80ENSt3__112basic_stringIcNS2_11char_traitsIcEENS2_9allocatorIcEEEENS2_3setIPKN3tns10MemberMetaENS2_4lessISD_EENS6_ISD_EEEENS_4hashIS8_vEENS2_8equal_toIS8_EEE18throwOverflowErrorEv, symObjAddr: 0x3B34, symBinAddr: 0x4685C, symSize: 0x50 }
  - { offsetInCU: 0x1E83F, offset: 0x27BF32, size: 0x8, addend: 0x0, symName: __ZNK3tns4Meta11isAvailableEv, symObjAddr: 0x350, symBinAddr: 0x442A4, symSize: 0xA0 }
  - { offsetInCU: 0x1E9A4, offset: 0x27C097, size: 0x8, addend: 0x0, symName: __ZNK10robin_hood6detail5TableILb1ELm80EP10objc_classP11objc_objectNS_4hashIS3_vEENSt3__18equal_toIS3_EEE7findIdxIS3_EEmRKT_, symObjAddr: 0x4754, symBinAddr: 0x47124, symSize: 0xD8 }
  - { offsetInCU: 0x1E9FD, offset: 0x27C0F0, size: 0x8, addend: 0x0, symName: __ZNK10robin_hood6detail5TableILb1ELm80EP10objc_classP11objc_objectNS_4hashIS3_vEENSt3__18equal_toIS3_EEE7findIdxIS3_EEmRKT_, symObjAddr: 0x4754, symBinAddr: 0x47124, symSize: 0xD8 }
  - { offsetInCU: 0x1EB33, offset: 0x27C226, size: 0x8, addend: 0x0, symName: __ZN10robin_hood6detail5TableILb1ELm80EP10objc_classP11objc_objectNS_4hashIS3_vEENSt3__18equal_toIS3_EEE7emplaceIJRS3_S5_EEENS8_4pairINSB_4IterILb0EEEbEEDpOT_, symObjAddr: 0x844, symBinAddr: 0x4458C, symSize: 0x94 }
  - { offsetInCU: 0x1F132, offset: 0x27C825, size: 0x8, addend: 0x0, symName: __ZN10robin_hood6detail5TableILb1ELm80EP10objc_classP11objc_objectNS_4hashIS3_vEENSt3__18equal_toIS3_EEED1Ev, symObjAddr: 0x804, symBinAddr: 0x4454C, symSize: 0x40 }
  - { offsetInCU: 0x1F393, offset: 0x27CA86, size: 0x8, addend: 0x0, symName: __ZN10robin_hood6detail5TableILb1ELm80EP10objc_classP11objc_objectNS_4hashIS3_vEENSt3__18equal_toIS3_EEE25insertKeyPrepareEmptySpotIRKS3_EENS8_4pairImNSB_14InsertionStateEEEOT_, symObjAddr: 0x482C, symBinAddr: 0x471FC, symSize: 0x194 }
  - { offsetInCU: 0x1F521, offset: 0x27CC14, size: 0x8, addend: 0x0, symName: __ZNK10robin_hood6detail5TableILb1ELm80EP10objc_classP11objc_objectNS_4hashIS3_vEENSt3__18equal_toIS3_EEE18throwOverflowErrorEv, symObjAddr: 0x49C0, symBinAddr: 0x47390, symSize: 0x50 }
  - { offsetInCU: 0x1F6B1, offset: 0x27CDA4, size: 0x8, addend: 0x0, symName: __ZNK3tns13BaseClassMeta12protocolsSetEv, symObjAddr: 0x8D8, symBinAddr: 0x44620, symSize: 0x14C }
  - { offsetInCU: 0x200DF, offset: 0x27D7D2, size: 0x8, addend: 0x0, symName: __ZNK3tns11GlobalTableILNS_15GlobalTableTypeE0EE12findProtocolEPKc, symObjAddr: 0x2614, symBinAddr: 0x46314, symSize: 0x50 }
  - { offsetInCU: 0x20194, offset: 0x27D887, size: 0x8, addend: 0x0, symName: __ZNSt3__16__treeIPKN3tns12ProtocolMetaENS_4lessIS4_EENS_9allocatorIS4_EEE25__emplace_unique_key_argsIS4_JRKS4_EEENS_4pairINS_15__tree_iteratorIS4_PNS_11__tree_nodeIS4_PvEElEEbEERKT_DpOT0_, symObjAddr: 0x4FF8, symBinAddr: 0x479C8, symSize: 0xB8 }
  - { offsetInCU: 0x203E5, offset: 0x27DAD8, size: 0x8, addend: 0x0, symName: __ZNSt3__16__treeIPKN3tns12ProtocolMetaENS_4lessIS4_EENS_9allocatorIS4_EEE7destroyEPNS_11__tree_nodeIS4_PvEE, symObjAddr: 0x4FB8, symBinAddr: 0x47988, symSize: 0x40 }
  - { offsetInCU: 0x20514, offset: 0x27DC07, size: 0x8, addend: 0x0, symName: __ZNK3tns13BaseClassMeta16deepProtocolsSetEv, symObjAddr: 0xA24, symBinAddr: 0x4476C, symSize: 0x48 }
  - { offsetInCU: 0x206C4, offset: 0x27DDB7, size: 0x8, addend: 0x0, symName: __ZNK3tns13BaseClassMeta16deepProtocolsSetERNSt3__13setIPKNS_12ProtocolMetaENS1_4lessIS5_EENS1_9allocatorIS5_EEEE, symObjAddr: 0xA6C, symBinAddr: 0x447B4, symSize: 0x19C }
  - { offsetInCU: 0x2133B, offset: 0x27EA2E, size: 0x8, addend: 0x0, symName: __ZNK3tns13BaseClassMeta6memberEPKcmNS_10MemberTypeEbbRKNSt3__16vectorIPKNS_12ProtocolMetaENS4_9allocatorIS8_EEEE, symObjAddr: 0xC50, symBinAddr: 0x44950, symSize: 0x50 }
  - { offsetInCU: 0x21C77, offset: 0x27F36A, size: 0x8, addend: 0x0, symName: __ZNSt3__16__treeINS_12__value_typeIiPKN3tns10MemberMetaEEENS_19__map_value_compareIiS6_NS_4lessIiEELb1EEENS_9allocatorIS6_EEE7destroyEPNS_11__tree_nodeIS6_PvEE, symObjAddr: 0x53C8, symBinAddr: 0x47D4C, symSize: 0x40 }
  - { offsetInCU: 0x21DA6, offset: 0x27F499, size: 0x8, addend: 0x0, symName: __ZNSt3__13setIPKN3tns10MemberMetaENS_4lessIS4_EENS_9allocatorIS4_EEE6insertB8ue170006INS_21__tree_const_iteratorIS4_PNS_11__tree_nodeIS4_PvEElEEEEvT_SH_, symObjAddr: 0x5688, symBinAddr: 0x4800C, symSize: 0x84 }
  - { offsetInCU: 0x2241E, offset: 0x27FB11, size: 0x8, addend: 0x0, symName: __ZNK3tns5ArrayINS_5PtrToINS_10MemberMetaEEEE20binarySearchLeftmostENSt3__18functionIFiRKS3_EEE, symObjAddr: 0x17C4, symBinAddr: 0x454C4, symSize: 0x110 }
  - { offsetInCU: 0x22670, offset: 0x27FD63, size: 0x8, addend: 0x0, symName: __ZNSt3__110__function12__value_funcIFvPKN3tns10MemberMetaEEEC2B8ue170006ERKS7_, symObjAddr: 0x5364, symBinAddr: 0x47CE8, symSize: 0x64 }
  - { offsetInCU: 0x2278B, offset: 0x27FE7E, size: 0x8, addend: 0x0, symName: __ZNSt3__110__function12__value_funcIFiRKN3tns5PtrToINS2_10MemberMetaEEEEEC2B8ue170006ERKS9_, symObjAddr: 0x519C, symBinAddr: 0x47B6C, symSize: 0x64 }
  - { offsetInCU: 0x227DE, offset: 0x27FED1, size: 0x8, addend: 0x0, symName: __ZNK3tns5ArrayINS_5PtrToINS_10MemberMetaEEEE12binarySearchENSt3__18functionIFiRKS3_EEE, symObjAddr: 0x5104, symBinAddr: 0x47AD4, symSize: 0x98 }
  - { offsetInCU: 0x228CE, offset: 0x27FFC1, size: 0x8, addend: 0x0, symName: __ZNSt3__110__function12__value_funcIFiRKN3tns5PtrToINS2_10MemberMetaEEEEEC2B8ue170006ERKS9_, symObjAddr: 0x519C, symBinAddr: 0x47B6C, symSize: 0x64 }
  - { offsetInCU: 0x229D1, offset: 0x2800C4, size: 0x8, addend: 0x0, symName: __ZNK3tns13BaseClassMeta31instancePropertiesWithProtocolsERNSt3__16vectorIPKNS_12PropertyMetaENS1_9allocatorIS5_EEEENS_21KnownUnknownClassPairERKNS2_IPKNS_12ProtocolMetaENS6_ISD_EEEE, symObjAddr: 0x18D4, symBinAddr: 0x455D4, symSize: 0x228 }
  - { offsetInCU: 0x23973, offset: 0x281066, size: 0x8, addend: 0x0, symName: __ZNK3tns13BaseClassMeta18instancePropertiesERNSt3__16vectorIPKNS_12PropertyMetaENS1_9allocatorIS5_EEEENS_21KnownUnknownClassPairE, symObjAddr: 0x1AFC, symBinAddr: 0x457FC, symSize: 0x290 }
  - { offsetInCU: 0x24736, offset: 0x281E29, size: 0x8, addend: 0x0, symName: __ZNK3tns13BaseClassMeta29staticPropertiesWithProtocolsERNSt3__16vectorIPKNS_12PropertyMetaENS1_9allocatorIS5_EEEENS_21KnownUnknownClassPairERKNS2_IPKNS_12ProtocolMetaENS6_ISD_EEEE, symObjAddr: 0x1D8C, symBinAddr: 0x45A8C, symSize: 0x228 }
  - { offsetInCU: 0x24741, offset: 0x281E34, size: 0x8, addend: 0x0, symName: __ZNSt3__16vectorIPKN3tns12PropertyMetaENS_9allocatorIS4_EEE16__init_with_sizeB8ue170006IPS4_S9_EEvT_T0_m, symObjAddr: 0x3720, symBinAddr: 0x464E8, symSize: 0x78 }
  - { offsetInCU: 0x24FBC, offset: 0x2826AF, size: 0x8, addend: 0x0, symName: __ZNK3tns12PropertyMeta20isImplementedInClassEP10objc_classb, symObjAddr: 0x35A8, symBinAddr: 0x46370, symSize: 0x130 }
  - { offsetInCU: 0x253C7, offset: 0x282ABA, size: 0x8, addend: 0x0, symName: __ZNKSt3__16vectorIPKN3tns12PropertyMetaENS_9allocatorIS4_EEE20__throw_length_errorB8ue170006Ev, symObjAddr: 0x36D8, symBinAddr: 0x464A0, symSize: 0x14 }
  - { offsetInCU: 0x253F0, offset: 0x282AE3, size: 0x8, addend: 0x0, symName: __ZNSt3__119__allocate_at_leastB8ue170006INS_9allocatorIPKN3tns12PropertyMetaEEEEENS_19__allocation_resultINS_16allocator_traitsIT_E7pointerEEERS9_m, symObjAddr: 0x36EC, symBinAddr: 0x464B4, symSize: 0x34 }
  - { offsetInCU: 0x253FB, offset: 0x282AEE, size: 0x8, addend: 0x0, symName: __ZNK3tns13BaseClassMeta29staticPropertiesWithProtocolsERNSt3__16vectorIPKNS_12PropertyMetaENS1_9allocatorIS5_EEEENS_21KnownUnknownClassPairERKNS2_IPKNS_12ProtocolMetaENS6_ISD_EEEE, symObjAddr: 0x1D8C, symBinAddr: 0x45A8C, symSize: 0x228 }
  - { offsetInCU: 0x26339, offset: 0x283A2C, size: 0x8, addend: 0x0, symName: __ZNK3tns13BaseClassMeta16staticPropertiesERNSt3__16vectorIPKNS_12PropertyMetaENS1_9allocatorIS5_EEEENS_21KnownUnknownClassPairE, symObjAddr: 0x1FB4, symBinAddr: 0x45CB4, symSize: 0x290 }
  - { offsetInCU: 0x270FC, offset: 0x2847EF, size: 0x8, addend: 0x0, symName: __ZNK3tns13BaseClassMeta12initializersERNSt3__16vectorIPKNS_10MethodMetaENS1_9allocatorIS5_EEEENS_21KnownUnknownClassPairE, symObjAddr: 0x2244, symBinAddr: 0x45F44, symSize: 0x1E4 }
  - { offsetInCU: 0x275A3, offset: 0x284C96, size: 0x8, addend: 0x0, symName: __ZNK3tns13BaseClassMeta12initializersERNSt3__16vectorIPKNS_10MethodMetaENS1_9allocatorIS5_EEEENS_21KnownUnknownClassPairE, symObjAddr: 0x2244, symBinAddr: 0x45F44, symSize: 0x1E4 }
  - { offsetInCU: 0x27E62, offset: 0x285555, size: 0x8, addend: 0x0, symName: __ZNK3tns13BaseClassMeta25initializersWithProtocolsERNSt3__16vectorIPKNS_10MethodMetaENS1_9allocatorIS5_EEEENS_21KnownUnknownClassPairERKNS2_IPKNS_12ProtocolMetaENS6_ISD_EEEE, symObjAddr: 0x2428, symBinAddr: 0x46128, symSize: 0x1E0 }
  - { offsetInCU: 0x281B3, offset: 0x2858A6, size: 0x8, addend: 0x0, symName: __ZNK3tns13BaseClassMeta25initializersWithProtocolsERNSt3__16vectorIPKNS_10MethodMetaENS1_9allocatorIS5_EEEENS_21KnownUnknownClassPairERKNS2_IPKNS_12ProtocolMetaENS6_ISD_EEEE, symObjAddr: 0x2428, symBinAddr: 0x46128, symSize: 0x1E0 }
  - { offsetInCU: 0x28DB3, offset: 0x2864A6, size: 0x8, addend: 0x0, symName: __ZN3tns8MetaFile8instanceEv, symObjAddr: 0x2608, symBinAddr: 0x46308, symSize: 0xC }
  - { offsetInCU: 0x29392, offset: 0x286A85, size: 0x8, addend: 0x0, symName: __ZN3tns8MetaFile11setInstanceEPv, symObjAddr: 0x2664, symBinAddr: 0x46364, symSize: 0xC }
  - { offsetInCU: 0x2A7F9, offset: 0x287EEC, size: 0x8, addend: 0x0, symName: __ZNSt3__16vectorIPKN3tns12PropertyMetaENS_9allocatorIS4_EEE11__vallocateB8ue170006Em, symObjAddr: 0x3798, symBinAddr: 0x46560, symSize: 0x40 }
  - { offsetInCU: 0x2A86C, offset: 0x287F5F, size: 0x8, addend: 0x0, symName: __ZN10robin_hood6detail5TableILb1ELm80ENSt3__112basic_stringIcNS2_11char_traitsIcEENS2_9allocatorIcEEEENS2_3setIPKN3tns10MemberMetaENS2_4lessISD_EENS6_ISD_EEEENS_4hashIS8_vEENS2_8equal_toIS8_EEE7destroyEv, symObjAddr: 0x37D8, symBinAddr: 0x465A0, symSize: 0x4C }
  - { offsetInCU: 0x2A898, offset: 0x287F8B, size: 0x8, addend: 0x0, symName: __ZNK10robin_hood6detail5TableILb1ELm80ENSt3__112basic_stringIcNS2_11char_traitsIcEENS2_9allocatorIcEEEENS2_3setIPKN3tns10MemberMetaENS2_4lessISD_EENS6_ISD_EEEENS_4hashIS8_vEENS2_8equal_toIS8_EEE9DestroyerISM_Lb0EE20nodesDoNotDeallocateERSM_, symObjAddr: 0x3824, symBinAddr: 0x465EC, symSize: 0xE4 }
  - { offsetInCU: 0x2AE25, offset: 0x288518, size: 0x8, addend: 0x0, symName: __ZN10robin_hood6detail5TableILb1ELm80ENSt3__112basic_stringIcNS2_11char_traitsIcEENS2_9allocatorIcEEEENS2_3setIPKN3tns10MemberMetaENS2_4lessISD_EENS6_ISD_EEEENS_4hashIS8_vEENS2_8equal_toIS8_EEE13increase_sizeEv, symObjAddr: 0x3C24, symBinAddr: 0x468AC, symSize: 0x12C }
  - { offsetInCU: 0x2AEE8, offset: 0x2885DB, size: 0x8, addend: 0x0, symName: __ZN10robin_hood6detail5TableILb1ELm80ENSt3__112basic_stringIcNS2_11char_traitsIcEENS2_9allocatorIcEEEENS2_3setIPKN3tns10MemberMetaENS2_4lessISD_EENS6_ISD_EEEENS_4hashIS8_vEENS2_8equal_toIS8_EEE7shiftUpEmm, symObjAddr: 0x3D50, symBinAddr: 0x469D8, symSize: 0x154 }
  - { offsetInCU: 0x2B254, offset: 0x288947, size: 0x8, addend: 0x0, symName: __ZN10robin_hood6detail5TableILb1ELm80ENSt3__112basic_stringIcNS2_11char_traitsIcEENS2_9allocatorIcEEEENS2_3setIPKN3tns10MemberMetaENS2_4lessISD_EENS6_ISD_EEEENS_4hashIS8_vEENS2_8equal_toIS8_EEE17try_increase_infoEv, symObjAddr: 0x4060, symBinAddr: 0x46C08, symSize: 0x100 }
  - { offsetInCU: 0x2B351, offset: 0x288A44, size: 0x8, addend: 0x0, symName: __ZN10robin_hood6detail5TableILb1ELm80ENSt3__112basic_stringIcNS2_11char_traitsIcEENS2_9allocatorIcEEEENS2_3setIPKN3tns10MemberMetaENS2_4lessISD_EENS6_ISD_EEEENS_4hashIS8_vEENS2_8equal_toIS8_EEE8initDataEm, symObjAddr: 0x3F84, symBinAddr: 0x46B2C, symSize: 0xDC }
  - { offsetInCU: 0x2B45E, offset: 0x288B51, size: 0x8, addend: 0x0, symName: __ZN10robin_hood6detail5TableILb1ELm80ENSt3__112basic_stringIcNS2_11char_traitsIcEENS2_9allocatorIcEEEENS2_3setIPKN3tns10MemberMetaENS2_4lessISD_EENS6_ISD_EEEENS_4hashIS8_vEENS2_8equal_toIS8_EEE17try_increase_infoEv, symObjAddr: 0x4060, symBinAddr: 0x46C08, symSize: 0x100 }
  - { offsetInCU: 0x2B469, offset: 0x288B5C, size: 0x8, addend: 0x0, symName: __ZN10robin_hood6detail5TableILb1ELm80ENSt3__112basic_stringIcNS2_11char_traitsIcEENS2_9allocatorIcEEEENS2_3setIPKN3tns10MemberMetaENS2_4lessISD_EENS6_ISD_EEEENS_4hashIS8_vEENS2_8equal_toIS8_EEE16rehashPowerOfTwoEmb, symObjAddr: 0x4160, symBinAddr: 0x46D08, symSize: 0x10C }
  - { offsetInCU: 0x2B8B4, offset: 0x288FA7, size: 0x8, addend: 0x0, symName: __ZNSt3__16__treeIPKN3tns10MemberMetaENS_4lessIS4_EENS_9allocatorIS4_EEE13__move_assignERS9_NS_17integral_constantIbLb1EEE, symObjAddr: 0x4408, symBinAddr: 0x46FB0, symSize: 0x68 }
  - { offsetInCU: 0x2B93F, offset: 0x289032, size: 0x8, addend: 0x0, symName: __ZN10robin_hood6detail5TableILb1ELm80ENSt3__112basic_stringIcNS2_11char_traitsIcEENS2_9allocatorIcEEEENS2_3setIPKN3tns10MemberMetaENS2_4lessISD_EENS6_ISD_EEEENS_4hashIS8_vEENS2_8equal_toIS8_EEE11insert_moveEONSM_8DataNodeISM_Lb1EEE, symObjAddr: 0x426C, symBinAddr: 0x46E14, symSize: 0x19C }
  - { offsetInCU: 0x2BF7C, offset: 0x28966F, size: 0x8, addend: 0x0, symName: __ZNSt3__16__treeIPKN3tns10MemberMetaENS_4lessIS4_EENS_9allocatorIS4_EEE16__insert_node_atEPNS_15__tree_end_nodeIPNS_16__tree_node_baseIPvEEEERSE_SE_, symObjAddr: 0x4568, symBinAddr: 0x470D0, symSize: 0x54 }
  - { offsetInCU: 0x2C12D, offset: 0x289820, size: 0x8, addend: 0x0, symName: __ZN10robin_hood6detail5TableILb1ELm80EP10objc_classP11objc_objectNS_4hashIS3_vEENSt3__18equal_toIS3_EEE13increase_sizeEv, symObjAddr: 0x4A10, symBinAddr: 0x473E0, symSize: 0x12C }
  - { offsetInCU: 0x2C1F0, offset: 0x2898E3, size: 0x8, addend: 0x0, symName: __ZN10robin_hood6detail5TableILb1ELm80EP10objc_classP11objc_objectNS_4hashIS3_vEENSt3__18equal_toIS3_EEE7shiftUpEmm, symObjAddr: 0x4B3C, symBinAddr: 0x4750C, symSize: 0x98 }
  - { offsetInCU: 0x2C27B, offset: 0x28996E, size: 0x8, addend: 0x0, symName: __ZN10robin_hood6detail5TableILb1ELm80EP10objc_classP11objc_objectNS_4hashIS3_vEENSt3__18equal_toIS3_EEE17try_increase_infoEv, symObjAddr: 0x4CA0, symBinAddr: 0x47670, symSize: 0x100 }
  - { offsetInCU: 0x2C378, offset: 0x289A6B, size: 0x8, addend: 0x0, symName: __ZN10robin_hood6detail5TableILb1ELm80EP10objc_classP11objc_objectNS_4hashIS3_vEENSt3__18equal_toIS3_EEE8initDataEm, symObjAddr: 0x4BD4, symBinAddr: 0x475A4, symSize: 0xCC }
  - { offsetInCU: 0x2C485, offset: 0x289B78, size: 0x8, addend: 0x0, symName: __ZN10robin_hood6detail5TableILb1ELm80EP10objc_classP11objc_objectNS_4hashIS3_vEENSt3__18equal_toIS3_EEE17try_increase_infoEv, symObjAddr: 0x4CA0, symBinAddr: 0x47670, symSize: 0x100 }
  - { offsetInCU: 0x2C490, offset: 0x289B83, size: 0x8, addend: 0x0, symName: __ZN10robin_hood6detail5TableILb1ELm80EP10objc_classP11objc_objectNS_4hashIS3_vEENSt3__18equal_toIS3_EEE16rehashPowerOfTwoEmb, symObjAddr: 0x4DA0, symBinAddr: 0x47770, symSize: 0xF0 }
  - { offsetInCU: 0x2C602, offset: 0x289CF5, size: 0x8, addend: 0x0, symName: __ZN10robin_hood6detail5TableILb1ELm80EP10objc_classP11objc_objectNS_4hashIS3_vEENSt3__18equal_toIS3_EEE11insert_moveEONSB_8DataNodeISB_Lb1EEE, symObjAddr: 0x4E90, symBinAddr: 0x47860, symSize: 0x128 }
  - { offsetInCU: 0x2C954, offset: 0x28A047, size: 0x8, addend: 0x0, symName: __ZNSt3__16__treeIPKN3tns12ProtocolMetaENS_4lessIS4_EENS_9allocatorIS4_EEE16__insert_node_atEPNS_15__tree_end_nodeIPNS_16__tree_node_baseIPvEEEERSE_SE_, symObjAddr: 0x50B0, symBinAddr: 0x47A80, symSize: 0x54 }
  - { offsetInCU: 0x2C9FE, offset: 0x28A0F1, size: 0x8, addend: 0x0, symName: '__ZNSt3__110__function6__funcIZN3tns30collectInheritanceChainMembersEPKcmNS2_10MemberTypeEbPKNS2_13BaseClassMetaENS_8functionIFvPKNS2_10MemberMetaEEEEE3$_2NS_9allocatorISF_EEFiRKNS2_5PtrToISA_EEEED1Ev', symObjAddr: 0x524C, symBinAddr: 0x47BD0, symSize: 0x4 }
  - { offsetInCU: 0x2CA2A, offset: 0x28A11D, size: 0x8, addend: 0x0, symName: '__ZNSt3__110__function6__funcIZN3tns30collectInheritanceChainMembersEPKcmNS2_10MemberTypeEbPKNS2_13BaseClassMetaENS_8functionIFvPKNS2_10MemberMetaEEEEE3$_2NS_9allocatorISF_EEFiRKNS2_5PtrToISA_EEEED0Ev', symObjAddr: 0x5250, symBinAddr: 0x47BD4, symSize: 0x4 }
  - { offsetInCU: 0x2CC30, offset: 0x28A323, size: 0x8, addend: 0x0, symName: '__ZNKSt3__110__function6__funcIZN3tns30collectInheritanceChainMembersEPKcmNS2_10MemberTypeEbPKNS2_13BaseClassMetaENS_8functionIFvPKNS2_10MemberMetaEEEEE3$_2NS_9allocatorISF_EEFiRKNS2_5PtrToISA_EEEE7__cloneEv', symObjAddr: 0x5254, symBinAddr: 0x47BD8, symSize: 0x38 }
  - { offsetInCU: 0x2CF50, offset: 0x28A643, size: 0x8, addend: 0x0, symName: '__ZNKSt3__110__function6__funcIZN3tns30collectInheritanceChainMembersEPKcmNS2_10MemberTypeEbPKNS2_13BaseClassMetaENS_8functionIFvPKNS2_10MemberMetaEEEEE3$_2NS_9allocatorISF_EEFiRKNS2_5PtrToISA_EEEE7__cloneEPNS0_6__baseISM_EE', symObjAddr: 0x528C, symBinAddr: 0x47C10, symSize: 0x18 }
  - { offsetInCU: 0x2CF87, offset: 0x28A67A, size: 0x8, addend: 0x0, symName: '__ZNKSt3__110__function6__funcIZN3tns30collectInheritanceChainMembersEPKcmNS2_10MemberTypeEbPKNS2_13BaseClassMetaENS_8functionIFvPKNS2_10MemberMetaEEEEE3$_2NS_9allocatorISF_EEFiRKNS2_5PtrToISA_EEEE7__cloneEPNS0_6__baseISM_EE', symObjAddr: 0x528C, symBinAddr: 0x47C10, symSize: 0x18 }
  - { offsetInCU: 0x2CFB5, offset: 0x28A6A8, size: 0x8, addend: 0x0, symName: '__ZNKSt3__110__function6__funcIZN3tns30collectInheritanceChainMembersEPKcmNS2_10MemberTypeEbPKNS2_13BaseClassMetaENS_8functionIFvPKNS2_10MemberMetaEEEEE3$_2NS_9allocatorISF_EEFiRKNS2_5PtrToISA_EEEE7__cloneEPNS0_6__baseISM_EE', symObjAddr: 0x528C, symBinAddr: 0x47C10, symSize: 0x18 }
  - { offsetInCU: 0x2D0CB, offset: 0x28A7BE, size: 0x8, addend: 0x0, symName: '__ZNSt3__110__function6__funcIZN3tns30collectInheritanceChainMembersEPKcmNS2_10MemberTypeEbPKNS2_13BaseClassMetaENS_8functionIFvPKNS2_10MemberMetaEEEEE3$_2NS_9allocatorISF_EEFiRKNS2_5PtrToISA_EEEE7destroyEv', symObjAddr: 0x52A4, symBinAddr: 0x47C28, symSize: 0x4 }
  - { offsetInCU: 0x2D11C, offset: 0x28A80F, size: 0x8, addend: 0x0, symName: '__ZNSt3__110__function6__funcIZN3tns30collectInheritanceChainMembersEPKcmNS2_10MemberTypeEbPKNS2_13BaseClassMetaENS_8functionIFvPKNS2_10MemberMetaEEEEE3$_2NS_9allocatorISF_EEFiRKNS2_5PtrToISA_EEEE18destroy_deallocateEv', symObjAddr: 0x52A8, symBinAddr: 0x47C2C, symSize: 0x4 }
  - { offsetInCU: 0x2D151, offset: 0x28A844, size: 0x8, addend: 0x0, symName: '__ZNSt3__110__function6__funcIZN3tns30collectInheritanceChainMembersEPKcmNS2_10MemberTypeEbPKNS2_13BaseClassMetaENS_8functionIFvPKNS2_10MemberMetaEEEEE3$_2NS_9allocatorISF_EEFiRKNS2_5PtrToISA_EEEE18destroy_deallocateEv', symObjAddr: 0x52A8, symBinAddr: 0x47C2C, symSize: 0x4 }
  - { offsetInCU: 0x2D173, offset: 0x28A866, size: 0x8, addend: 0x0, symName: '__ZNSt3__110__function6__funcIZN3tns30collectInheritanceChainMembersEPKcmNS2_10MemberTypeEbPKNS2_13BaseClassMetaENS_8functionIFvPKNS2_10MemberMetaEEEEE3$_2NS_9allocatorISF_EEFiRKNS2_5PtrToISA_EEEE18destroy_deallocateEv', symObjAddr: 0x52A8, symBinAddr: 0x47C2C, symSize: 0x4 }
  - { offsetInCU: 0x2D19E, offset: 0x28A891, size: 0x8, addend: 0x0, symName: '__ZNSt3__110__function6__funcIZN3tns30collectInheritanceChainMembersEPKcmNS2_10MemberTypeEbPKNS2_13BaseClassMetaENS_8functionIFvPKNS2_10MemberMetaEEEEE3$_2NS_9allocatorISF_EEFiRKNS2_5PtrToISA_EEEE18destroy_deallocateEv', symObjAddr: 0x52A8, symBinAddr: 0x47C2C, symSize: 0x4 }
  - { offsetInCU: 0x2D1C4, offset: 0x28A8B7, size: 0x8, addend: 0x0, symName: '__ZNSt3__110__function6__funcIZN3tns30collectInheritanceChainMembersEPKcmNS2_10MemberTypeEbPKNS2_13BaseClassMetaENS_8functionIFvPKNS2_10MemberMetaEEEEE3$_2NS_9allocatorISF_EEFiRKNS2_5PtrToISA_EEEE18destroy_deallocateEv', symObjAddr: 0x52A8, symBinAddr: 0x47C2C, symSize: 0x4 }
  - { offsetInCU: 0x2D280, offset: 0x28A973, size: 0x8, addend: 0x0, symName: '__ZNSt3__110__function6__funcIZN3tns30collectInheritanceChainMembersEPKcmNS2_10MemberTypeEbPKNS2_13BaseClassMetaENS_8functionIFvPKNS2_10MemberMetaEEEEE3$_2NS_9allocatorISF_EEFiRKNS2_5PtrToISA_EEEEclESL_', symObjAddr: 0x52AC, symBinAddr: 0x47C30, symSize: 0xB8 }
  - { offsetInCU: 0x2D73B, offset: 0x28AE2E, size: 0x8, addend: 0x0, symName: '__ZNSt3__110__function6__funcIZNK3tns13BaseClassMeta7membersEPKcmNS2_10MemberTypeEbbRKNS_6vectorIPKNS2_12ProtocolMetaENS_9allocatorISA_EEEEE3$_3NSB_ISG_EEFvPKNS2_10MemberMetaEEED1Ev', symObjAddr: 0x5408, symBinAddr: 0x47D8C, symSize: 0x4 }
  - { offsetInCU: 0x2D767, offset: 0x28AE5A, size: 0x8, addend: 0x0, symName: '__ZNSt3__110__function6__funcIZNK3tns13BaseClassMeta7membersEPKcmNS2_10MemberTypeEbbRKNS_6vectorIPKNS2_12ProtocolMetaENS_9allocatorISA_EEEEE3$_3NSB_ISG_EEFvPKNS2_10MemberMetaEEED0Ev', symObjAddr: 0x540C, symBinAddr: 0x47D90, symSize: 0x4 }
  - { offsetInCU: 0x2D96D, offset: 0x28B060, size: 0x8, addend: 0x0, symName: '__ZNKSt3__110__function6__funcIZNK3tns13BaseClassMeta7membersEPKcmNS2_10MemberTypeEbbRKNS_6vectorIPKNS2_12ProtocolMetaENS_9allocatorISA_EEEEE3$_3NSB_ISG_EEFvPKNS2_10MemberMetaEEE7__cloneEv', symObjAddr: 0x5410, symBinAddr: 0x47D94, symSize: 0x34 }
  - { offsetInCU: 0x2DC60, offset: 0x28B353, size: 0x8, addend: 0x0, symName: '__ZNKSt3__110__function6__funcIZNK3tns13BaseClassMeta7membersEPKcmNS2_10MemberTypeEbbRKNS_6vectorIPKNS2_12ProtocolMetaENS_9allocatorISA_EEEEE3$_3NSB_ISG_EEFvPKNS2_10MemberMetaEEE7__cloneEPNS0_6__baseISL_EE', symObjAddr: 0x5444, symBinAddr: 0x47DC8, symSize: 0x14 }
  - { offsetInCU: 0x2DC97, offset: 0x28B38A, size: 0x8, addend: 0x0, symName: '__ZNKSt3__110__function6__funcIZNK3tns13BaseClassMeta7membersEPKcmNS2_10MemberTypeEbbRKNS_6vectorIPKNS2_12ProtocolMetaENS_9allocatorISA_EEEEE3$_3NSB_ISG_EEFvPKNS2_10MemberMetaEEE7__cloneEPNS0_6__baseISL_EE', symObjAddr: 0x5444, symBinAddr: 0x47DC8, symSize: 0x14 }
  - { offsetInCU: 0x2DCC5, offset: 0x28B3B8, size: 0x8, addend: 0x0, symName: '__ZNKSt3__110__function6__funcIZNK3tns13BaseClassMeta7membersEPKcmNS2_10MemberTypeEbbRKNS_6vectorIPKNS2_12ProtocolMetaENS_9allocatorISA_EEEEE3$_3NSB_ISG_EEFvPKNS2_10MemberMetaEEE7__cloneEPNS0_6__baseISL_EE', symObjAddr: 0x5444, symBinAddr: 0x47DC8, symSize: 0x14 }
  - { offsetInCU: 0x2DCF3, offset: 0x28B3E6, size: 0x8, addend: 0x0, symName: '__ZNKSt3__110__function6__funcIZNK3tns13BaseClassMeta7membersEPKcmNS2_10MemberTypeEbbRKNS_6vectorIPKNS2_12ProtocolMetaENS_9allocatorISA_EEEEE3$_3NSB_ISG_EEFvPKNS2_10MemberMetaEEE7__cloneEPNS0_6__baseISL_EE', symObjAddr: 0x5444, symBinAddr: 0x47DC8, symSize: 0x14 }
  - { offsetInCU: 0x2DD08, offset: 0x28B3FB, size: 0x8, addend: 0x0, symName: '__ZNKSt3__110__function6__funcIZNK3tns13BaseClassMeta7membersEPKcmNS2_10MemberTypeEbbRKNS_6vectorIPKNS2_12ProtocolMetaENS_9allocatorISA_EEEEE3$_3NSB_ISG_EEFvPKNS2_10MemberMetaEEE7__cloneEPNS0_6__baseISL_EE', symObjAddr: 0x5444, symBinAddr: 0x47DC8, symSize: 0x14 }
  - { offsetInCU: 0x2DD1C, offset: 0x28B40F, size: 0x8, addend: 0x0, symName: '__ZNKSt3__110__function6__funcIZNK3tns13BaseClassMeta7membersEPKcmNS2_10MemberTypeEbbRKNS_6vectorIPKNS2_12ProtocolMetaENS_9allocatorISA_EEEEE3$_3NSB_ISG_EEFvPKNS2_10MemberMetaEEE7__cloneEPNS0_6__baseISL_EE', symObjAddr: 0x5444, symBinAddr: 0x47DC8, symSize: 0x14 }
  - { offsetInCU: 0x2DD30, offset: 0x28B423, size: 0x8, addend: 0x0, symName: '__ZNKSt3__110__function6__funcIZNK3tns13BaseClassMeta7membersEPKcmNS2_10MemberTypeEbbRKNS_6vectorIPKNS2_12ProtocolMetaENS_9allocatorISA_EEEEE3$_3NSB_ISG_EEFvPKNS2_10MemberMetaEEE7__cloneEPNS0_6__baseISL_EE', symObjAddr: 0x5444, symBinAddr: 0x47DC8, symSize: 0x14 }
  - { offsetInCU: 0x2DD45, offset: 0x28B438, size: 0x8, addend: 0x0, symName: '__ZNKSt3__110__function6__funcIZNK3tns13BaseClassMeta7membersEPKcmNS2_10MemberTypeEbbRKNS_6vectorIPKNS2_12ProtocolMetaENS_9allocatorISA_EEEEE3$_3NSB_ISG_EEFvPKNS2_10MemberMetaEEE7__cloneEPNS0_6__baseISL_EE', symObjAddr: 0x5444, symBinAddr: 0x47DC8, symSize: 0x14 }
  - { offsetInCU: 0x2DD5C, offset: 0x28B44F, size: 0x8, addend: 0x0, symName: '__ZNSt3__110__function6__funcIZNK3tns13BaseClassMeta7membersEPKcmNS2_10MemberTypeEbbRKNS_6vectorIPKNS2_12ProtocolMetaENS_9allocatorISA_EEEEE3$_3NSB_ISG_EEFvPKNS2_10MemberMetaEEE7destroyEv', symObjAddr: 0x5458, symBinAddr: 0x47DDC, symSize: 0x4 }
  - { offsetInCU: 0x2DDAD, offset: 0x28B4A0, size: 0x8, addend: 0x0, symName: '__ZNSt3__110__function6__funcIZNK3tns13BaseClassMeta7membersEPKcmNS2_10MemberTypeEbbRKNS_6vectorIPKNS2_12ProtocolMetaENS_9allocatorISA_EEEEE3$_3NSB_ISG_EEFvPKNS2_10MemberMetaEEE18destroy_deallocateEv', symObjAddr: 0x545C, symBinAddr: 0x47DE0, symSize: 0x4 }
  - { offsetInCU: 0x2DDE2, offset: 0x28B4D5, size: 0x8, addend: 0x0, symName: '__ZNSt3__110__function6__funcIZNK3tns13BaseClassMeta7membersEPKcmNS2_10MemberTypeEbbRKNS_6vectorIPKNS2_12ProtocolMetaENS_9allocatorISA_EEEEE3$_3NSB_ISG_EEFvPKNS2_10MemberMetaEEE18destroy_deallocateEv', symObjAddr: 0x545C, symBinAddr: 0x47DE0, symSize: 0x4 }
  - { offsetInCU: 0x2DE04, offset: 0x28B4F7, size: 0x8, addend: 0x0, symName: '__ZNSt3__110__function6__funcIZNK3tns13BaseClassMeta7membersEPKcmNS2_10MemberTypeEbbRKNS_6vectorIPKNS2_12ProtocolMetaENS_9allocatorISA_EEEEE3$_3NSB_ISG_EEFvPKNS2_10MemberMetaEEE18destroy_deallocateEv', symObjAddr: 0x545C, symBinAddr: 0x47DE0, symSize: 0x4 }
  - { offsetInCU: 0x2DE2F, offset: 0x28B522, size: 0x8, addend: 0x0, symName: '__ZNSt3__110__function6__funcIZNK3tns13BaseClassMeta7membersEPKcmNS2_10MemberTypeEbbRKNS_6vectorIPKNS2_12ProtocolMetaENS_9allocatorISA_EEEEE3$_3NSB_ISG_EEFvPKNS2_10MemberMetaEEE18destroy_deallocateEv', symObjAddr: 0x545C, symBinAddr: 0x47DE0, symSize: 0x4 }
  - { offsetInCU: 0x2DE55, offset: 0x28B548, size: 0x8, addend: 0x0, symName: '__ZNSt3__110__function6__funcIZNK3tns13BaseClassMeta7membersEPKcmNS2_10MemberTypeEbbRKNS_6vectorIPKNS2_12ProtocolMetaENS_9allocatorISA_EEEEE3$_3NSB_ISG_EEFvPKNS2_10MemberMetaEEE18destroy_deallocateEv', symObjAddr: 0x545C, symBinAddr: 0x47DE0, symSize: 0x4 }
  - { offsetInCU: 0x2DFDD, offset: 0x28B6D0, size: 0x8, addend: 0x0, symName: '__ZNSt3__110__function6__funcIZNK3tns13BaseClassMeta7membersEPKcmNS2_10MemberTypeEbbRKNS_6vectorIPKNS2_12ProtocolMetaENS_9allocatorISA_EEEEE3$_3NSB_ISG_EEFvPKNS2_10MemberMetaEEEclEOSK_', symObjAddr: 0x5460, symBinAddr: 0x47DE4, symSize: 0x88 }
  - { offsetInCU: 0x2E39A, offset: 0x28BA8D, size: 0x8, addend: 0x0, symName: __ZNSt3__16__treeINS_12__value_typeIiPKN3tns10MemberMetaEEENS_19__map_value_compareIiS6_NS_4lessIiEELb1EEENS_9allocatorIS6_EEE25__emplace_unique_key_argsIiJRiRS5_EEENS_4pairINS_15__tree_iteratorIS6_PNS_11__tree_nodeIS6_PvEElEEbEERKT_DpOT0_, symObjAddr: 0x54E8, symBinAddr: 0x47E6C, symSize: 0xC4 }
  - { offsetInCU: 0x2E91C, offset: 0x28C00F, size: 0x8, addend: 0x0, symName: __ZNSt3__16__treeINS_12__value_typeIiPKN3tns10MemberMetaEEENS_19__map_value_compareIiS6_NS_4lessIiEELb1EEENS_9allocatorIS6_EEE16__insert_node_atEPNS_15__tree_end_nodeIPNS_16__tree_node_baseIPvEEEERSI_SI_, symObjAddr: 0x55AC, symBinAddr: 0x47F30, symSize: 0x54 }
  - { offsetInCU: 0x2E982, offset: 0x28C075, size: 0x8, addend: 0x0, symName: '__ZNSt3__110__function6__funcIZNK3tns13BaseClassMeta7membersEPKcmNS2_10MemberTypeEbbRKNS_6vectorIPKNS2_12ProtocolMetaENS_9allocatorISA_EEEEE3$_4NSB_ISG_EEFvPKNS2_10MemberMetaEEED1Ev', symObjAddr: 0x5600, symBinAddr: 0x47F84, symSize: 0x4 }
  - { offsetInCU: 0x2E9AE, offset: 0x28C0A1, size: 0x8, addend: 0x0, symName: '__ZNSt3__110__function6__funcIZNK3tns13BaseClassMeta7membersEPKcmNS2_10MemberTypeEbbRKNS_6vectorIPKNS2_12ProtocolMetaENS_9allocatorISA_EEEEE3$_4NSB_ISG_EEFvPKNS2_10MemberMetaEEED0Ev', symObjAddr: 0x5604, symBinAddr: 0x47F88, symSize: 0x4 }
  - { offsetInCU: 0x2EBB4, offset: 0x28C2A7, size: 0x8, addend: 0x0, symName: '__ZNKSt3__110__function6__funcIZNK3tns13BaseClassMeta7membersEPKcmNS2_10MemberTypeEbbRKNS_6vectorIPKNS2_12ProtocolMetaENS_9allocatorISA_EEEEE3$_4NSB_ISG_EEFvPKNS2_10MemberMetaEEE7__cloneEv', symObjAddr: 0x5608, symBinAddr: 0x47F8C, symSize: 0x34 }
  - { offsetInCU: 0x2EEA7, offset: 0x28C59A, size: 0x8, addend: 0x0, symName: '__ZNKSt3__110__function6__funcIZNK3tns13BaseClassMeta7membersEPKcmNS2_10MemberTypeEbbRKNS_6vectorIPKNS2_12ProtocolMetaENS_9allocatorISA_EEEEE3$_4NSB_ISG_EEFvPKNS2_10MemberMetaEEE7__cloneEPNS0_6__baseISL_EE', symObjAddr: 0x563C, symBinAddr: 0x47FC0, symSize: 0x14 }
  - { offsetInCU: 0x2EEDE, offset: 0x28C5D1, size: 0x8, addend: 0x0, symName: '__ZNKSt3__110__function6__funcIZNK3tns13BaseClassMeta7membersEPKcmNS2_10MemberTypeEbbRKNS_6vectorIPKNS2_12ProtocolMetaENS_9allocatorISA_EEEEE3$_4NSB_ISG_EEFvPKNS2_10MemberMetaEEE7__cloneEPNS0_6__baseISL_EE', symObjAddr: 0x563C, symBinAddr: 0x47FC0, symSize: 0x14 }
  - { offsetInCU: 0x2EF0C, offset: 0x28C5FF, size: 0x8, addend: 0x0, symName: '__ZNKSt3__110__function6__funcIZNK3tns13BaseClassMeta7membersEPKcmNS2_10MemberTypeEbbRKNS_6vectorIPKNS2_12ProtocolMetaENS_9allocatorISA_EEEEE3$_4NSB_ISG_EEFvPKNS2_10MemberMetaEEE7__cloneEPNS0_6__baseISL_EE', symObjAddr: 0x563C, symBinAddr: 0x47FC0, symSize: 0x14 }
  - { offsetInCU: 0x2EF3A, offset: 0x28C62D, size: 0x8, addend: 0x0, symName: '__ZNKSt3__110__function6__funcIZNK3tns13BaseClassMeta7membersEPKcmNS2_10MemberTypeEbbRKNS_6vectorIPKNS2_12ProtocolMetaENS_9allocatorISA_EEEEE3$_4NSB_ISG_EEFvPKNS2_10MemberMetaEEE7__cloneEPNS0_6__baseISL_EE', symObjAddr: 0x563C, symBinAddr: 0x47FC0, symSize: 0x14 }
  - { offsetInCU: 0x2EF4F, offset: 0x28C642, size: 0x8, addend: 0x0, symName: '__ZNKSt3__110__function6__funcIZNK3tns13BaseClassMeta7membersEPKcmNS2_10MemberTypeEbbRKNS_6vectorIPKNS2_12ProtocolMetaENS_9allocatorISA_EEEEE3$_4NSB_ISG_EEFvPKNS2_10MemberMetaEEE7__cloneEPNS0_6__baseISL_EE', symObjAddr: 0x563C, symBinAddr: 0x47FC0, symSize: 0x14 }
  - { offsetInCU: 0x2EF63, offset: 0x28C656, size: 0x8, addend: 0x0, symName: '__ZNKSt3__110__function6__funcIZNK3tns13BaseClassMeta7membersEPKcmNS2_10MemberTypeEbbRKNS_6vectorIPKNS2_12ProtocolMetaENS_9allocatorISA_EEEEE3$_4NSB_ISG_EEFvPKNS2_10MemberMetaEEE7__cloneEPNS0_6__baseISL_EE', symObjAddr: 0x563C, symBinAddr: 0x47FC0, symSize: 0x14 }
  - { offsetInCU: 0x2EF77, offset: 0x28C66A, size: 0x8, addend: 0x0, symName: '__ZNKSt3__110__function6__funcIZNK3tns13BaseClassMeta7membersEPKcmNS2_10MemberTypeEbbRKNS_6vectorIPKNS2_12ProtocolMetaENS_9allocatorISA_EEEEE3$_4NSB_ISG_EEFvPKNS2_10MemberMetaEEE7__cloneEPNS0_6__baseISL_EE', symObjAddr: 0x563C, symBinAddr: 0x47FC0, symSize: 0x14 }
  - { offsetInCU: 0x2EF8C, offset: 0x28C67F, size: 0x8, addend: 0x0, symName: '__ZNKSt3__110__function6__funcIZNK3tns13BaseClassMeta7membersEPKcmNS2_10MemberTypeEbbRKNS_6vectorIPKNS2_12ProtocolMetaENS_9allocatorISA_EEEEE3$_4NSB_ISG_EEFvPKNS2_10MemberMetaEEE7__cloneEPNS0_6__baseISL_EE', symObjAddr: 0x563C, symBinAddr: 0x47FC0, symSize: 0x14 }
  - { offsetInCU: 0x2EFA3, offset: 0x28C696, size: 0x8, addend: 0x0, symName: '__ZNSt3__110__function6__funcIZNK3tns13BaseClassMeta7membersEPKcmNS2_10MemberTypeEbbRKNS_6vectorIPKNS2_12ProtocolMetaENS_9allocatorISA_EEEEE3$_4NSB_ISG_EEFvPKNS2_10MemberMetaEEE7destroyEv', symObjAddr: 0x5650, symBinAddr: 0x47FD4, symSize: 0x4 }
  - { offsetInCU: 0x2EFF4, offset: 0x28C6E7, size: 0x8, addend: 0x0, symName: '__ZNSt3__110__function6__funcIZNK3tns13BaseClassMeta7membersEPKcmNS2_10MemberTypeEbbRKNS_6vectorIPKNS2_12ProtocolMetaENS_9allocatorISA_EEEEE3$_4NSB_ISG_EEFvPKNS2_10MemberMetaEEE18destroy_deallocateEv', symObjAddr: 0x5654, symBinAddr: 0x47FD8, symSize: 0x4 }
  - { offsetInCU: 0x2F029, offset: 0x28C71C, size: 0x8, addend: 0x0, symName: '__ZNSt3__110__function6__funcIZNK3tns13BaseClassMeta7membersEPKcmNS2_10MemberTypeEbbRKNS_6vectorIPKNS2_12ProtocolMetaENS_9allocatorISA_EEEEE3$_4NSB_ISG_EEFvPKNS2_10MemberMetaEEE18destroy_deallocateEv', symObjAddr: 0x5654, symBinAddr: 0x47FD8, symSize: 0x4 }
  - { offsetInCU: 0x2F04B, offset: 0x28C73E, size: 0x8, addend: 0x0, symName: '__ZNSt3__110__function6__funcIZNK3tns13BaseClassMeta7membersEPKcmNS2_10MemberTypeEbbRKNS_6vectorIPKNS2_12ProtocolMetaENS_9allocatorISA_EEEEE3$_4NSB_ISG_EEFvPKNS2_10MemberMetaEEE18destroy_deallocateEv', symObjAddr: 0x5654, symBinAddr: 0x47FD8, symSize: 0x4 }
  - { offsetInCU: 0x2F076, offset: 0x28C769, size: 0x8, addend: 0x0, symName: '__ZNSt3__110__function6__funcIZNK3tns13BaseClassMeta7membersEPKcmNS2_10MemberTypeEbbRKNS_6vectorIPKNS2_12ProtocolMetaENS_9allocatorISA_EEEEE3$_4NSB_ISG_EEFvPKNS2_10MemberMetaEEE18destroy_deallocateEv', symObjAddr: 0x5654, symBinAddr: 0x47FD8, symSize: 0x4 }
  - { offsetInCU: 0x2F09C, offset: 0x28C78F, size: 0x8, addend: 0x0, symName: '__ZNSt3__110__function6__funcIZNK3tns13BaseClassMeta7membersEPKcmNS2_10MemberTypeEbbRKNS_6vectorIPKNS2_12ProtocolMetaENS_9allocatorISA_EEEEE3$_4NSB_ISG_EEFvPKNS2_10MemberMetaEEE18destroy_deallocateEv', symObjAddr: 0x5654, symBinAddr: 0x47FD8, symSize: 0x4 }
  - { offsetInCU: 0x2F142, offset: 0x28C835, size: 0x8, addend: 0x0, symName: '__ZNSt3__110__function6__funcIZNK3tns13BaseClassMeta7membersEPKcmNS2_10MemberTypeEbbRKNS_6vectorIPKNS2_12ProtocolMetaENS_9allocatorISA_EEEEE3$_4NSB_ISG_EEFvPKNS2_10MemberMetaEEEclEOSK_', symObjAddr: 0x5658, symBinAddr: 0x47FDC, symSize: 0x30 }
  - { offsetInCU: 0x2F2BC, offset: 0x28C9AF, size: 0x8, addend: 0x0, symName: __ZNSt3__16__treeIPKN3tns10MemberMetaENS_4lessIS4_EENS_9allocatorIS4_EEE30__emplace_hint_unique_key_argsIS4_JRKS4_EEENS_4pairINS_15__tree_iteratorIS4_PNS_11__tree_nodeIS4_PvEElEEbEENS_21__tree_const_iteratorIS4_SI_lEERKT_DpOT0_, symObjAddr: 0x570C, symBinAddr: 0x48090, symSize: 0x84 }
  - { offsetInCU: 0x2F4C3, offset: 0x28CBB6, size: 0x8, addend: 0x0, symName: __ZNSt3__16__treeIPKN3tns10MemberMetaENS_4lessIS4_EENS_9allocatorIS4_EEE12__find_equalIS4_EERPNS_16__tree_node_baseIPvEENS_21__tree_const_iteratorIS4_PNS_11__tree_nodeIS4_SC_EElEERPNS_15__tree_end_nodeISE_EESF_RKT_, symObjAddr: 0x5790, symBinAddr: 0x48114, symSize: 0x1A8 }
  - { offsetInCU: 0x2F528, offset: 0x28CC1B, size: 0x8, addend: 0x0, symName: __ZNSt3__16__treeIPKN3tns10MemberMetaENS_4lessIS4_EENS_9allocatorIS4_EEE12__find_equalIS4_EERPNS_16__tree_node_baseIPvEENS_21__tree_const_iteratorIS4_PNS_11__tree_nodeIS4_SC_EElEERPNS_15__tree_end_nodeISE_EESF_RKT_, symObjAddr: 0x5790, symBinAddr: 0x48114, symSize: 0x1A8 }
  - { offsetInCU: 0x2F544, offset: 0x28CC37, size: 0x8, addend: 0x0, symName: __ZNSt3__16__treeIPKN3tns10MemberMetaENS_4lessIS4_EENS_9allocatorIS4_EEE12__find_equalIS4_EERPNS_16__tree_node_baseIPvEENS_21__tree_const_iteratorIS4_PNS_11__tree_nodeIS4_SC_EElEERPNS_15__tree_end_nodeISE_EESF_RKT_, symObjAddr: 0x5790, symBinAddr: 0x48114, symSize: 0x1A8 }
  - { offsetInCU: 0x26, offset: 0x28D361, size: 0x8, addend: 0x0, symName: __ZN4rnv815createV8RuntimeEv, symObjAddr: 0x0, symBinAddr: 0x482BC, symSize: 0x44 }
  - { offsetInCU: 0x5004, offset: 0x29233F, size: 0x8, addend: 0x0, symName: __ZN4rnv815createV8RuntimeEv, symObjAddr: 0x0, symBinAddr: 0x482BC, symSize: 0x44 }
  - { offsetInCU: 0x11ED4, offset: 0x2A64A8, size: 0x8, addend: 0x0, symName: '-[DictionaryAdapterMapKeysEnumerator initWithMap:isolate:cache:]', symObjAddr: 0x0, symBinAddr: 0x48300, symSize: 0x100 }
  - { offsetInCU: 0x1219C, offset: 0x2A6770, size: 0x8, addend: 0x0, symName: __ZNSt3__110shared_ptrIN2v810PersistentINS1_5ValueENS1_27NonCopyablePersistentTraitsIS3_EEEEEaSB8ue170006ERKS7_, symObjAddr: 0x100, symBinAddr: 0x48400, symSize: 0x68 }
  - { offsetInCU: 0x12707, offset: 0x2A6CDB, size: 0x8, addend: 0x0, symName: '-[DictionaryAdapterMapKeysEnumerator nextObject]', symObjAddr: 0x168, symBinAddr: 0x48468, symSize: 0x234 }
  - { offsetInCU: 0x12FAA, offset: 0x2A757E, size: 0x8, addend: 0x0, symName: '-[DictionaryAdapterMapKeysEnumerator dealloc]', symObjAddr: 0x468, symBinAddr: 0x4869C, symSize: 0x9C }
  - { offsetInCU: 0x131DD, offset: 0x2A77B1, size: 0x8, addend: 0x0, symName: '-[DictionaryAdapterMapKeysEnumerator .cxx_destruct]', symObjAddr: 0x560, symBinAddr: 0x48738, symSize: 0x10 }
  - { offsetInCU: 0x132B7, offset: 0x2A788B, size: 0x8, addend: 0x0, symName: '-[DictionaryAdapterMapKeysEnumerator .cxx_construct]', symObjAddr: 0x570, symBinAddr: 0x48748, symSize: 0x14 }
  - { offsetInCU: 0x13325, offset: 0x2A78F9, size: 0x8, addend: 0x0, symName: '-[DictionaryAdapterObjectKeysEnumerator initWithProperties:isolate:cache:]', symObjAddr: 0x584, symBinAddr: 0x4875C, symSize: 0x100 }
  - { offsetInCU: 0x136C2, offset: 0x2A7C96, size: 0x8, addend: 0x0, symName: '-[DictionaryAdapterObjectKeysEnumerator getProperties]', symObjAddr: 0x684, symBinAddr: 0x4885C, symSize: 0x1D4 }
  - { offsetInCU: 0x13ED8, offset: 0x2A84AC, size: 0x8, addend: 0x0, symName: '-[DictionaryAdapterObjectKeysEnumerator nextObject]', symObjAddr: 0x858, symBinAddr: 0x48A30, symSize: 0x240 }
  - { offsetInCU: 0x14857, offset: 0x2A8E2B, size: 0x8, addend: 0x0, symName: '-[DictionaryAdapterObjectKeysEnumerator allObjects]', symObjAddr: 0xB54, symBinAddr: 0x48C70, symSize: 0x25C }
  - { offsetInCU: 0x14FD2, offset: 0x2A95A6, size: 0x8, addend: 0x0, symName: '-[DictionaryAdapterObjectKeysEnumerator dealloc]', symObjAddr: 0xDB0, symBinAddr: 0x48ECC, symSize: 0x9C }
  - { offsetInCU: 0x150F9, offset: 0x2A96CD, size: 0x8, addend: 0x0, symName: '-[DictionaryAdapterObjectKeysEnumerator .cxx_destruct]', symObjAddr: 0xE4C, symBinAddr: 0x48F68, symSize: 0x10 }
  - { offsetInCU: 0x15155, offset: 0x2A9729, size: 0x8, addend: 0x0, symName: '-[DictionaryAdapterObjectKeysEnumerator .cxx_construct]', symObjAddr: 0xE5C, symBinAddr: 0x48F78, symSize: 0x14 }
  - { offsetInCU: 0x1524D, offset: 0x2A9821, size: 0x8, addend: 0x0, symName: '-[DictionaryAdapter initWithJSObject:isolate:]', symObjAddr: 0xE70, symBinAddr: 0x48F8C, symSize: 0x220 }
  - { offsetInCU: 0x158BF, offset: 0x2A9E93, size: 0x8, addend: 0x0, symName: __ZN10robin_hood6detail5TableILb1ELm80EP11objc_objectNSt3__110shared_ptrIN2v810PersistentINS6_5ValueENS6_27NonCopyablePersistentTraitsIS8_EEEEEENS_4hashIS3_vEENS4_8equal_toIS3_EEE7emplaceIJRP17DictionaryAdapterRSC_EEENS4_4pairINSH_4IterILb0EEEbEEDpOT_, symObjAddr: 0x1090, symBinAddr: 0x491AC, symSize: 0x138 }
  - { offsetInCU: 0x16210, offset: 0x2AA7E4, size: 0x8, addend: 0x0, symName: '-[DictionaryAdapter count]', symObjAddr: 0x11C8, symBinAddr: 0x492E4, symSize: 0x210 }
  - { offsetInCU: 0x16975, offset: 0x2AAF49, size: 0x8, addend: 0x0, symName: '-[DictionaryAdapter objectForKey:]', symObjAddr: 0x13D8, symBinAddr: 0x494F4, symSize: 0x370 }
  - { offsetInCU: 0x17574, offset: 0x2ABB48, size: 0x8, addend: 0x0, symName: '-[DictionaryAdapter keyEnumerator]', symObjAddr: 0x1748, symBinAddr: 0x49864, symSize: 0x2E4 }
  - { offsetInCU: 0x17DC6, offset: 0x2AC39A, size: 0x8, addend: 0x0, symName: '-[DictionaryAdapter dealloc]', symObjAddr: 0x1A2C, symBinAddr: 0x49B48, symSize: 0x248 }
  - { offsetInCU: 0x1855C, offset: 0x2ACB30, size: 0x8, addend: 0x0, symName: '-[DictionaryAdapter .cxx_destruct]', symObjAddr: 0x1D38, symBinAddr: 0x49D90, symSize: 0x10 }
  - { offsetInCU: 0x185B8, offset: 0x2ACB8C, size: 0x8, addend: 0x0, symName: '-[DictionaryAdapter .cxx_construct]', symObjAddr: 0x1D48, symBinAddr: 0x49DA0, symSize: 0x14 }
  - { offsetInCU: 0x807A, offset: 0x2B5C1F, size: 0x8, addend: 0x0, symName: __ZNSt3__119__allocate_at_leastB8ue170006INS_9allocatorINS_10unique_ptrIvPFvPKvEEEEEEENS_19__allocation_resultINS_16allocator_traitsIT_E7pointerEEERSB_m, symObjAddr: 0x1EAC, symBinAddr: 0x4B970, symSize: 0x34 }
  - { offsetInCU: 0x8118, offset: 0x2B5CBD, size: 0x8, addend: 0x0, symName: __ZNSt3__142__uninitialized_allocator_move_if_noexceptB8ue170006INS_9allocatorINS_10unique_ptrIvPFvPKvEEEEENS_16reverse_iteratorIPS7_EESB_SB_EET2_RT_T0_T1_SC_, symObjAddr: 0x1EE0, symBinAddr: 0x4B9A4, symSize: 0x94 }
  - { offsetInCU: 0x82C3, offset: 0x2B5E68, size: 0x8, addend: 0x0, symName: __ZNSt3__115allocate_sharedB8ue170006INS_6vectorINS_10shared_ptrIN2v810PersistentINS3_5ValueENS3_27NonCopyablePersistentTraitsIS5_EEEEEENS_9allocatorIS9_EEEENSA_ISC_EEJRiEvEENS2_IT_EERKT0_DpOT1_, symObjAddr: 0x22E0, symBinAddr: 0x4BD30, symSize: 0x58 }
  - { offsetInCU: 0x853B, offset: 0x2B60E0, size: 0x8, addend: 0x0, symName: __ZNSt3__115allocate_sharedB8ue170006IN2v810PersistentINS1_5ValueENS1_27NonCopyablePersistentTraitsIS3_EEEENS_9allocatorIS6_EEJRPNS1_7IsolateENS1_5LocalIS3_EEEvEENS_10shared_ptrIT_EERKT0_DpOT1_, symObjAddr: 0x2560, symBinAddr: 0x4BFB0, symSize: 0x60 }
  - { offsetInCU: 0x87CF, offset: 0x2B6374, size: 0x8, addend: 0x0, symName: __ZNSt3__115allocate_sharedB8ue170006IN3tns9TimerTaskENS_9allocatorIS2_EEJRPN2v87IsolateERNS5_5LocalINS5_8FunctionEEERlRbRNS_10shared_ptrINS_6vectorINSF_INS5_10PersistentINS5_5ValueENS5_27NonCopyablePersistentTraitsISI_EEEEEENS3_ISM_EEEEEERidEvEENSF_IT_EERKT0_DpOT1_, symObjAddr: 0x2668, symBinAddr: 0x4C078, symSize: 0xA0 }
  - { offsetInCU: 0x8E90, offset: 0x2B6A35, size: 0x8, addend: 0x0, symName: __ZNSt3__142__uninitialized_allocator_move_if_noexceptB8ue170006INS_9allocatorINS_10unique_ptrIvPFvPKvEEEEENS_16reverse_iteratorIPS7_EESB_SB_EET2_RT_T0_T1_SC_, symObjAddr: 0x1EE0, symBinAddr: 0x4B9A4, symSize: 0x94 }
  - { offsetInCU: 0x914F, offset: 0x2B6CF4, size: 0x8, addend: 0x0, symName: __ZNSt3__119__allocator_destroyB8ue170006INS_9allocatorINS_10unique_ptrIvPFvPKvEEEEENS_16reverse_iteratorINS9_IPS7_EEEESC_EEvRT_T0_T1_, symObjAddr: 0x201C, symBinAddr: 0x4BAE0, symSize: 0x60 }
  - { offsetInCU: 0x9626, offset: 0x2B71CB, size: 0x8, addend: 0x0, symName: __ZNSt3__119__allocate_at_leastB8ue170006INS_9allocatorINS_10shared_ptrIN2v810PersistentINS3_5ValueENS3_27NonCopyablePersistentTraitsIS5_EEEEEEEEEENS_19__allocation_resultINS_16allocator_traitsIT_E7pointerEEERSD_m, symObjAddr: 0x24BC, symBinAddr: 0x4BF0C, symSize: 0x34 }
  - { offsetInCU: 0x96C4, offset: 0x2B7269, size: 0x8, addend: 0x0, symName: __ZNSt3__16vectorINS_10shared_ptrIN2v810PersistentINS2_5ValueENS2_27NonCopyablePersistentTraitsIS4_EEEEEENS_9allocatorIS8_EEE16__destroy_vectorclB8ue170006Ev, symObjAddr: 0x24F0, symBinAddr: 0x4BF40, symSize: 0x70 }
  - { offsetInCU: 0xA53F, offset: 0x2B80E4, size: 0x8, addend: 0x0, symName: __ZN3tns13TimerCallbackEP16__CFRunLoopTimerPv, symObjAddr: 0x4D8, symBinAddr: 0x4A28C, symSize: 0x2C0 }
  - { offsetInCU: 0x11289, offset: 0x2BEE2E, size: 0x8, addend: 0x0, symName: __ZNSt3__16vectorINS_10unique_ptrIvPFvPKvEEENS_9allocatorIS6_EEE26__swap_out_circular_bufferERNS_14__split_bufferIS6_RS8_EE, symObjAddr: 0x1DB0, symBinAddr: 0x4B8E8, symSize: 0x74 }
  - { offsetInCU: 0x13819, offset: 0x2C13BE, size: 0x8, addend: 0x0, symName: __ZN3tns6Timers4InitEPN2v87IsolateENS1_5LocalINS1_14ObjectTemplateEEE, symObjAddr: 0x0, symBinAddr: 0x49DB4, symSize: 0x2D8 }
  - { offsetInCU: 0x14029, offset: 0x2C1BCE, size: 0x8, addend: 0x0, symName: __ZN3tns6Caches24registerCacheBoundObjectINS_10TimerStateEEEvPT_, symObjAddr: 0x2D8, symBinAddr: 0x4A08C, symSize: 0x114 }
  - { offsetInCU: 0x14A31, offset: 0x2C25D6, size: 0x8, addend: 0x0, symName: __ZNSt3__114__split_bufferINS_10unique_ptrIvPFvPKvEEERNS_9allocatorIS6_EEED2Ev, symObjAddr: 0x207C, symBinAddr: 0x4BB40, symSize: 0x34 }
  - { offsetInCU: 0x14B32, offset: 0x2C26D7, size: 0x8, addend: 0x0, symName: __ZNKSt3__16vectorINS_10unique_ptrIvPFvPKvEEENS_9allocatorIS6_EEE20__throw_length_errorB8ue170006Ev, symObjAddr: 0x1E24, symBinAddr: 0x4B95C, symSize: 0x14 }
  - { offsetInCU: 0x14B8D, offset: 0x2C2732, size: 0x8, addend: 0x0, symName: __ZZN3tns6Caches11unique_voidINS_10TimerStateEEENSt3__110unique_ptrIvPFvPKvEEEPT_ENUlS6_E_8__invokeES6_, symObjAddr: 0x2108, symBinAddr: 0x4BBCC, symSize: 0x40 }
  - { offsetInCU: 0x14C3B, offset: 0x2C27E0, size: 0x8, addend: 0x0, symName: __ZN3tns6Timers18SetTimeoutCallbackERKN2v820FunctionCallbackInfoINS1_5ValueEEE, symObjAddr: 0x3EC, symBinAddr: 0x4A1A0, symSize: 0x8 }
  - { offsetInCU: 0x14C6C, offset: 0x2C2811, size: 0x8, addend: 0x0, symName: __ZN3tns6Timers8SetTimerERKN2v820FunctionCallbackInfoINS1_5ValueEEEb, symObjAddr: 0x798, symBinAddr: 0x4A54C, symSize: 0x4C8 }
  - { offsetInCU: 0x15ADD, offset: 0x2C3682, size: 0x8, addend: 0x0, symName: __ZN3tns6Timers19SetIntervalCallbackERKN2v820FunctionCallbackInfoINS1_5ValueEEE, symObjAddr: 0x3F4, symBinAddr: 0x4A1A8, symSize: 0x8 }
  - { offsetInCU: 0x15D8D, offset: 0x2C3932, size: 0x8, addend: 0x0, symName: __ZN3tns6Timers20ClearTimeoutCallbackERKN2v820FunctionCallbackInfoINS1_5ValueEEE, symObjAddr: 0x3FC, symBinAddr: 0x4A1B0, symSize: 0xDC }
  - { offsetInCU: 0x160AB, offset: 0x2C3C50, size: 0x8, addend: 0x0, symName: __ZN3tns10TimerState10removeTaskERKi, symObjAddr: 0xD60, symBinAddr: 0x4AAB8, symSize: 0xAC }
  - { offsetInCU: 0x165BB, offset: 0x2C4160, size: 0x8, addend: 0x0, symName: __ZNKSt3__16vectorINS_10shared_ptrIN2v810PersistentINS2_5ValueENS2_27NonCopyablePersistentTraitsIS4_EEEEEENS_9allocatorIS8_EEE20__throw_out_of_rangeB8ue170006Ev, symObjAddr: 0x2258, symBinAddr: 0x4BD1C, symSize: 0x14 }
  - { offsetInCU: 0x165EF, offset: 0x2C4194, size: 0x8, addend: 0x0, symName: __ZNSt3__110shared_ptrIN3tns9TimerTaskEED2B8ue170006Ev, symObjAddr: 0x1D60, symBinAddr: 0x4B898, symSize: 0x50 }
  - { offsetInCU: 0x16A37, offset: 0x2C45DC, size: 0x8, addend: 0x0, symName: __ZNSt3__110shared_ptrIN3tns9TimerTaskEEaSB8ue170006ERKS3_, symObjAddr: 0xCBC, symBinAddr: 0x4AA14, symSize: 0x68 }
  - { offsetInCU: 0x16CCE, offset: 0x2C4873, size: 0x8, addend: 0x0, symName: __ZN10robin_hood6detail5TableILb1ELm80EiNSt3__110shared_ptrIN3tns9TimerTaskEEENS_4hashIivEENS2_8equal_toIiEEE7emplaceIJRiRS6_EEENS2_4pairINSB_4IterILb0EEEbEEDpOT_, symObjAddr: 0x1034, symBinAddr: 0x4AC58, symSize: 0x140 }
  - { offsetInCU: 0x1720A, offset: 0x2C4DAF, size: 0x8, addend: 0x0, symName: __ZN3tns12TimerContext12TimerReleaseEPKv, symObjAddr: 0xD30, symBinAddr: 0x4AA88, symSize: 0x30 }
  - { offsetInCU: 0x172CE, offset: 0x2C4E73, size: 0x8, addend: 0x0, symName: __ZNSt3__110shared_ptrINS_6vectorINS0_IN2v810PersistentINS2_5ValueENS2_27NonCopyablePersistentTraitsIS4_EEEEEENS_9allocatorIS8_EEEEED2B8ue170006Ev, symObjAddr: 0x1D10, symBinAddr: 0x4B848, symSize: 0x50 }
  - { offsetInCU: 0x173ED, offset: 0x2C4F92, size: 0x8, addend: 0x0, symName: __ZN3tns12TimerContext11TimerRetainEPKv, symObjAddr: 0xD24, symBinAddr: 0x4AA7C, symSize: 0xC }
  - { offsetInCU: 0x174DD, offset: 0x2C5082, size: 0x8, addend: 0x0, symName: __ZN3tns12TimerContextD2Ev, symObjAddr: 0xF6C, symBinAddr: 0x4AB90, symSize: 0x74 }
  - { offsetInCU: 0x17659, offset: 0x2C51FE, size: 0x8, addend: 0x0, symName: __ZNK10robin_hood6detail5TableILb1ELm80EiNSt3__110shared_ptrIN3tns9TimerTaskEEENS_4hashIivEENS2_8equal_toIiEEE7findIdxIiEEmRKT_, symObjAddr: 0x1AE8, symBinAddr: 0x4B6C0, symSize: 0xE8 }
  - { offsetInCU: 0x176B3, offset: 0x2C5258, size: 0x8, addend: 0x0, symName: __ZNK10robin_hood6detail5TableILb1ELm80EiNSt3__110shared_ptrIN3tns9TimerTaskEEENS_4hashIivEENS2_8equal_toIiEEE7findIdxIiEEmRKT_, symObjAddr: 0x1AE8, symBinAddr: 0x4B6C0, symSize: 0xE8 }
  - { offsetInCU: 0x176DF, offset: 0x2C5284, size: 0x8, addend: 0x0, symName: __ZNK10robin_hood6detail5TableILb1ELm80EiNSt3__110shared_ptrIN3tns9TimerTaskEEENS_4hashIivEENS2_8equal_toIiEEE7findIdxIiEEmRKT_, symObjAddr: 0x1AE8, symBinAddr: 0x4B6C0, symSize: 0xE8 }
  - { offsetInCU: 0x177E2, offset: 0x2C5387, size: 0x8, addend: 0x0, symName: __ZNSt3__110shared_ptrINS_6vectorINS0_IN2v810PersistentINS2_5ValueENS2_27NonCopyablePersistentTraitsIS4_EEEEEENS_9allocatorIS8_EEEEE5resetB8ue170006Ev, symObjAddr: 0xFE0, symBinAddr: 0x4AC04, symSize: 0x54 }
  - { offsetInCU: 0x178CF, offset: 0x2C5474, size: 0x8, addend: 0x0, symName: __ZN10robin_hood6detail5TableILb1ELm80EiNSt3__110shared_ptrIN3tns9TimerTaskEEENS_4hashIivEENS2_8equal_toIiEEE5eraseENSB_4IterILb0EEE, symObjAddr: 0x1A48, symBinAddr: 0x4B620, symSize: 0xA0 }
  - { offsetInCU: 0x1797E, offset: 0x2C5523, size: 0x8, addend: 0x0, symName: __Z24_register_isolate_timersPN2v87IsolateENS_5LocalINS_16FunctionTemplateEEE, symObjAddr: 0xE0C, symBinAddr: 0x4AB64, symSize: 0x2C }
  - { offsetInCU: 0x18005, offset: 0x2C5BAA, size: 0x8, addend: 0x0, symName: __ZN10robin_hood6detail5TableILb1ELm80EiNSt3__110shared_ptrIN3tns9TimerTaskEEENS_4hashIivEENS2_8equal_toIiEEE25insertKeyPrepareEmptySpotIRKiEENS2_4pairImNSB_14InsertionStateEEEOT_, symObjAddr: 0x1174, symBinAddr: 0x4AD98, symSize: 0x1A0 }
  - { offsetInCU: 0x18193, offset: 0x2C5D38, size: 0x8, addend: 0x0, symName: __ZNSt3__110shared_ptrIN3tns9TimerTaskEEaSB8ue170006EOS3_, symObjAddr: 0x19C8, symBinAddr: 0x4B5C4, symSize: 0x5C }
  - { offsetInCU: 0x182E7, offset: 0x2C5E8C, size: 0x8, addend: 0x0, symName: __ZNK10robin_hood6detail5TableILb1ELm80EiNSt3__110shared_ptrIN3tns9TimerTaskEEENS_4hashIivEENS2_8equal_toIiEEE18throwOverflowErrorEv, symObjAddr: 0x1314, symBinAddr: 0x4AF38, symSize: 0x50 }
  - { offsetInCU: 0x18428, offset: 0x2C5FCD, size: 0x8, addend: 0x0, symName: __ZN10robin_hood6detail5TableILb1ELm80EiNSt3__110shared_ptrIN3tns9TimerTaskEEENS_4hashIivEENS2_8equal_toIiEEE13increase_sizeEv, symObjAddr: 0x1364, symBinAddr: 0x4AF88, symSize: 0x12C }
  - { offsetInCU: 0x184EB, offset: 0x2C6090, size: 0x8, addend: 0x0, symName: __ZN10robin_hood6detail5TableILb1ELm80EiNSt3__110shared_ptrIN3tns9TimerTaskEEENS_4hashIivEENS2_8equal_toIiEEE7shiftUpEmm, symObjAddr: 0x1490, symBinAddr: 0x4B0B4, symSize: 0xEC }
  - { offsetInCU: 0x186D2, offset: 0x2C6277, size: 0x8, addend: 0x0, symName: __ZN10robin_hood6detail5TableILb1ELm80EiNSt3__110shared_ptrIN3tns9TimerTaskEEENS_4hashIivEENS2_8equal_toIiEEE17try_increase_infoEv, symObjAddr: 0x1658, symBinAddr: 0x4B27C, symSize: 0x100 }
  - { offsetInCU: 0x187CF, offset: 0x2C6374, size: 0x8, addend: 0x0, symName: __ZN10robin_hood6detail5TableILb1ELm80EiNSt3__110shared_ptrIN3tns9TimerTaskEEENS_4hashIivEENS2_8equal_toIiEEE8initDataEm, symObjAddr: 0x157C, symBinAddr: 0x4B1A0, symSize: 0xDC }
  - { offsetInCU: 0x188DD, offset: 0x2C6482, size: 0x8, addend: 0x0, symName: __ZN10robin_hood6detail5TableILb1ELm80EiNSt3__110shared_ptrIN3tns9TimerTaskEEENS_4hashIivEENS2_8equal_toIiEEE17try_increase_infoEv, symObjAddr: 0x1658, symBinAddr: 0x4B27C, symSize: 0x100 }
  - { offsetInCU: 0x188E7, offset: 0x2C648C, size: 0x8, addend: 0x0, symName: __ZN10robin_hood6detail5TableILb1ELm80EiNSt3__110shared_ptrIN3tns9TimerTaskEEENS_4hashIivEENS2_8equal_toIiEEE16rehashPowerOfTwoEmb, symObjAddr: 0x1758, symBinAddr: 0x4B37C, symSize: 0xF8 }
  - { offsetInCU: 0x18B31, offset: 0x2C66D6, size: 0x8, addend: 0x0, symName: __ZN10robin_hood6detail5TableILb1ELm80EiNSt3__110shared_ptrIN3tns9TimerTaskEEENS_4hashIivEENS2_8equal_toIiEEE11insert_moveEONSB_8DataNodeISB_Lb1EEE, symObjAddr: 0x1878, symBinAddr: 0x4B474, symSize: 0x150 }
  - { offsetInCU: 0x18E48, offset: 0x2C69ED, size: 0x8, addend: 0x0, symName: __ZN10robin_hood6detail5TableILb1ELm80EiNSt3__110shared_ptrIN3tns9TimerTaskEEENS_4hashIivEENS2_8equal_toIiEEE9shiftDownEm, symObjAddr: 0x1BD0, symBinAddr: 0x4B7A8, symSize: 0xA0 }
  - { offsetInCU: 0x190B5, offset: 0x2C6C5A, size: 0x8, addend: 0x0, symName: __ZNSt3__128__exception_guard_exceptionsINS_29_AllocatorDestroyRangeReverseINS_9allocatorINS_10unique_ptrIvPFvPKvEEEEENS_16reverse_iteratorIPS8_EEEEED2B8ue170006Ev, symObjAddr: 0x1F74, symBinAddr: 0x4BA38, symSize: 0x34 }
  - { offsetInCU: 0x190ED, offset: 0x2C6C92, size: 0x8, addend: 0x0, symName: __ZNKSt3__129_AllocatorDestroyRangeReverseINS_9allocatorINS_10unique_ptrIvPFvPKvEEEEENS_16reverse_iteratorIPS7_EEEclB8ue170006Ev, symObjAddr: 0x1FA8, symBinAddr: 0x4BA6C, symSize: 0x74 }
  - { offsetInCU: 0x19305, offset: 0x2C6EAA, size: 0x8, addend: 0x0, symName: __ZNSt3__114__split_bufferINS_10unique_ptrIvPFvPKvEEERNS_9allocatorIS6_EEE17__destruct_at_endB8ue170006EPS6_, symObjAddr: 0x20B0, symBinAddr: 0x4BB74, symSize: 0x58 }
  - { offsetInCU: 0x19495, offset: 0x2C703A, size: 0x8, addend: 0x0, symName: __ZN10robin_hood6detail5TableILb1ELm80EiNSt3__110shared_ptrIN3tns9TimerTaskEEENS_4hashIivEENS2_8equal_toIiEEE7destroyEv, symObjAddr: 0x2148, symBinAddr: 0x4BC0C, symSize: 0x4C }
  - { offsetInCU: 0x194D4, offset: 0x2C7079, size: 0x8, addend: 0x0, symName: __ZNK10robin_hood6detail5TableILb1ELm80EiNSt3__110shared_ptrIN3tns9TimerTaskEEENS_4hashIivEENS2_8equal_toIiEEE9DestroyerISB_Lb0EE20nodesDoNotDeallocateERSB_, symObjAddr: 0x2194, symBinAddr: 0x4BC58, symSize: 0xC4 }
  - { offsetInCU: 0x1991B, offset: 0x2C74C0, size: 0x8, addend: 0x0, symName: __ZNSt3__120__shared_ptr_emplaceINS_6vectorINS_10shared_ptrIN2v810PersistentINS3_5ValueENS3_27NonCopyablePersistentTraitsIS5_EEEEEENS_9allocatorIS9_EEEENSA_ISC_EEEC2B8ue170006IJRiEEESD_DpOT_, symObjAddr: 0x2338, symBinAddr: 0x4BD88, symSize: 0x50 }
  - { offsetInCU: 0x19A0B, offset: 0x2C75B0, size: 0x8, addend: 0x0, symName: __ZNSt3__16vectorINS_10shared_ptrIN2v810PersistentINS2_5ValueENS2_27NonCopyablePersistentTraitsIS4_EEEEEENS_9allocatorIS8_EEEC2Em, symObjAddr: 0x23EC, symBinAddr: 0x4BE3C, symSize: 0x7C }
  - { offsetInCU: 0x19C4E, offset: 0x2C77F3, size: 0x8, addend: 0x0, symName: __ZNSt3__120__shared_ptr_emplaceINS_6vectorINS_10shared_ptrIN2v810PersistentINS3_5ValueENS3_27NonCopyablePersistentTraitsIS5_EEEEEENS_9allocatorIS9_EEEENSA_ISC_EEED1Ev, symObjAddr: 0x2388, symBinAddr: 0x4BDD8, symSize: 0x14 }
  - { offsetInCU: 0x19C71, offset: 0x2C7816, size: 0x8, addend: 0x0, symName: __ZNSt3__120__shared_ptr_emplaceINS_6vectorINS_10shared_ptrIN2v810PersistentINS3_5ValueENS3_27NonCopyablePersistentTraitsIS5_EEEEEENS_9allocatorIS9_EEEENSA_ISC_EEED1Ev, symObjAddr: 0x2388, symBinAddr: 0x4BDD8, symSize: 0x14 }
  - { offsetInCU: 0x19CA8, offset: 0x2C784D, size: 0x8, addend: 0x0, symName: __ZNSt3__120__shared_ptr_emplaceINS_6vectorINS_10shared_ptrIN2v810PersistentINS3_5ValueENS3_27NonCopyablePersistentTraitsIS5_EEEEEENS_9allocatorIS9_EEEENSA_ISC_EEED0Ev, symObjAddr: 0x239C, symBinAddr: 0x4BDEC, symSize: 0x24 }
  - { offsetInCU: 0x19D94, offset: 0x2C7939, size: 0x8, addend: 0x0, symName: __ZNSt3__120__shared_ptr_emplaceINS_6vectorINS_10shared_ptrIN2v810PersistentINS3_5ValueENS3_27NonCopyablePersistentTraitsIS5_EEEEEENS_9allocatorIS9_EEEENSA_ISC_EEE16__on_zero_sharedEv, symObjAddr: 0x23C0, symBinAddr: 0x4BE10, symSize: 0x28 }
  - { offsetInCU: 0x19E6B, offset: 0x2C7A10, size: 0x8, addend: 0x0, symName: __ZNSt3__16vectorINS_10shared_ptrIN2v810PersistentINS2_5ValueENS2_27NonCopyablePersistentTraitsIS4_EEEEEENS_9allocatorIS8_EEE16__destroy_vectorclB8ue170006Ev, symObjAddr: 0x24F0, symBinAddr: 0x4BF40, symSize: 0x70 }
  - { offsetInCU: 0x19FF1, offset: 0x2C7B96, size: 0x8, addend: 0x0, symName: __ZNSt3__120__shared_ptr_emplaceINS_6vectorINS_10shared_ptrIN2v810PersistentINS3_5ValueENS3_27NonCopyablePersistentTraitsIS5_EEEEEENS_9allocatorIS9_EEEENSA_ISC_EEE21__on_zero_shared_weakEv, symObjAddr: 0x23E8, symBinAddr: 0x4BE38, symSize: 0x4 }
  - { offsetInCU: 0x1A025, offset: 0x2C7BCA, size: 0x8, addend: 0x0, symName: __ZNSt3__120__shared_ptr_emplaceINS_6vectorINS_10shared_ptrIN2v810PersistentINS3_5ValueENS3_27NonCopyablePersistentTraitsIS5_EEEEEENS_9allocatorIS9_EEEENSA_ISC_EEE21__on_zero_shared_weakEv, symObjAddr: 0x23E8, symBinAddr: 0x4BE38, symSize: 0x4 }
  - { offsetInCU: 0x1A047, offset: 0x2C7BEC, size: 0x8, addend: 0x0, symName: __ZNSt3__120__shared_ptr_emplaceINS_6vectorINS_10shared_ptrIN2v810PersistentINS3_5ValueENS3_27NonCopyablePersistentTraitsIS5_EEEEEENS_9allocatorIS9_EEEENSA_ISC_EEE21__on_zero_shared_weakEv, symObjAddr: 0x23E8, symBinAddr: 0x4BE38, symSize: 0x4 }
  - { offsetInCU: 0x1A069, offset: 0x2C7C0E, size: 0x8, addend: 0x0, symName: __ZNSt3__120__shared_ptr_emplaceINS_6vectorINS_10shared_ptrIN2v810PersistentINS3_5ValueENS3_27NonCopyablePersistentTraitsIS5_EEEEEENS_9allocatorIS9_EEEENSA_ISC_EEE21__on_zero_shared_weakEv, symObjAddr: 0x23E8, symBinAddr: 0x4BE38, symSize: 0x4 }
  - { offsetInCU: 0x1A095, offset: 0x2C7C3A, size: 0x8, addend: 0x0, symName: __ZNSt3__120__shared_ptr_emplaceINS_6vectorINS_10shared_ptrIN2v810PersistentINS3_5ValueENS3_27NonCopyablePersistentTraitsIS5_EEEEEENS_9allocatorIS9_EEEENSA_ISC_EEE21__on_zero_shared_weakEv, symObjAddr: 0x23E8, symBinAddr: 0x4BE38, symSize: 0x4 }
  - { offsetInCU: 0x1A0BC, offset: 0x2C7C61, size: 0x8, addend: 0x0, symName: __ZNSt3__120__shared_ptr_emplaceINS_6vectorINS_10shared_ptrIN2v810PersistentINS3_5ValueENS3_27NonCopyablePersistentTraitsIS5_EEEEEENS_9allocatorIS9_EEEENSA_ISC_EEE21__on_zero_shared_weakEv, symObjAddr: 0x23E8, symBinAddr: 0x4BE38, symSize: 0x4 }
  - { offsetInCU: 0x1A307, offset: 0x2C7EAC, size: 0x8, addend: 0x0, symName: __ZNSt3__16vectorINS_10shared_ptrIN2v810PersistentINS2_5ValueENS2_27NonCopyablePersistentTraitsIS4_EEEEEENS_9allocatorIS8_EEE11__vallocateB8ue170006Em, symObjAddr: 0x2468, symBinAddr: 0x4BEB8, symSize: 0x40 }
  - { offsetInCU: 0x1A37B, offset: 0x2C7F20, size: 0x8, addend: 0x0, symName: __ZNKSt3__16vectorINS_10shared_ptrIN2v810PersistentINS2_5ValueENS2_27NonCopyablePersistentTraitsIS4_EEEEEENS_9allocatorIS8_EEE20__throw_length_errorB8ue170006Ev, symObjAddr: 0x24A8, symBinAddr: 0x4BEF8, symSize: 0x14 }
  - { offsetInCU: 0x1A39B, offset: 0x2C7F40, size: 0x8, addend: 0x0, symName: __ZNKSt3__16vectorINS_10shared_ptrIN2v810PersistentINS2_5ValueENS2_27NonCopyablePersistentTraitsIS4_EEEEEENS_9allocatorIS8_EEE20__throw_length_errorB8ue170006Ev, symObjAddr: 0x24A8, symBinAddr: 0x4BEF8, symSize: 0x14 }
  - { offsetInCU: 0x1A3C5, offset: 0x2C7F6A, size: 0x8, addend: 0x0, symName: __ZNSt3__119__allocate_at_leastB8ue170006INS_9allocatorINS_10shared_ptrIN2v810PersistentINS3_5ValueENS3_27NonCopyablePersistentTraitsIS5_EEEEEEEEEENS_19__allocation_resultINS_16allocator_traitsIT_E7pointerEEERSD_m, symObjAddr: 0x24BC, symBinAddr: 0x4BF0C, symSize: 0x34 }
  - { offsetInCU: 0x1A6E1, offset: 0x2C8286, size: 0x8, addend: 0x0, symName: __ZNSt3__120__shared_ptr_emplaceIN2v810PersistentINS1_5ValueENS1_27NonCopyablePersistentTraitsIS3_EEEENS_9allocatorIS6_EEEC2B8ue170006IJRPNS1_7IsolateENS1_5LocalIS3_EEEEES8_DpOT_, symObjAddr: 0x25C0, symBinAddr: 0x4C010, symSize: 0x68 }
  - { offsetInCU: 0x1ABA7, offset: 0x2C874C, size: 0x8, addend: 0x0, symName: __ZNSt3__120__shared_ptr_emplaceIN3tns9TimerTaskENS_9allocatorIS2_EEEC2B8ue170006IJRPN2v87IsolateERNS7_5LocalINS7_8FunctionEEERlRbRNS_10shared_ptrINS_6vectorINSH_INS7_10PersistentINS7_5ValueENS7_27NonCopyablePersistentTraitsISK_EEEEEENS3_ISO_EEEEEERidEEES4_DpOT_, symObjAddr: 0x2708, symBinAddr: 0x4C118, symSize: 0x6C }
  - { offsetInCU: 0x1AD69, offset: 0x2C890E, size: 0x8, addend: 0x0, symName: __ZN3tns9TimerTaskC2EPN2v87IsolateERKNS1_5LocalINS1_8FunctionEEEdbRKNSt3__110shared_ptrINS9_6vectorINSA_INS1_10PersistentINS1_5ValueENS1_27NonCopyablePersistentTraitsISD_EEEEEENS9_9allocatorISH_EEEEEEid, symObjAddr: 0x27B8, symBinAddr: 0x4C1C8, symSize: 0x14C }
  - { offsetInCU: 0x1B1E3, offset: 0x2C8D88, size: 0x8, addend: 0x0, symName: __ZNSt3__120__shared_ptr_emplaceIN3tns9TimerTaskENS_9allocatorIS2_EEED1Ev, symObjAddr: 0x2774, symBinAddr: 0x4C184, symSize: 0x14 }
  - { offsetInCU: 0x1B206, offset: 0x2C8DAB, size: 0x8, addend: 0x0, symName: __ZNSt3__120__shared_ptr_emplaceIN3tns9TimerTaskENS_9allocatorIS2_EEED1Ev, symObjAddr: 0x2774, symBinAddr: 0x4C184, symSize: 0x14 }
  - { offsetInCU: 0x1B23D, offset: 0x2C8DE2, size: 0x8, addend: 0x0, symName: __ZNSt3__120__shared_ptr_emplaceIN3tns9TimerTaskENS_9allocatorIS2_EEED0Ev, symObjAddr: 0x2788, symBinAddr: 0x4C198, symSize: 0x24 }
  - { offsetInCU: 0x1B2DB, offset: 0x2C8E80, size: 0x8, addend: 0x0, symName: __ZNSt3__120__shared_ptr_emplaceIN3tns9TimerTaskENS_9allocatorIS2_EEE16__on_zero_sharedEv, symObjAddr: 0x27AC, symBinAddr: 0x4C1BC, symSize: 0x8 }
  - { offsetInCU: 0x1B305, offset: 0x2C8EAA, size: 0x8, addend: 0x0, symName: __ZNSt3__120__shared_ptr_emplaceIN3tns9TimerTaskENS_9allocatorIS2_EEE16__on_zero_sharedEv, symObjAddr: 0x27AC, symBinAddr: 0x4C1BC, symSize: 0x8 }
  - { offsetInCU: 0x1B323, offset: 0x2C8EC8, size: 0x8, addend: 0x0, symName: __ZNSt3__120__shared_ptr_emplaceIN3tns9TimerTaskENS_9allocatorIS2_EEE16__on_zero_sharedEv, symObjAddr: 0x27AC, symBinAddr: 0x4C1BC, symSize: 0x8 }
  - { offsetInCU: 0x1B368, offset: 0x2C8F0D, size: 0x8, addend: 0x0, symName: __ZNSt3__120__shared_ptr_emplaceIN3tns9TimerTaskENS_9allocatorIS2_EEE21__on_zero_shared_weakEv, symObjAddr: 0x27B4, symBinAddr: 0x4C1C4, symSize: 0x4 }
  - { offsetInCU: 0x1B39C, offset: 0x2C8F41, size: 0x8, addend: 0x0, symName: __ZNSt3__120__shared_ptr_emplaceIN3tns9TimerTaskENS_9allocatorIS2_EEE21__on_zero_shared_weakEv, symObjAddr: 0x27B4, symBinAddr: 0x4C1C4, symSize: 0x4 }
  - { offsetInCU: 0x1B3BE, offset: 0x2C8F63, size: 0x8, addend: 0x0, symName: __ZNSt3__120__shared_ptr_emplaceIN3tns9TimerTaskENS_9allocatorIS2_EEE21__on_zero_shared_weakEv, symObjAddr: 0x27B4, symBinAddr: 0x4C1C4, symSize: 0x4 }
  - { offsetInCU: 0x1B3E0, offset: 0x2C8F85, size: 0x8, addend: 0x0, symName: __ZNSt3__120__shared_ptr_emplaceIN3tns9TimerTaskENS_9allocatorIS2_EEE21__on_zero_shared_weakEv, symObjAddr: 0x27B4, symBinAddr: 0x4C1C4, symSize: 0x4 }
  - { offsetInCU: 0x1B40B, offset: 0x2C8FB0, size: 0x8, addend: 0x0, symName: __ZNSt3__120__shared_ptr_emplaceIN3tns9TimerTaskENS_9allocatorIS2_EEE21__on_zero_shared_weakEv, symObjAddr: 0x27B4, symBinAddr: 0x4C1C4, symSize: 0x4 }
  - { offsetInCU: 0x1B431, offset: 0x2C8FD6, size: 0x8, addend: 0x0, symName: __ZNSt3__120__shared_ptr_emplaceIN3tns9TimerTaskENS_9allocatorIS2_EEE21__on_zero_shared_weakEv, symObjAddr: 0x27B4, symBinAddr: 0x4C1C4, symSize: 0x4 }
  - { offsetInCU: 0x26, offset: 0x2C91E7, size: 0x8, addend: 0x0, symName: __ZN3tns9TSHelpers4InitEN2v85LocalINS1_7ContextEEE, symObjAddr: 0x0, symBinAddr: 0x4C314, symSize: 0x214 }
  - { offsetInCU: 0xD573, offset: 0x2D6734, size: 0x8, addend: 0x0, symName: __ZN3tns9TSHelpers4InitEN2v85LocalINS1_7ContextEEE, symObjAddr: 0x0, symBinAddr: 0x4C314, symSize: 0x214 }
  - { offsetInCU: 0xD464, offset: 0x2E48BA, size: 0x8, addend: 0x0, symName: __ZN3tns15InlineFunctions4InitEN2v85LocalINS1_7ContextEEE, symObjAddr: 0x0, symBinAddr: 0x4C528, symSize: 0x174 }
  - { offsetInCU: 0xDF52, offset: 0x2E53A8, size: 0x8, addend: 0x0, symName: __ZN3tns15InlineFunctions16IsGlobalFunctionENSt3__112basic_stringIcNS1_11char_traitsIcEENS1_9allocatorIcEEEE, symObjAddr: 0x174, symBinAddr: 0x4C69C, symSize: 0x380 }
  - { offsetInCU: 0x11D94, offset: 0x2F7A06, size: 0x8, addend: 0x0, symName: __ZNSt3__111__find_implB8ue170006IPNS_12basic_stringIcNS_11char_traitsIcEENS_9allocatorIcEEEES7_S6_NS_10__identityEEET_S9_T0_RKT1_RT2_, symObjAddr: 0xCD98, symBinAddr: 0x57BDC, symSize: 0xB8 }
  - { offsetInCU: 0x11EA1, offset: 0x2F7B13, size: 0x8, addend: 0x0, symName: __ZNSt3__111make_uniqueB8ue170006IN2v810PersistentINS1_8FunctionENS1_27NonCopyablePersistentTraitsIS3_EEEEJRPNS1_7IsolateERNS1_5LocalIS3_EEEEENS_11__unique_ifIT_E15__unique_singleEDpOT0_, symObjAddr: 0x178C, symBinAddr: 0x4E0EC, symSize: 0x6C }
  - { offsetInCU: 0x12AD2, offset: 0x2F8744, size: 0x8, addend: 0x0, symName: __ZNSt3__114__split_bufferINS_10shared_ptrIN2v810PersistentINS2_5ValueENS2_27NonCopyablePersistentTraitsIS4_EEEEEERNS_9allocatorIS8_EEED2Ev, symObjAddr: 0x1105C, symBinAddr: 0x5AE60, symSize: 0x4C }
  - { offsetInCU: 0x133F0, offset: 0x2F9062, size: 0x8, addend: 0x0, symName: __ZNSt3__115allocate_sharedB8ue170006IN2v810PersistentINS1_5ValueENS1_27NonCopyablePersistentTraitsIS3_EEEENS_9allocatorIS6_EEJRPNS1_7IsolateERNS1_5LocalIS3_EEEvEENS_10shared_ptrIT_EERKT0_DpOT1_, symObjAddr: 0x11A64, symBinAddr: 0x5B6DC, symSize: 0x60 }
  - { offsetInCU: 0x13684, offset: 0x2F92F6, size: 0x8, addend: 0x0, symName: __ZNSt3__1plB8ue170006IcNS_11char_traitsIcEENS_9allocatorIcEEEENS_12basic_stringIT_T0_T1_EERKS9_SB_, symObjAddr: 0xA6DC, symBinAddr: 0x56BB4, symSize: 0xC8 }
  - { offsetInCU: 0x14257, offset: 0x2F9EC9, size: 0x8, addend: 0x0, symName: __ZNSt3__115allocate_sharedB8ue170006IN2v810PersistentINS1_8FunctionENS1_27NonCopyablePersistentTraitsIS3_EEEENS_9allocatorIS6_EEJRPNS1_7IsolateENS1_5LocalIS3_EEEvEENS_10shared_ptrIT_EERKT0_DpOT1_, symObjAddr: 0x11E4C, symBinAddr: 0x5BA50, symSize: 0x60 }
  - { offsetInCU: 0x201C5, offset: 0x305E37, size: 0x8, addend: 0x0, symName: __ZN3tns15MetadataBuilder17CFunctionCallbackERKN2v820FunctionCallbackInfoINS1_5ValueEEE, symObjAddr: 0x10E0, symBinAddr: 0x4DA40, symSize: 0x504 }
  - { offsetInCU: 0x21902, offset: 0x307574, size: 0x8, addend: 0x0, symName: __ZN3tns15MetadataBuilder30SwizzledInstanceMethodCallbackEN2v85LocalINS1_4NameEEENS2_INS1_5ValueEEERKNS1_20PropertyCallbackInfoIS5_EE, symObjAddr: 0x5DD0, symBinAddr: 0x5257C, symSize: 0x768 }
  - { offsetInCU: 0x242EE, offset: 0x309F60, size: 0x8, addend: 0x0, symName: __ZN3tns15MetadataBuilder24SwizzledPropertyCallbackEN2v85LocalINS1_4NameEEERKNS1_18PropertyDescriptorERKNS1_20PropertyCallbackInfoINS1_5ValueEEE, symObjAddr: 0x6538, symBinAddr: 0x52CE4, symSize: 0xC2C }
  - { offsetInCU: 0x2A137, offset: 0x30FDA9, size: 0x8, addend: 0x0, symName: __ZN3tns15MetadataBuilder31RegisterConstantsOnGlobalObjectEPN2v87IsolateENS1_5LocalINS1_14ObjectTemplateEEEb, symObjAddr: 0x0, symBinAddr: 0x4CA1C, symSize: 0x108 }
  - { offsetInCU: 0x2A4AD, offset: 0x31011F, size: 0x8, addend: 0x0, symName: __ZN3tns6Caches24registerCacheBoundObjectINS_15MetadataBuilder20GlobalHandlerContextEEEvPT_, symObjAddr: 0x154, symBinAddr: 0x4CB70, symSize: 0x110 }
  - { offsetInCU: 0x2A9C5, offset: 0x310637, size: 0x8, addend: 0x0, symName: __ZN3tns6Caches3GetEPN2v87IsolateE, symObjAddr: 0x108, symBinAddr: 0x4CB24, symSize: 0x4C }
  - { offsetInCU: 0x2BB9F, offset: 0x311811, size: 0x8, addend: 0x0, symName: __ZN3tns15MetadataBuilder20GlobalPropertyGetterEN2v85LocalINS1_4NameEEERKNS1_20PropertyCallbackInfoINS1_5ValueEEE, symObjAddr: 0x264, symBinAddr: 0x4CC80, symSize: 0xA90 }
  - { offsetInCU: 0x2EBAF, offset: 0x314821, size: 0x8, addend: 0x0, symName: __ZNK10robin_hood6detail5TableILb1ELm80ENSt3__112basic_stringIcNS2_11char_traitsIcEENS2_9allocatorIcEEEENS2_10unique_ptrIN2v810PersistentINSA_8FunctionENSA_27NonCopyablePersistentTraitsISC_EEEENS2_14default_deleteISF_EEEENS_4hashIS8_vEENS2_8equal_toIS8_EEE7findIdxIS8_EEmRKT_, symObjAddr: 0xCEF0, symBinAddr: 0x57C94, symSize: 0x108 }
  - { offsetInCU: 0x2EBC6, offset: 0x314838, size: 0x8, addend: 0x0, symName: __ZN3tns10StructInfoC1ERKS0_, symObjAddr: 0x1F1C, symBinAddr: 0x4E82C, symSize: 0x98 }
  - { offsetInCU: 0x2EE08, offset: 0x314A7A, size: 0x8, addend: 0x0, symName: __ZN3tns15MetadataBuilder29GetOrCreateStructCtorFunctionEN2v85LocalINS1_7ContextEEENS_10StructInfoE, symObjAddr: 0x1AA4, symBinAddr: 0x4E3B4, symSize: 0x478 }
  - { offsetInCU: 0x30563, offset: 0x3161D5, size: 0x8, addend: 0x0, symName: __ZNK3tns4Meta4nameEv, symObjAddr: 0xDB0, symBinAddr: 0x4D710, symSize: 0xE8 }
  - { offsetInCU: 0x30862, offset: 0x3164D4, size: 0x8, addend: 0x0, symName: __ZNK10robin_hood6detail5TableILb1ELm80ENSt3__112basic_stringIcNS2_11char_traitsIcEENS2_9allocatorIcEEEENS2_10unique_ptrIN2v810PersistentINSA_8FunctionENSA_27NonCopyablePersistentTraitsISC_EEEENS2_14default_deleteISF_EEEENS_4hashIS8_vEENS2_8equal_toIS8_EEE7findIdxIS8_EEmRKT_, symObjAddr: 0xCEF0, symBinAddr: 0x57C94, symSize: 0x108 }
  - { offsetInCU: 0x3098F, offset: 0x316601, size: 0x8, addend: 0x0, symName: __ZNK3tns10JsCodeMeta6jsCodeEv, symObjAddr: 0x19DC, symBinAddr: 0x4E33C, symSize: 0x78 }
  - { offsetInCU: 0x30C0A, offset: 0x31687C, size: 0x8, addend: 0x0, symName: __ZNK3tns4Meta14topLevelModuleEv, symObjAddr: 0xF54, symBinAddr: 0x4D8B4, symSize: 0x78 }
  - { offsetInCU: 0x30E80, offset: 0x316AF2, size: 0x8, addend: 0x0, symName: __ZNK3tns7VarMeta8encodingEv, symObjAddr: 0x1964, symBinAddr: 0x4E2C4, symSize: 0x78 }
  - { offsetInCU: 0x3115B, offset: 0x316DCD, size: 0x8, addend: 0x0, symName: __ZN3tns6Caches24registerCacheBoundObjectINS_15MetadataBuilder9CacheItemINS_12FunctionMetaEEEEEvPT_, symObjAddr: 0xFCC, symBinAddr: 0x4D92C, symSize: 0x114 }
  - { offsetInCU: 0x315FF, offset: 0x317271, size: 0x8, addend: 0x0, symName: __ZNK3tns12FunctionMeta9encodingsEv, symObjAddr: 0x1714, symBinAddr: 0x4E074, symSize: 0x78 }
  - { offsetInCU: 0x3187A, offset: 0x3174EC, size: 0x8, addend: 0x0, symName: __ZN3tns15MetadataBuilder28DefineFunctionLengthPropertyEN2v85LocalINS1_7ContextEEEPKNS_17TypeEncodingsListIiEENS2_INS1_8FunctionEEE, symObjAddr: 0x15E4, symBinAddr: 0x4DF44, symSize: 0x130 }
  - { offsetInCU: 0x31C9B, offset: 0x31790D, size: 0x8, addend: 0x0, symName: __ZN10robin_hood6detail5TableILb1ELm80ENSt3__112basic_stringIcNS2_11char_traitsIcEENS2_9allocatorIcEEEENS2_10unique_ptrIN2v810PersistentINSA_8FunctionENSA_27NonCopyablePersistentTraitsISC_EEEENS2_14default_deleteISF_EEEENS_4hashIS8_vEENS2_8equal_toIS8_EEE7emplaceIJRS8_SI_EEENS2_4pairINSN_4IterILb0EEEbEEDpOT_, symObjAddr: 0x17F8, symBinAddr: 0x4E158, symSize: 0x16C }
  - { offsetInCU: 0x3254E, offset: 0x3181C0, size: 0x8, addend: 0x0, symName: __ZN3tns15MetadataBuilder38GetOrCreateConstructorFunctionTemplateEN2v85LocalINS1_7ContextEEEPKNS_13BaseClassMetaENS_21KnownUnknownClassPairERKNSt3__16vectorINS9_12basic_stringIcNS9_11char_traitsIcEENS9_9allocatorIcEEEENSE_ISG_EEEE, symObjAddr: 0xE98, symBinAddr: 0x4D7F8, symSize: 0xBC }
  - { offsetInCU: 0x32B68, offset: 0x3187DA, size: 0x8, addend: 0x0, symName: __ZN3tns15MetadataBuilder46GetOrCreateConstructorFunctionTemplateInternalEN2v85LocalINS1_7ContextEEEPKNS_13BaseClassMetaENS_21KnownUnknownClassPairERN10robin_hood6detail5TableILb1ELm80ENSt3__112basic_stringIcNSC_11char_traitsIcEENSC_9allocatorIcEEEEhNS9_4hashISI_vEENSC_8equal_toISI_EEEESO_RKNSC_6vectorISI_NSG_ISI_EEEE, symObjAddr: 0x2D00, symBinAddr: 0x4F524, symSize: 0x1660 }
  - { offsetInCU: 0x38522, offset: 0x31E194, size: 0x8, addend: 0x0, symName: __ZN10robin_hood6detail5TableILb1ELm80ENSt3__112basic_stringIcNS2_11char_traitsIcEENS2_9allocatorIcEEEEhNS_4hashIS8_vEENS2_8equal_toIS8_EEE7destroyEv, symObjAddr: 0xEA24, symBinAddr: 0x58FDC, symSize: 0x4C }
  - { offsetInCU: 0x385A9, offset: 0x31E21B, size: 0x8, addend: 0x0, symName: __ZZN3tns6Caches11unique_voidINS_15MetadataBuilder9CacheItemINS_12FunctionMetaEEEEENSt3__110unique_ptrIvPFvPKvEEEPT_ENUlS9_E_8__invokeES9_, symObjAddr: 0xD178, symBinAddr: 0x57D9C, symSize: 0x38 }
  - { offsetInCU: 0x385D4, offset: 0x31E246, size: 0x8, addend: 0x0, symName: __ZZN3tns6Caches11unique_voidINS_15MetadataBuilder9CacheItemINS_12FunctionMetaEEEEENSt3__110unique_ptrIvPFvPKvEEEPT_ENUlS9_E_8__invokeES9_, symObjAddr: 0xD178, symBinAddr: 0x57D9C, symSize: 0x38 }
  - { offsetInCU: 0x39476, offset: 0x31F0E8, size: 0x8, addend: 0x0, symName: __ZNSt3__114__split_bufferINS_10shared_ptrIN2v810PersistentINS2_5ValueENS2_27NonCopyablePersistentTraitsIS4_EEEEEERNS_9allocatorIS8_EEED2Ev, symObjAddr: 0x1105C, symBinAddr: 0x5AE60, symSize: 0x4C }
  - { offsetInCU: 0x39613, offset: 0x31F285, size: 0x8, addend: 0x0, symName: __ZNSt3__16vectorINS_10shared_ptrIN2v810PersistentINS2_5ValueENS2_27NonCopyablePersistentTraitsIS4_EEEEEENS_9allocatorIS8_EEE16__init_with_sizeB8ue170006IPS8_SD_EEvT_T0_m, symObjAddr: 0x110A8, symBinAddr: 0x5AEAC, symSize: 0x9C }
  - { offsetInCU: 0x3A268, offset: 0x31FEDA, size: 0x8, addend: 0x0, symName: __ZN10robin_hood6detail5TableILb1ELm80ENSt3__112basic_stringIcNS2_11char_traitsIcEENS2_9allocatorIcEEEENS2_10unique_ptrIN2v810PersistentINSA_8FunctionENSA_27NonCopyablePersistentTraitsISC_EEEENS2_14default_deleteISF_EEEENS_4hashIS8_vEENS2_8equal_toIS8_EEE25insertKeyPrepareEmptySpotIRKS8_EENS2_4pairImNSN_14InsertionStateEEEOT_, symObjAddr: 0xD1B0, symBinAddr: 0x57DD4, symSize: 0x188 }
  - { offsetInCU: 0x3A3A4, offset: 0x320016, size: 0x8, addend: 0x0, symName: __ZNK10robin_hood6detail5TableILb1ELm80ENSt3__112basic_stringIcNS2_11char_traitsIcEENS2_9allocatorIcEEEENS2_10unique_ptrIN2v810PersistentINSA_8FunctionENSA_27NonCopyablePersistentTraitsISC_EEEENS2_14default_deleteISF_EEEENS_4hashIS8_vEENS2_8equal_toIS8_EEE18throwOverflowErrorEv, symObjAddr: 0xD338, symBinAddr: 0x57F5C, symSize: 0x50 }
  - { offsetInCU: 0x3A3D8, offset: 0x32004A, size: 0x8, addend: 0x0, symName: __ZN10robin_hood6detail5TableILb1ELm80ENSt3__112basic_stringIcNS2_11char_traitsIcEENS2_9allocatorIcEEEENS2_10unique_ptrIN2v810PersistentINSA_8FunctionENSA_27NonCopyablePersistentTraitsISC_EEEENS2_14default_deleteISF_EEEENS_4hashIS8_vEENS2_8equal_toIS8_EEE8DataNodeISN_Lb1EED1Ev, symObjAddr: 0xD388, symBinAddr: 0x57FAC, symSize: 0x40 }
  - { offsetInCU: 0x3A95B, offset: 0x3205CD, size: 0x8, addend: 0x0, symName: __ZN3tns17StructTypeWrapperC2ENS_10StructInfoE, symObjAddr: 0xADAC, symBinAddr: 0x56D24, symSize: 0xB8 }
  - { offsetInCU: 0x3AC75, offset: 0x3208E7, size: 0x8, addend: 0x0, symName: __ZN10robin_hood6detail5TableILb1ELm80ENSt3__112basic_stringIcNS2_11char_traitsIcEENS2_9allocatorIcEEEENS2_10unique_ptrIN2v810PersistentINSA_8FunctionENSA_27NonCopyablePersistentTraitsISC_EEEENS2_14default_deleteISF_EEEENS_4hashIS8_vEENS2_8equal_toIS8_EEE7emplaceIJS8_SI_EEENS2_4pairINSN_4IterILb0EEEbEEDpOT_, symObjAddr: 0x2830, symBinAddr: 0x4F0F8, symSize: 0x14C }
  - { offsetInCU: 0x3B797, offset: 0x321409, size: 0x8, addend: 0x0, symName: __ZN3tns15MetadataBuilder25StructConstructorCallbackERKN2v820FunctionCallbackInfoINS1_5ValueEEE, symObjAddr: 0x1FFC, symBinAddr: 0x4E8C4, symSize: 0x560 }
  - { offsetInCU: 0x3D05B, offset: 0x322CCD, size: 0x8, addend: 0x0, symName: __ZN3tns13StructWrapperC2ENS_10StructInfoEPvNSt3__110shared_ptrIN2v810PersistentINS5_5ValueENS5_27NonCopyablePersistentTraitsIS7_EEEEEE, symObjAddr: 0xAF20, symBinAddr: 0x56E98, symSize: 0x12C }
  - { offsetInCU: 0x3D5AA, offset: 0x32321C, size: 0x8, addend: 0x0, symName: __ZN10robin_hood6detail5TableILb1ELm80ENSt3__14pairIPvNS2_12basic_stringIcNS2_11char_traitsIcEENS2_9allocatorIcEEEEEENS2_10shared_ptrIN2v810PersistentINSD_5ValueENSD_27NonCopyablePersistentTraitsISF_EEEEEEN3tns9pair_hashENS2_8equal_toISB_EEE7emplaceIJRSB_RSJ_EEENS3_INSO_4IterILb0EEEbEEDpOT_, symObjAddr: 0x2A14, symBinAddr: 0x4F244, symSize: 0x17C }
  - { offsetInCU: 0x3DE38, offset: 0x323AAA, size: 0x8, addend: 0x0, symName: __ZN3tns15MetadataBuilder20StructEqualsCallbackERKN2v820FunctionCallbackInfoINS1_5ValueEEE, symObjAddr: 0x255C, symBinAddr: 0x4EE24, symSize: 0x2D4 }
  - { offsetInCU: 0x3E7AD, offset: 0x32441F, size: 0x8, addend: 0x0, symName: __ZN3tns15MetadataBuilder13GetStructDataEN2v85LocalINS1_7ContextEEENS2_INS1_6ObjectEEENS_10StructInfoE, symObjAddr: 0x2B9C, symBinAddr: 0x4F3C0, symSize: 0x164 }
  - { offsetInCU: 0x3F201, offset: 0x324E73, size: 0x8, addend: 0x0, symName: __ZN10robin_hood4pairINSt3__14pairIPvNS1_12basic_stringIcNS1_11char_traitsIcEENS1_9allocatorIcEEEEEENS1_10shared_ptrIN2v810PersistentINSC_5ValueENSC_27NonCopyablePersistentTraitsISE_EEEEEEEC2IRSA_RSI_EEOT_OT0_, symObjAddr: 0xDC80, symBinAddr: 0x588A4, symSize: 0x70 }
  - { offsetInCU: 0x3F3DD, offset: 0x32504F, size: 0x8, addend: 0x0, symName: __ZN10robin_hood6detail5TableILb1ELm80ENSt3__14pairIPvNS2_12basic_stringIcNS2_11char_traitsIcEENS2_9allocatorIcEEEEEENS2_10shared_ptrIN2v810PersistentINSD_5ValueENSD_27NonCopyablePersistentTraitsISF_EEEEEEN3tns9pair_hashENS2_8equal_toISB_EEE25insertKeyPrepareEmptySpotIRKSB_EENS3_ImNSO_14InsertionStateEEEOT_, symObjAddr: 0xDA6C, symBinAddr: 0x58690, symSize: 0x18C }
  - { offsetInCU: 0x3F5D9, offset: 0x32524B, size: 0x8, addend: 0x0, symName: __ZNK10robin_hood6detail5TableILb1ELm80ENSt3__14pairIPvNS2_12basic_stringIcNS2_11char_traitsIcEENS2_9allocatorIcEEEEEENS2_10shared_ptrIN2v810PersistentINSD_5ValueENSD_27NonCopyablePersistentTraitsISF_EEEEEEN3tns9pair_hashENS2_8equal_toISB_EEE18throwOverflowErrorEv, symObjAddr: 0xDBF8, symBinAddr: 0x5881C, symSize: 0x50 }
  - { offsetInCU: 0x3F60D, offset: 0x32527F, size: 0x8, addend: 0x0, symName: __ZN10robin_hood6detail5TableILb1ELm80ENSt3__14pairIPvNS2_12basic_stringIcNS2_11char_traitsIcEENS2_9allocatorIcEEEEEENS2_10shared_ptrIN2v810PersistentINSD_5ValueENSD_27NonCopyablePersistentTraitsISF_EEEEEEN3tns9pair_hashENS2_8equal_toISB_EEE8DataNodeISO_Lb1EED1Ev, symObjAddr: 0xDC48, symBinAddr: 0x5886C, symSize: 0x38 }
  - { offsetInCU: 0x3FF4F, offset: 0x325BC1, size: 0x8, addend: 0x0, symName: __ZNK10robin_hood6detail5TableILb1ELm80EPKN3tns13BaseClassMetaENSt3__110unique_ptrIN2v810PersistentINS8_16FunctionTemplateENS8_27NonCopyablePersistentTraitsISA_EEEENS6_14default_deleteISD_EEEENS_4hashIS5_vEENS6_8equal_toIS5_EEE7findIdxIS5_EEmRKT_, symObjAddr: 0xEB40, symBinAddr: 0x590F8, symSize: 0xD8 }
  - { offsetInCU: 0x3FFA8, offset: 0x325C1A, size: 0x8, addend: 0x0, symName: __ZNK10robin_hood6detail5TableILb1ELm80EPKN3tns13BaseClassMetaENSt3__110unique_ptrIN2v810PersistentINS8_16FunctionTemplateENS8_27NonCopyablePersistentTraitsISA_EEEENS6_14default_deleteISD_EEEENS_4hashIS5_vEENS6_8equal_toIS5_EEE7findIdxIS5_EEmRKT_, symObjAddr: 0xEB40, symBinAddr: 0x590F8, symSize: 0xD8 }
  - { offsetInCU: 0x400D8, offset: 0x325D4A, size: 0x8, addend: 0x0, symName: __ZN3tns6Caches24registerCacheBoundObjectINS_15MetadataBuilder9CacheItemINS_13BaseClassMetaEEEEEvPT_, symObjAddr: 0x4360, symBinAddr: 0x50B84, symSize: 0x114 }
  - { offsetInCU: 0x406D4, offset: 0x326346, size: 0x8, addend: 0x0, symName: __ZN3tns15MetadataBuilder26RegisterInstancePropertiesEN2v85LocalINS1_7ContextEEENS2_INS1_16FunctionTemplateEEEPKNS_13BaseClassMetaENSt3__112basic_stringIcNSA_11char_traitsIcEENSA_9allocatorIcEEEENS_21KnownUnknownClassPairERN10robin_hood6detail5TableILb1ELm80ESG_hNSI_4hashISG_vEENSA_8equal_toISG_EEEE, symObjAddr: 0x46E0, symBinAddr: 0x50E8C, symSize: 0x638 }
  - { offsetInCU: 0x42214, offset: 0x327E86, size: 0x8, addend: 0x0, symName: __ZN3tns15MetadataBuilder23RegisterInstanceMethodsEN2v85LocalINS1_7ContextEEENS2_INS1_16FunctionTemplateEEEPKNS_13BaseClassMetaENS_21KnownUnknownClassPairERN10robin_hood6detail5TableILb1ELm80ENSt3__112basic_stringIcNSE_11char_traitsIcEENSE_9allocatorIcEEEEhNSB_4hashISK_vEENSE_8equal_toISK_EEEE, symObjAddr: 0x4D18, symBinAddr: 0x514C4, symSize: 0x688 }
  - { offsetInCU: 0x43FF4, offset: 0x329C66, size: 0x8, addend: 0x0, symName: __ZN3tns15MetadataBuilder25RegisterInstanceProtocolsEN2v85LocalINS1_7ContextEEENS2_INS1_16FunctionTemplateEEEPKNS_13BaseClassMetaENSt3__112basic_stringIcNSA_11char_traitsIcEENSA_9allocatorIcEEEENS_21KnownUnknownClassPairERN10robin_hood6detail5TableILb1ELm80ESG_hNSI_4hashISG_vEENSA_8equal_toISG_EEEE, symObjAddr: 0x53A0, symBinAddr: 0x51B4C, symSize: 0x318 }
  - { offsetInCU: 0x4511D, offset: 0x32AD8F, size: 0x8, addend: 0x0, symName: __ZN3tns15MetadataBuilder27RegisterAdditionalProtocolsEN2v85LocalINS1_7ContextEEENS2_INS1_16FunctionTemplateEEENS_21KnownUnknownClassPairERKNSt3__16vectorINS8_12basic_stringIcNS8_11char_traitsIcEENS8_9allocatorIcEEEENSD_ISF_EEEERN10robin_hood6detail5TableILb1ELm80ESF_hNSK_4hashISF_vEENS8_8equal_toISF_EEEE, symObjAddr: 0x56B8, symBinAddr: 0x51E64, symSize: 0x464 }
  - { offsetInCU: 0x469F8, offset: 0x32C66A, size: 0x8, addend: 0x0, symName: __ZN3tns15MetadataBuilder19RegisterAllocMethodEPN2v87IsolateENS1_5LocalINS1_16FunctionTemplateEEEPKNS_13InterfaceMetaE, symObjAddr: 0x5C24, symBinAddr: 0x523D0, symSize: 0x1AC }
  - { offsetInCU: 0x47069, offset: 0x32CCDB, size: 0x8, addend: 0x0, symName: __ZN10robin_hood6detail5TableILb1ELm80EPKN3tns13BaseClassMetaENSt3__110unique_ptrIN2v810PersistentINS8_16FunctionTemplateENS8_27NonCopyablePersistentTraitsISA_EEEENS6_14default_deleteISD_EEEENS_4hashIS5_vEENS6_8equal_toIS5_EEE7emplaceIJRS5_SG_EEENS6_4pairINSL_4IterILb0EEEbEEDpOT_, symObjAddr: 0x7164, symBinAddr: 0x53910, symSize: 0x100 }
  - { offsetInCU: 0x476A6, offset: 0x32D318, size: 0x8, addend: 0x0, symName: __ZN10robin_hood6detail5TableILb1ELm80ENSt3__112basic_stringIcNS2_11char_traitsIcEENS2_9allocatorIcEEEENS2_10unique_ptrIN2v810PersistentINSA_8FunctionENSA_27NonCopyablePersistentTraitsISC_EEEENS2_14default_deleteISF_EEEENS_4hashIS8_vEENS2_8equal_toIS8_EEE7emplaceIJPKcPSF_EEENS2_4pairINSN_4IterILb0EEEbEEDpOT_, symObjAddr: 0x7264, symBinAddr: 0x53A10, symSize: 0x148 }
  - { offsetInCU: 0x47EE9, offset: 0x32DB5B, size: 0x8, addend: 0x0, symName: __ZN10robin_hood6detail5TableILb1ELm80ENSt3__112basic_stringIcNS2_11char_traitsIcEENS2_9allocatorIcEEEENS2_10unique_ptrIN2v810PersistentINSA_8FunctionENSA_27NonCopyablePersistentTraitsISC_EEEENS2_14default_deleteISF_EEEENS_4hashIS8_vEENS2_8equal_toIS8_EEE7emplaceIJPKcSI_EEENS2_4pairINSN_4IterILb0EEEbEEDpOT_, symObjAddr: 0x73AC, symBinAddr: 0x53B58, symSize: 0x14C }
  - { offsetInCU: 0x48751, offset: 0x32E3C3, size: 0x8, addend: 0x0, symName: __ZN3tns15MetadataBuilder21RegisterStaticMethodsEN2v85LocalINS1_7ContextEEENS2_INS1_8FunctionEEEPKNS_13BaseClassMetaENS_21KnownUnknownClassPairERN10robin_hood6detail5TableILb1ELm80ENSt3__112basic_stringIcNSE_11char_traitsIcEENSE_9allocatorIcEEEEhNSB_4hashISK_vEENSE_8equal_toISK_EEEE, symObjAddr: 0x74F8, symBinAddr: 0x53CA4, symSize: 0x8C0 }
  - { offsetInCU: 0x4AFCA, offset: 0x330C3C, size: 0x8, addend: 0x0, symName: __ZN3tns15MetadataBuilder24RegisterStaticPropertiesEN2v85LocalINS1_7ContextEEENS2_INS1_8FunctionEEEPKNS_13BaseClassMetaENSt3__112basic_stringIcNSA_11char_traitsIcEENSA_9allocatorIcEEEENS_21KnownUnknownClassPairERN10robin_hood6detail5TableILb1ELm80ESG_hNSI_4hashISG_vEENSA_8equal_toISG_EEEE, symObjAddr: 0x7DB8, symBinAddr: 0x54564, symSize: 0x610 }
  - { offsetInCU: 0x4CC31, offset: 0x3328A3, size: 0x8, addend: 0x0, symName: __ZN3tns15MetadataBuilder23RegisterStaticProtocolsEN2v85LocalINS1_7ContextEEENS2_INS1_8FunctionEEEPKNS_13BaseClassMetaENSt3__112basic_stringIcNSA_11char_traitsIcEENSA_9allocatorIcEEEENS_21KnownUnknownClassPairERN10robin_hood6detail5TableILb1ELm80ESG_hNSI_4hashISG_vEENSA_8equal_toISG_EEEE, symObjAddr: 0x83C8, symBinAddr: 0x54B74, symSize: 0x2E8 }
  - { offsetInCU: 0x4DC68, offset: 0x3338DA, size: 0x8, addend: 0x0, symName: __ZN10robin_hood6detail5TableILb1ELm80EPKN3tns4MetaENSt3__110unique_ptrIN2v810PersistentINS8_5ValueENS8_27NonCopyablePersistentTraitsISA_EEEENS6_14default_deleteISD_EEEENS_4hashIS5_vEENS6_8equal_toIS5_EEE7emplaceIJRPKNS2_13BaseClassMetaERPSD_EEENS6_4pairINSL_4IterILb0EEEbEEDpOT_, symObjAddr: 0x86B0, symBinAddr: 0x54E5C, symSize: 0xFC }
  - { offsetInCU: 0x4E26A, offset: 0x333EDC, size: 0x8, addend: 0x0, symName: __ZZN3tns6Caches11unique_voidINS_15MetadataBuilder9CacheItemINS_13BaseClassMetaEEEEENSt3__110unique_ptrIvPFvPKvEEEPT_ENUlS9_E_8__invokeES9_, symObjAddr: 0xEC18, symBinAddr: 0x591D0, symSize: 0x38 }
  - { offsetInCU: 0x4E295, offset: 0x333F07, size: 0x8, addend: 0x0, symName: __ZZN3tns6Caches11unique_voidINS_15MetadataBuilder9CacheItemINS_13BaseClassMetaEEEEENSt3__110unique_ptrIvPFvPKvEEEPT_ENUlS9_E_8__invokeES9_, symObjAddr: 0xEC18, symBinAddr: 0x591D0, symSize: 0x38 }
  - { offsetInCU: 0x4E415, offset: 0x334087, size: 0x8, addend: 0x0, symName: __ZN3tns15MetadataBuilder24ClassConstructorCallbackERKN2v820FunctionCallbackInfoINS1_5ValueEEE, symObjAddr: 0x4474, symBinAddr: 0x50C98, symSize: 0x1F4 }
  - { offsetInCU: 0x4F05D, offset: 0x334CCF, size: 0x8, addend: 0x0, symName: __ZNK10robin_hood6detail5TableILb1ELm80ENSt3__112basic_stringIcNS2_11char_traitsIcEENS2_9allocatorIcEEEEhNS_4hashIS8_vEENS2_8equal_toIS8_EEE7findIdxIS8_EEmRKT_, symObjAddr: 0xFCB8, symBinAddr: 0x5A270, symSize: 0x108 }
  - { offsetInCU: 0x4F18A, offset: 0x334DFC, size: 0x8, addend: 0x0, symName: __ZN3tns6Caches24registerCacheBoundObjectINS_15MetadataBuilder9CacheItemINS_12PropertyMetaEEEEEvPT_, symObjAddr: 0x8FC8, symBinAddr: 0x55774, symSize: 0x114 }
  - { offsetInCU: 0x4F62E, offset: 0x3352A0, size: 0x8, addend: 0x0, symName: __ZN10robin_hood6detail5TableILb1ELm80ENSt3__112basic_stringIcNS2_11char_traitsIcEENS2_9allocatorIcEEEEhNS_4hashIS8_vEENS2_8equal_toIS8_EEE7emplaceIJRS8_RhEEENS2_4pairINSD_4IterILb0EEEbEEDpOT_, symObjAddr: 0x94EC, symBinAddr: 0x55C98, symSize: 0x150 }
  - { offsetInCU: 0x4FFCE, offset: 0x335C40, size: 0x8, addend: 0x0, symName: __ZN3tns6Caches24registerCacheBoundObjectINS_15MetadataBuilder9CacheItemINS_10MethodMetaEEEEEvPT_, symObjAddr: 0x8B48, symBinAddr: 0x552F4, symSize: 0x114 }
  - { offsetInCU: 0x50472, offset: 0x3360E4, size: 0x8, addend: 0x0, symName: __ZN10robin_hood6detail5TableILb1ELm80ENSt3__112basic_stringIcNS2_11char_traitsIcEENS2_9allocatorIcEEEEhNS_4hashIS8_vEENS2_8equal_toIS8_EEE7emplaceIJRS8_iEEENS2_4pairINSD_4IterILb0EEEbEEDpOT_, symObjAddr: 0x8E78, symBinAddr: 0x55624, symSize: 0x150 }
  - { offsetInCU: 0x50E83, offset: 0x336AF5, size: 0x8, addend: 0x0, symName: __ZNSt3__16vectorINS_12basic_stringIcNS_11char_traitsIcEENS_9allocatorIcEEEENS4_IS6_EEE21__push_back_slow_pathIRKS6_EEvOT_, symObjAddr: 0x1067C, symBinAddr: 0x5AC34, symSize: 0x114 }
  - { offsetInCU: 0x511DB, offset: 0x336E4D, size: 0x8, addend: 0x0, symName: __ZN3tns15MetadataBuilder24ToStringFunctionCallbackERKN2v820FunctionCallbackInfoINS1_5ValueEEE, symObjAddr: 0x5B1C, symBinAddr: 0x522C8, symSize: 0x108 }
  - { offsetInCU: 0x5171C, offset: 0x33738E, size: 0x8, addend: 0x0, symName: __ZN3tns6Caches24registerCacheBoundObjectINS_15MetadataBuilder9CacheItemINS_13InterfaceMetaEEEEEvPT_, symObjAddr: 0x87AC, symBinAddr: 0x54F58, symSize: 0x114 }
  - { offsetInCU: 0x521A5, offset: 0x337E17, size: 0x8, addend: 0x0, symName: __ZNK3tns5ArrayINS_5PtrToINS_10MethodMetaEEEE12binarySearchENSt3__18functionIFiRKS3_EEE, symObjAddr: 0xA428, symBinAddr: 0x56B1C, symSize: 0x98 }
  - { offsetInCU: 0x522A0, offset: 0x337F12, size: 0x8, addend: 0x0, symName: __ZN3tns21MethodCallbackWrapperC2EPN2v87IsolateENSt3__110shared_ptrINS1_10PersistentINS1_5ValueENS1_27NonCopyablePersistentTraitsIS7_EEEEEEhhPKNS_12TypeEncodingE, symObjAddr: 0xB2F0, symBinAddr: 0x57128, symSize: 0xEC }
  - { offsetInCU: 0x52D34, offset: 0x3389A6, size: 0x8, addend: 0x0, symName: __ZNK3tns5ArrayINS_5PtrToINS_12PropertyMetaEEEE12binarySearchENSt3__18functionIFiRKS3_EEE, symObjAddr: 0xA7A4, symBinAddr: 0x56C7C, symSize: 0x98 }
  - { offsetInCU: 0x52E2F, offset: 0x338AA1, size: 0x8, addend: 0x0, symName: __ZNSt3__110shared_ptrIN2v810PersistentINS1_8FunctionENS1_27NonCopyablePersistentTraitsIS3_EEEEED2B8ue170006Ev, symObjAddr: 0xC8A8, symBinAddr: 0x57B80, symSize: 0x50 }
  - { offsetInCU: 0x53330, offset: 0x338FA2, size: 0x8, addend: 0x0, symName: __ZN10robin_hood6detail5TableILb1ELm80EPKN3tns13BaseClassMetaENSt3__110unique_ptrIN2v810PersistentINS8_16FunctionTemplateENS8_27NonCopyablePersistentTraitsISA_EEEENS6_14default_deleteISD_EEEENS_4hashIS5_vEENS6_8equal_toIS5_EEE25insertKeyPrepareEmptySpotIRKS5_EENS6_4pairImNSL_14InsertionStateEEEOT_, symObjAddr: 0xEC50, symBinAddr: 0x59208, symSize: 0x194 }
  - { offsetInCU: 0x534BE, offset: 0x339130, size: 0x8, addend: 0x0, symName: __ZNK10robin_hood6detail5TableILb1ELm80EPKN3tns13BaseClassMetaENSt3__110unique_ptrIN2v810PersistentINS8_16FunctionTemplateENS8_27NonCopyablePersistentTraitsISA_EEEENS6_14default_deleteISD_EEEENS_4hashIS5_vEENS6_8equal_toIS5_EEE18throwOverflowErrorEv, symObjAddr: 0xEDE4, symBinAddr: 0x5939C, symSize: 0x50 }
  - { offsetInCU: 0x53CE7, offset: 0x339959, size: 0x8, addend: 0x0, symName: __ZN10robin_hood6detail5TableILb1ELm80EPKN3tns4MetaENSt3__110unique_ptrIN2v810PersistentINS8_5ValueENS8_27NonCopyablePersistentTraitsISA_EEEENS6_14default_deleteISD_EEEENS_4hashIS5_vEENS6_8equal_toIS5_EEE25insertKeyPrepareEmptySpotIRKS5_EENS6_4pairImNSL_14InsertionStateEEEOT_, symObjAddr: 0xF468, symBinAddr: 0x59A20, symSize: 0x194 }
  - { offsetInCU: 0x53E75, offset: 0x339AE7, size: 0x8, addend: 0x0, symName: __ZNK10robin_hood6detail5TableILb1ELm80EPKN3tns4MetaENSt3__110unique_ptrIN2v810PersistentINS8_5ValueENS8_27NonCopyablePersistentTraitsISA_EEEENS6_14default_deleteISD_EEEENS_4hashIS5_vEENS6_8equal_toIS5_EEE18throwOverflowErrorEv, symObjAddr: 0xF5FC, symBinAddr: 0x59BB4, symSize: 0x50 }
  - { offsetInCU: 0x53ED0, offset: 0x339B42, size: 0x8, addend: 0x0, symName: __ZZN3tns6Caches11unique_voidINS_15MetadataBuilder9CacheItemINS_13InterfaceMetaEEEEENSt3__110unique_ptrIvPFvPKvEEEPT_ENUlS9_E_8__invokeES9_, symObjAddr: 0xFC80, symBinAddr: 0x5A238, symSize: 0x38 }
  - { offsetInCU: 0x53EFB, offset: 0x339B6D, size: 0x8, addend: 0x0, symName: __ZZN3tns6Caches11unique_voidINS_15MetadataBuilder9CacheItemINS_13InterfaceMetaEEEEENSt3__110unique_ptrIvPFvPKvEEEPT_ENUlS9_E_8__invokeES9_, symObjAddr: 0xFC80, symBinAddr: 0x5A238, symSize: 0x38 }
  - { offsetInCU: 0x540E9, offset: 0x339D5B, size: 0x8, addend: 0x0, symName: __ZN3tns15MetadataBuilder13AllocCallbackERKN2v820FunctionCallbackInfoINS1_5ValueEEE, symObjAddr: 0x88C0, symBinAddr: 0x5506C, symSize: 0x288 }
  - { offsetInCU: 0x54A9D, offset: 0x33A70F, size: 0x8, addend: 0x0, symName: __ZZN3tns6Caches11unique_voidINS_15MetadataBuilder9CacheItemINS_10MethodMetaEEEEENSt3__110unique_ptrIvPFvPKvEEEPT_ENUlS9_E_8__invokeES9_, symObjAddr: 0xFDC0, symBinAddr: 0x5A378, symSize: 0x38 }
  - { offsetInCU: 0x54AC8, offset: 0x33A73A, size: 0x8, addend: 0x0, symName: __ZZN3tns6Caches11unique_voidINS_15MetadataBuilder9CacheItemINS_10MethodMetaEEEEENSt3__110unique_ptrIvPFvPKvEEEPT_ENUlS9_E_8__invokeES9_, symObjAddr: 0xFDC0, symBinAddr: 0x5A378, symSize: 0x38 }
  - { offsetInCU: 0x54C6A, offset: 0x33A8DC, size: 0x8, addend: 0x0, symName: __ZN3tns15MetadataBuilder14MethodCallbackERKN2v820FunctionCallbackInfoINS1_5ValueEEE, symObjAddr: 0x8C5C, symBinAddr: 0x55408, symSize: 0x21C }
  - { offsetInCU: 0x554B8, offset: 0x33B12A, size: 0x8, addend: 0x0, symName: __ZN3tns15MetadataBuilder12InvokeMethodEN2v85LocalINS1_7ContextEEEPKNS_10MethodMetaENS2_INS1_6ObjectEEERNS_6V8ArgsENSt3__112basic_stringIcNSC_11char_traitsIcEENSC_9allocatorIcEEEEb, symObjAddr: 0x9A54, symBinAddr: 0x561B0, symSize: 0xB8 }
  - { offsetInCU: 0x5593D, offset: 0x33B5AF, size: 0x8, addend: 0x0, symName: __ZN10robin_hood6detail5TableILb1ELm80ENSt3__112basic_stringIcNS2_11char_traitsIcEENS2_9allocatorIcEEEEhNS_4hashIS8_vEENS2_8equal_toIS8_EEE25insertKeyPrepareEmptySpotIRKS8_EENS2_4pairImNSD_14InsertionStateEEEOT_, symObjAddr: 0xFDF8, symBinAddr: 0x5A3B0, symSize: 0x188 }
  - { offsetInCU: 0x55A79, offset: 0x33B6EB, size: 0x8, addend: 0x0, symName: __ZNK10robin_hood6detail5TableILb1ELm80ENSt3__112basic_stringIcNS2_11char_traitsIcEENS2_9allocatorIcEEEEhNS_4hashIS8_vEENS2_8equal_toIS8_EEE18throwOverflowErrorEv, symObjAddr: 0xFF80, symBinAddr: 0x5A538, symSize: 0x50 }
  - { offsetInCU: 0x55AD4, offset: 0x33B746, size: 0x8, addend: 0x0, symName: __ZZN3tns6Caches11unique_voidINS_15MetadataBuilder9CacheItemINS_12PropertyMetaEEEEENSt3__110unique_ptrIvPFvPKvEEEPT_ENUlS9_E_8__invokeES9_, symObjAddr: 0x10644, symBinAddr: 0x5ABFC, symSize: 0x38 }
  - { offsetInCU: 0x55AFF, offset: 0x33B771, size: 0x8, addend: 0x0, symName: __ZZN3tns6Caches11unique_voidINS_15MetadataBuilder9CacheItemINS_12PropertyMetaEEEEENSt3__110unique_ptrIvPFvPKvEEEPT_ENUlS9_E_8__invokeES9_, symObjAddr: 0x10644, symBinAddr: 0x5ABFC, symSize: 0x38 }
  - { offsetInCU: 0x55CCE, offset: 0x33B940, size: 0x8, addend: 0x0, symName: __ZN3tns15MetadataBuilder22PropertyGetterCallbackERKN2v820FunctionCallbackInfoINS1_5ValueEEE, symObjAddr: 0x90DC, symBinAddr: 0x55888, symSize: 0x204 }
  - { offsetInCU: 0x5660B, offset: 0x33C27D, size: 0x8, addend: 0x0, symName: __ZN3tns15MetadataBuilder22PropertySetterCallbackERKN2v820FunctionCallbackInfoINS1_5ValueEEE, symObjAddr: 0x92E0, symBinAddr: 0x55A8C, symSize: 0x20C }
  - { offsetInCU: 0x56E7F, offset: 0x33CAF1, size: 0x8, addend: 0x0, symName: __ZN3tns15MetadataBuilder26PropertyNameGetterCallbackEN2v85LocalINS1_4NameEEERKNS1_20PropertyCallbackInfoINS1_5ValueEEE, symObjAddr: 0x963C, symBinAddr: 0x55DE8, symSize: 0x1E4 }
  - { offsetInCU: 0x57770, offset: 0x33D3E2, size: 0x8, addend: 0x0, symName: __ZN3tns15MetadataBuilder26PropertyNameSetterCallbackEN2v85LocalINS1_4NameEEENS2_INS1_5ValueEEERKNS1_20PropertyCallbackInfoIvEE, symObjAddr: 0x9820, symBinAddr: 0x55FCC, symSize: 0x1E4 }
  - { offsetInCU: 0x5831B, offset: 0x33DF8D, size: 0x8, addend: 0x0, symName: __ZN3tns15MetadataBuilder28StructPropertyGetterCallbackEN2v85LocalINS1_4NameEEERKNS1_20PropertyCallbackInfoINS1_5ValueEEE, symObjAddr: 0x9B0C, symBinAddr: 0x56268, symSize: 0x538 }
  - { offsetInCU: 0x5A229, offset: 0x33FE9B, size: 0x8, addend: 0x0, symName: __ZNK10robin_hood6detail5TableILb1ELm80ENSt3__14pairIPvNS2_12basic_stringIcNS2_11char_traitsIcEENS2_9allocatorIcEEEEEENS2_10shared_ptrIN2v810PersistentINSD_5ValueENSD_27NonCopyablePersistentTraitsISF_EEEEEEN3tns9pair_hashENS2_8equal_toISB_EEE7findIdxISB_EEmRKT_, symObjAddr: 0x10D84, symBinAddr: 0x5AD48, symSize: 0x118 }
  - { offsetInCU: 0x5A470, offset: 0x3400E2, size: 0x8, addend: 0x0, symName: __ZN3tns15MetadataBuilder28StructPropertySetterCallbackEN2v85LocalINS1_4NameEEENS2_INS1_5ValueEEERKNS1_20PropertyCallbackInfoIS5_EE, symObjAddr: 0xA0AC, symBinAddr: 0x567A0, symSize: 0x37C }
  - { offsetInCU: 0x5BE8E, offset: 0x341B00, size: 0x8, addend: 0x0, symName: '__ZNSt3__110__function6__funcIZN3tns15MetadataBuilder24SwizzledPropertyCallbackEN2v85LocalINS4_4NameEEERKNS4_18PropertyDescriptorERKNS4_20PropertyCallbackInfoINS4_5ValueEEEE3$_4NS_9allocatorISG_EEFiRKNS2_5PtrToINS2_12PropertyMetaEEEEED1Ev', symObjAddr: 0x11BA0, symBinAddr: 0x5B7A4, symSize: 0x3C }
  - { offsetInCU: 0x5C2E8, offset: 0x341F5A, size: 0x8, addend: 0x0, symName: __ZN3tns15FunctionWrapperD1Ev, symObjAddr: 0xAA84, symBinAddr: 0x56D14, symSize: 0x4 }
  - { offsetInCU: 0x5C314, offset: 0x341F86, size: 0x8, addend: 0x0, symName: __ZN3tns15FunctionWrapperD0Ev, symObjAddr: 0xAA88, symBinAddr: 0x56D18, symSize: 0x4 }
  - { offsetInCU: 0x5C340, offset: 0x341FB2, size: 0x8, addend: 0x0, symName: __ZN3tns15FunctionWrapper4TypeEv, symObjAddr: 0xAA8C, symBinAddr: 0x56D1C, symSize: 0x8 }
  - { offsetInCU: 0x5CA88, offset: 0x3426FA, size: 0x8, addend: 0x0, symName: __ZN3tns17StructTypeWrapperD1Ev, symObjAddr: 0xAE64, symBinAddr: 0x56DDC, symSize: 0x58 }
  - { offsetInCU: 0x5CCD6, offset: 0x342948, size: 0x8, addend: 0x0, symName: __ZN3tns17StructTypeWrapperD0Ev, symObjAddr: 0xAEBC, symBinAddr: 0x56E34, symSize: 0x5C }
  - { offsetInCU: 0x5CF30, offset: 0x342BA2, size: 0x8, addend: 0x0, symName: __ZN3tns17StructTypeWrapper4TypeEv, symObjAddr: 0xAF18, symBinAddr: 0x56E90, symSize: 0x8 }
  - { offsetInCU: 0x5CF74, offset: 0x342BE6, size: 0x8, addend: 0x0, symName: __ZN3tns13StructWrapperD1Ev, symObjAddr: 0xB04C, symBinAddr: 0x56FC4, symSize: 0x6C }
  - { offsetInCU: 0x5D209, offset: 0x342E7B, size: 0x8, addend: 0x0, symName: __ZN3tns13StructWrapperD0Ev, symObjAddr: 0xB0B8, symBinAddr: 0x57030, symSize: 0x70 }
  - { offsetInCU: 0x5D4AA, offset: 0x34311C, size: 0x8, addend: 0x0, symName: __ZN3tns13StructWrapper4TypeEv, symObjAddr: 0xB128, symBinAddr: 0x570A0, symSize: 0x8 }
  - { offsetInCU: 0x5D4D1, offset: 0x343143, size: 0x8, addend: 0x0, symName: __ZN3tns19ObjCProtocolWrapperD1Ev, symObjAddr: 0xB130, symBinAddr: 0x570A8, symSize: 0x4 }
  - { offsetInCU: 0x5D4FD, offset: 0x34316F, size: 0x8, addend: 0x0, symName: __ZN3tns19ObjCProtocolWrapperD0Ev, symObjAddr: 0xB134, symBinAddr: 0x570AC, symSize: 0x4 }
  - { offsetInCU: 0x5D529, offset: 0x34319B, size: 0x8, addend: 0x0, symName: __ZN3tns19ObjCProtocolWrapper4TypeEv, symObjAddr: 0xB138, symBinAddr: 0x570B0, symSize: 0x8 }
  - { offsetInCU: 0x5D550, offset: 0x3431C2, size: 0x8, addend: 0x0, symName: __ZN3tns20ObjCAllocDataWrapperD1Ev, symObjAddr: 0xB280, symBinAddr: 0x570B8, symSize: 0x4 }
  - { offsetInCU: 0x5D57C, offset: 0x3431EE, size: 0x8, addend: 0x0, symName: __ZN3tns20ObjCAllocDataWrapperD0Ev, symObjAddr: 0xB284, symBinAddr: 0x570BC, symSize: 0x4 }
  - { offsetInCU: 0x5D5A8, offset: 0x34321A, size: 0x8, addend: 0x0, symName: __ZN3tns20ObjCAllocDataWrapper4TypeEv, symObjAddr: 0xB288, symBinAddr: 0x570C0, symSize: 0x8 }
  - { offsetInCU: 0x5D5CF, offset: 0x343241, size: 0x8, addend: 0x0, symName: __ZNK3tns22V8FunctionCallbackArgsixEi, symObjAddr: 0xB290, symBinAddr: 0x570C8, symSize: 0x30 }
  - { offsetInCU: 0x5D67F, offset: 0x3432F1, size: 0x8, addend: 0x0, symName: __ZNK3tns22V8FunctionCallbackArgs6LengthEv, symObjAddr: 0xB2C0, symBinAddr: 0x570F8, symSize: 0xC }
  - { offsetInCU: 0x5D6C2, offset: 0x343334, size: 0x8, addend: 0x0, symName: __ZNK3tns16V8EmptyValueArgsixEi, symObjAddr: 0xB2CC, symBinAddr: 0x57104, symSize: 0x8 }
  - { offsetInCU: 0x5D6F6, offset: 0x343368, size: 0x8, addend: 0x0, symName: __ZNK3tns16V8EmptyValueArgs6LengthEv, symObjAddr: 0xB2D4, symBinAddr: 0x5710C, symSize: 0x8 }
  - { offsetInCU: 0x5D71D, offset: 0x34338F, size: 0x8, addend: 0x0, symName: __ZNK3tns17V8SimpleValueArgsixEi, symObjAddr: 0xB2DC, symBinAddr: 0x57114, symSize: 0xC }
  - { offsetInCU: 0x5D751, offset: 0x3433C3, size: 0x8, addend: 0x0, symName: __ZNK3tns17V8SimpleValueArgs6LengthEv, symObjAddr: 0xB2E8, symBinAddr: 0x57120, symSize: 0x8 }
  - { offsetInCU: 0x5E40D, offset: 0x34407F, size: 0x8, addend: 0x0, symName: '__ZZN3tns15MetadataBuilder24SwizzledPropertyCallbackEN2v85LocalINS1_4NameEEERKNS1_18PropertyDescriptorERKNS1_20PropertyCallbackInfoINS1_5ValueEEEEN3$_58__invokeEP7ffi_cifPvPSG_SG_', symObjAddr: 0xBD60, symBinAddr: 0x57214, symSize: 0x470 }
  - { offsetInCU: 0x5F9B6, offset: 0x345628, size: 0x8, addend: 0x0, symName: '__ZZN3tns15MetadataBuilder24SwizzledPropertyCallbackEN2v85LocalINS1_4NameEEERKNS1_18PropertyDescriptorERKNS1_20PropertyCallbackInfoINS1_5ValueEEEEN3$_68__invokeEP7ffi_cifPvPSG_SG_', symObjAddr: 0xC2C8, symBinAddr: 0x57684, symSize: 0x4FC }
  - { offsetInCU: 0x611EB, offset: 0x346E5D, size: 0x8, addend: 0x0, symName: __ZZN3tns6Caches11unique_voidINS_15MetadataBuilder20GlobalHandlerContextEEENSt3__110unique_ptrIvPFvPKvEEEPT_ENUlS7_E_8__invokeES7_, symObjAddr: 0xCD8C, symBinAddr: 0x57BD0, symSize: 0xC }
  - { offsetInCU: 0x61208, offset: 0x346E7A, size: 0x8, addend: 0x0, symName: __ZZN3tns6Caches11unique_voidINS_15MetadataBuilder20GlobalHandlerContextEEENSt3__110unique_ptrIvPFvPKvEEEPT_ENUlS7_E_8__invokeES7_, symObjAddr: 0xCD8C, symBinAddr: 0x57BD0, symSize: 0xC }
  - { offsetInCU: 0x614C4, offset: 0x347136, size: 0x8, addend: 0x0, symName: __ZN10robin_hood6detail5TableILb1ELm80ENSt3__112basic_stringIcNS2_11char_traitsIcEENS2_9allocatorIcEEEENS2_10unique_ptrIN2v810PersistentINSA_8FunctionENSA_27NonCopyablePersistentTraitsISC_EEEENS2_14default_deleteISF_EEEENS_4hashIS8_vEENS2_8equal_toIS8_EEE13increase_sizeEv, symObjAddr: 0xD3C8, symBinAddr: 0x57FEC, symSize: 0x12C }
  - { offsetInCU: 0x61587, offset: 0x3471F9, size: 0x8, addend: 0x0, symName: __ZN10robin_hood6detail5TableILb1ELm80ENSt3__112basic_stringIcNS2_11char_traitsIcEENS2_9allocatorIcEEEENS2_10unique_ptrIN2v810PersistentINSA_8FunctionENSA_27NonCopyablePersistentTraitsISC_EEEENS2_14default_deleteISF_EEEENS_4hashIS8_vEENS2_8equal_toIS8_EEE7shiftUpEmm, symObjAddr: 0xD4F4, symBinAddr: 0x58118, symSize: 0x128 }
  - { offsetInCU: 0x61861, offset: 0x3474D3, size: 0x8, addend: 0x0, symName: __ZN10robin_hood6detail5TableILb1ELm80ENSt3__112basic_stringIcNS2_11char_traitsIcEENS2_9allocatorIcEEEENS2_10unique_ptrIN2v810PersistentINSA_8FunctionENSA_27NonCopyablePersistentTraitsISC_EEEENS2_14default_deleteISF_EEEENS_4hashIS8_vEENS2_8equal_toIS8_EEE17try_increase_infoEv, symObjAddr: 0xD6E8, symBinAddr: 0x5830C, symSize: 0x100 }
  - { offsetInCU: 0x6195E, offset: 0x3475D0, size: 0x8, addend: 0x0, symName: __ZN10robin_hood6detail5TableILb1ELm80ENSt3__112basic_stringIcNS2_11char_traitsIcEENS2_9allocatorIcEEEENS2_10unique_ptrIN2v810PersistentINSA_8FunctionENSA_27NonCopyablePersistentTraitsISC_EEEENS2_14default_deleteISF_EEEENS_4hashIS8_vEENS2_8equal_toIS8_EEE8initDataEm, symObjAddr: 0xD61C, symBinAddr: 0x58240, symSize: 0xCC }
  - { offsetInCU: 0x61A6B, offset: 0x3476DD, size: 0x8, addend: 0x0, symName: __ZN10robin_hood6detail5TableILb1ELm80ENSt3__112basic_stringIcNS2_11char_traitsIcEENS2_9allocatorIcEEEENS2_10unique_ptrIN2v810PersistentINSA_8FunctionENSA_27NonCopyablePersistentTraitsISC_EEEENS2_14default_deleteISF_EEEENS_4hashIS8_vEENS2_8equal_toIS8_EEE17try_increase_infoEv, symObjAddr: 0xD6E8, symBinAddr: 0x5830C, symSize: 0x100 }
  - { offsetInCU: 0x61A76, offset: 0x3476E8, size: 0x8, addend: 0x0, symName: __ZN10robin_hood6detail5TableILb1ELm80ENSt3__112basic_stringIcNS2_11char_traitsIcEENS2_9allocatorIcEEEENS2_10unique_ptrIN2v810PersistentINSA_8FunctionENSA_27NonCopyablePersistentTraitsISC_EEEENS2_14default_deleteISF_EEEENS_4hashIS8_vEENS2_8equal_toIS8_EEE16rehashPowerOfTwoEmb, symObjAddr: 0xD7E8, symBinAddr: 0x5840C, symSize: 0x110 }
  - { offsetInCU: 0x61E26, offset: 0x347A98, size: 0x8, addend: 0x0, symName: __ZN10robin_hood6detail5TableILb1ELm80ENSt3__112basic_stringIcNS2_11char_traitsIcEENS2_9allocatorIcEEEENS2_10unique_ptrIN2v810PersistentINSA_8FunctionENSA_27NonCopyablePersistentTraitsISC_EEEENS2_14default_deleteISF_EEEENS_4hashIS8_vEENS2_8equal_toIS8_EEE11insert_moveEONSN_8DataNodeISN_Lb1EEE, symObjAddr: 0xD8F8, symBinAddr: 0x5851C, symSize: 0x174 }
  - { offsetInCU: 0x62559, offset: 0x3481CB, size: 0x8, addend: 0x0, symName: __ZN10robin_hood6detail5TableILb1ELm80ENSt3__14pairIPvNS2_12basic_stringIcNS2_11char_traitsIcEENS2_9allocatorIcEEEEEENS2_10shared_ptrIN2v810PersistentINSD_5ValueENSD_27NonCopyablePersistentTraitsISF_EEEEEEN3tns9pair_hashENS2_8equal_toISB_EEE13increase_sizeEv, symObjAddr: 0xDDA0, symBinAddr: 0x58914, symSize: 0x12C }
  - { offsetInCU: 0x6261C, offset: 0x34828E, size: 0x8, addend: 0x0, symName: __ZN10robin_hood6detail5TableILb1ELm80ENSt3__14pairIPvNS2_12basic_stringIcNS2_11char_traitsIcEENS2_9allocatorIcEEEEEENS2_10shared_ptrIN2v810PersistentINSD_5ValueENSD_27NonCopyablePersistentTraitsISF_EEEEEEN3tns9pair_hashENS2_8equal_toISB_EEE7shiftUpEmm, symObjAddr: 0xDECC, symBinAddr: 0x58A40, symSize: 0x134 }
  - { offsetInCU: 0x629A2, offset: 0x348614, size: 0x8, addend: 0x0, symName: __ZN10robin_hood6detail5TableILb1ELm80ENSt3__14pairIPvNS2_12basic_stringIcNS2_11char_traitsIcEENS2_9allocatorIcEEEEEENS2_10shared_ptrIN2v810PersistentINSD_5ValueENSD_27NonCopyablePersistentTraitsISF_EEEEEEN3tns9pair_hashENS2_8equal_toISB_EEE17try_increase_infoEv, symObjAddr: 0xE63C, symBinAddr: 0x58C50, symSize: 0x100 }
  - { offsetInCU: 0x62A9F, offset: 0x348711, size: 0x8, addend: 0x0, symName: __ZN10robin_hood6detail5TableILb1ELm80ENSt3__14pairIPvNS2_12basic_stringIcNS2_11char_traitsIcEENS2_9allocatorIcEEEEEENS2_10shared_ptrIN2v810PersistentINSD_5ValueENSD_27NonCopyablePersistentTraitsISF_EEEEEEN3tns9pair_hashENS2_8equal_toISB_EEE8initDataEm, symObjAddr: 0xE560, symBinAddr: 0x58B74, symSize: 0xDC }
  - { offsetInCU: 0x62BAC, offset: 0x34881E, size: 0x8, addend: 0x0, symName: __ZN10robin_hood6detail5TableILb1ELm80ENSt3__14pairIPvNS2_12basic_stringIcNS2_11char_traitsIcEENS2_9allocatorIcEEEEEENS2_10shared_ptrIN2v810PersistentINSD_5ValueENSD_27NonCopyablePersistentTraitsISF_EEEEEEN3tns9pair_hashENS2_8equal_toISB_EEE17try_increase_infoEv, symObjAddr: 0xE63C, symBinAddr: 0x58C50, symSize: 0x100 }
  - { offsetInCU: 0x62BB7, offset: 0x348829, size: 0x8, addend: 0x0, symName: __ZN10robin_hood6detail5TableILb1ELm80ENSt3__14pairIPvNS2_12basic_stringIcNS2_11char_traitsIcEENS2_9allocatorIcEEEEEENS2_10shared_ptrIN2v810PersistentINSD_5ValueENSD_27NonCopyablePersistentTraitsISF_EEEEEEN3tns9pair_hashENS2_8equal_toISB_EEE16rehashPowerOfTwoEmb, symObjAddr: 0xE73C, symBinAddr: 0x58D50, symSize: 0x108 }
  - { offsetInCU: 0x63817, offset: 0x349489, size: 0x8, addend: 0x0, symName: __ZN10robin_hood6detail5TableILb1ELm80ENSt3__14pairIPvNS2_12basic_stringIcNS2_11char_traitsIcEENS2_9allocatorIcEEEEEENS2_10shared_ptrIN2v810PersistentINSD_5ValueENSD_27NonCopyablePersistentTraitsISF_EEEEEEN3tns9pair_hashENS2_8equal_toISB_EEE11insert_moveEONSO_8DataNodeISO_Lb1EEE, symObjAddr: 0xE844, symBinAddr: 0x58E58, symSize: 0x184 }
  - { offsetInCU: 0x63CCD, offset: 0x34993F, size: 0x8, addend: 0x0, symName: __ZNK10robin_hood6detail5TableILb1ELm80ENSt3__112basic_stringIcNS2_11char_traitsIcEENS2_9allocatorIcEEEEhNS_4hashIS8_vEENS2_8equal_toIS8_EEE9DestroyerISD_Lb0EE20nodesDoNotDeallocateERSD_, symObjAddr: 0xEA70, symBinAddr: 0x59028, symSize: 0xD0 }
  - { offsetInCU: 0x64115, offset: 0x349D87, size: 0x8, addend: 0x0, symName: __ZN10robin_hood6detail5TableILb1ELm80EPKN3tns13BaseClassMetaENSt3__110unique_ptrIN2v810PersistentINS8_16FunctionTemplateENS8_27NonCopyablePersistentTraitsISA_EEEENS6_14default_deleteISD_EEEENS_4hashIS5_vEENS6_8equal_toIS5_EEE13increase_sizeEv, symObjAddr: 0xEE34, symBinAddr: 0x593EC, symSize: 0x12C }
  - { offsetInCU: 0x641D8, offset: 0x349E4A, size: 0x8, addend: 0x0, symName: __ZN10robin_hood6detail5TableILb1ELm80EPKN3tns13BaseClassMetaENSt3__110unique_ptrIN2v810PersistentINS8_16FunctionTemplateENS8_27NonCopyablePersistentTraitsISA_EEEENS6_14default_deleteISD_EEEENS_4hashIS5_vEENS6_8equal_toIS5_EEE7shiftUpEmm, symObjAddr: 0xEF60, symBinAddr: 0x59518, symSize: 0xE4 }
  - { offsetInCU: 0x64386, offset: 0x349FF8, size: 0x8, addend: 0x0, symName: __ZN10robin_hood6detail5TableILb1ELm80EPKN3tns13BaseClassMetaENSt3__110unique_ptrIN2v810PersistentINS8_16FunctionTemplateENS8_27NonCopyablePersistentTraitsISA_EEEENS6_14default_deleteISD_EEEENS_4hashIS5_vEENS6_8equal_toIS5_EEE17try_increase_infoEv, symObjAddr: 0xF110, symBinAddr: 0x596C8, symSize: 0x100 }
  - { offsetInCU: 0x64483, offset: 0x34A0F5, size: 0x8, addend: 0x0, symName: __ZN10robin_hood6detail5TableILb1ELm80EPKN3tns13BaseClassMetaENSt3__110unique_ptrIN2v810PersistentINS8_16FunctionTemplateENS8_27NonCopyablePersistentTraitsISA_EEEENS6_14default_deleteISD_EEEENS_4hashIS5_vEENS6_8equal_toIS5_EEE8initDataEm, symObjAddr: 0xF044, symBinAddr: 0x595FC, symSize: 0xCC }
  - { offsetInCU: 0x64590, offset: 0x34A202, size: 0x8, addend: 0x0, symName: __ZN10robin_hood6detail5TableILb1ELm80EPKN3tns13BaseClassMetaENSt3__110unique_ptrIN2v810PersistentINS8_16FunctionTemplateENS8_27NonCopyablePersistentTraitsISA_EEEENS6_14default_deleteISD_EEEENS_4hashIS5_vEENS6_8equal_toIS5_EEE17try_increase_infoEv, symObjAddr: 0xF110, symBinAddr: 0x596C8, symSize: 0x100 }
  - { offsetInCU: 0x6459B, offset: 0x34A20D, size: 0x8, addend: 0x0, symName: __ZN10robin_hood6detail5TableILb1ELm80EPKN3tns13BaseClassMetaENSt3__110unique_ptrIN2v810PersistentINS8_16FunctionTemplateENS8_27NonCopyablePersistentTraitsISA_EEEENS6_14default_deleteISD_EEEENS_4hashIS5_vEENS6_8equal_toIS5_EEE16rehashPowerOfTwoEmb, symObjAddr: 0xF210, symBinAddr: 0x597C8, symSize: 0x100 }
  - { offsetInCU: 0x6483F, offset: 0x34A4B1, size: 0x8, addend: 0x0, symName: __ZN10robin_hood6detail5TableILb1ELm80EPKN3tns13BaseClassMetaENSt3__110unique_ptrIN2v810PersistentINS8_16FunctionTemplateENS8_27NonCopyablePersistentTraitsISA_EEEENS6_14default_deleteISD_EEEENS_4hashIS5_vEENS6_8equal_toIS5_EEE11insert_moveEONSL_8DataNodeISL_Lb1EEE, symObjAddr: 0xF310, symBinAddr: 0x598C8, symSize: 0x158 }
  - { offsetInCU: 0x64CF3, offset: 0x34A965, size: 0x8, addend: 0x0, symName: __ZN10robin_hood6detail5TableILb1ELm80EPKN3tns4MetaENSt3__110unique_ptrIN2v810PersistentINS8_5ValueENS8_27NonCopyablePersistentTraitsISA_EEEENS6_14default_deleteISD_EEEENS_4hashIS5_vEENS6_8equal_toIS5_EEE13increase_sizeEv, symObjAddr: 0xF64C, symBinAddr: 0x59C04, symSize: 0x12C }
  - { offsetInCU: 0x64DB6, offset: 0x34AA28, size: 0x8, addend: 0x0, symName: __ZN10robin_hood6detail5TableILb1ELm80EPKN3tns4MetaENSt3__110unique_ptrIN2v810PersistentINS8_5ValueENS8_27NonCopyablePersistentTraitsISA_EEEENS6_14default_deleteISD_EEEENS_4hashIS5_vEENS6_8equal_toIS5_EEE7shiftUpEmm, symObjAddr: 0xF778, symBinAddr: 0x59D30, symSize: 0xE4 }
  - { offsetInCU: 0x64F6A, offset: 0x34ABDC, size: 0x8, addend: 0x0, symName: __ZN10robin_hood6detail5TableILb1ELm80EPKN3tns4MetaENSt3__110unique_ptrIN2v810PersistentINS8_5ValueENS8_27NonCopyablePersistentTraitsISA_EEEENS6_14default_deleteISD_EEEENS_4hashIS5_vEENS6_8equal_toIS5_EEE17try_increase_infoEv, symObjAddr: 0xF928, symBinAddr: 0x59EE0, symSize: 0x100 }
  - { offsetInCU: 0x65067, offset: 0x34ACD9, size: 0x8, addend: 0x0, symName: __ZN10robin_hood6detail5TableILb1ELm80EPKN3tns4MetaENSt3__110unique_ptrIN2v810PersistentINS8_5ValueENS8_27NonCopyablePersistentTraitsISA_EEEENS6_14default_deleteISD_EEEENS_4hashIS5_vEENS6_8equal_toIS5_EEE8initDataEm, symObjAddr: 0xF85C, symBinAddr: 0x59E14, symSize: 0xCC }
  - { offsetInCU: 0x65174, offset: 0x34ADE6, size: 0x8, addend: 0x0, symName: __ZN10robin_hood6detail5TableILb1ELm80EPKN3tns4MetaENSt3__110unique_ptrIN2v810PersistentINS8_5ValueENS8_27NonCopyablePersistentTraitsISA_EEEENS6_14default_deleteISD_EEEENS_4hashIS5_vEENS6_8equal_toIS5_EEE17try_increase_infoEv, symObjAddr: 0xF928, symBinAddr: 0x59EE0, symSize: 0x100 }
  - { offsetInCU: 0x6517F, offset: 0x34ADF1, size: 0x8, addend: 0x0, symName: __ZN10robin_hood6detail5TableILb1ELm80EPKN3tns4MetaENSt3__110unique_ptrIN2v810PersistentINS8_5ValueENS8_27NonCopyablePersistentTraitsISA_EEEENS6_14default_deleteISD_EEEENS_4hashIS5_vEENS6_8equal_toIS5_EEE16rehashPowerOfTwoEmb, symObjAddr: 0xFA28, symBinAddr: 0x59FE0, symSize: 0x100 }
  - { offsetInCU: 0x65423, offset: 0x34B095, size: 0x8, addend: 0x0, symName: __ZN10robin_hood6detail5TableILb1ELm80EPKN3tns4MetaENSt3__110unique_ptrIN2v810PersistentINS8_5ValueENS8_27NonCopyablePersistentTraitsISA_EEEENS6_14default_deleteISD_EEEENS_4hashIS5_vEENS6_8equal_toIS5_EEE11insert_moveEONSL_8DataNodeISL_Lb1EEE, symObjAddr: 0xFB28, symBinAddr: 0x5A0E0, symSize: 0x158 }
  - { offsetInCU: 0x6596D, offset: 0x34B5DF, size: 0x8, addend: 0x0, symName: __ZN10robin_hood6detail5TableILb1ELm80ENSt3__112basic_stringIcNS2_11char_traitsIcEENS2_9allocatorIcEEEEhNS_4hashIS8_vEENS2_8equal_toIS8_EEE13increase_sizeEv, symObjAddr: 0xFFD0, symBinAddr: 0x5A588, symSize: 0x12C }
  - { offsetInCU: 0x65A30, offset: 0x34B6A2, size: 0x8, addend: 0x0, symName: __ZN10robin_hood6detail5TableILb1ELm80ENSt3__112basic_stringIcNS2_11char_traitsIcEENS2_9allocatorIcEEEEhNS_4hashIS8_vEENS2_8equal_toIS8_EEE7shiftUpEmm, symObjAddr: 0x100FC, symBinAddr: 0x5A6B4, symSize: 0x120 }
  - { offsetInCU: 0x65CE3, offset: 0x34B955, size: 0x8, addend: 0x0, symName: __ZN10robin_hood6detail5TableILb1ELm80ENSt3__112basic_stringIcNS2_11char_traitsIcEENS2_9allocatorIcEEEEhNS_4hashIS8_vEENS2_8equal_toIS8_EEE17try_increase_infoEv, symObjAddr: 0x102E8, symBinAddr: 0x5A8A0, symSize: 0x100 }
  - { offsetInCU: 0x65DE0, offset: 0x34BA52, size: 0x8, addend: 0x0, symName: __ZN10robin_hood6detail5TableILb1ELm80ENSt3__112basic_stringIcNS2_11char_traitsIcEENS2_9allocatorIcEEEEhNS_4hashIS8_vEENS2_8equal_toIS8_EEE8initDataEm, symObjAddr: 0x1021C, symBinAddr: 0x5A7D4, symSize: 0xCC }
  - { offsetInCU: 0x65EED, offset: 0x34BB5F, size: 0x8, addend: 0x0, symName: __ZN10robin_hood6detail5TableILb1ELm80ENSt3__112basic_stringIcNS2_11char_traitsIcEENS2_9allocatorIcEEEEhNS_4hashIS8_vEENS2_8equal_toIS8_EEE17try_increase_infoEv, symObjAddr: 0x102E8, symBinAddr: 0x5A8A0, symSize: 0x100 }
  - { offsetInCU: 0x65EF8, offset: 0x34BB6A, size: 0x8, addend: 0x0, symName: __ZN10robin_hood6detail5TableILb1ELm80ENSt3__112basic_stringIcNS2_11char_traitsIcEENS2_9allocatorIcEEEEhNS_4hashIS8_vEENS2_8equal_toIS8_EEE16rehashPowerOfTwoEmb, symObjAddr: 0x103E8, symBinAddr: 0x5A9A0, symSize: 0x100 }
  - { offsetInCU: 0x661F8, offset: 0x34BE6A, size: 0x8, addend: 0x0, symName: __ZN10robin_hood6detail5TableILb1ELm80ENSt3__112basic_stringIcNS2_11char_traitsIcEENS2_9allocatorIcEEEEhNS_4hashIS8_vEENS2_8equal_toIS8_EEE11insert_moveEONSD_8DataNodeISD_Lb1EEE, symObjAddr: 0x104E8, symBinAddr: 0x5AAA0, symSize: 0x15C }
  - { offsetInCU: 0x677D1, offset: 0x34D443, size: 0x8, addend: 0x0, symName: '__ZNSt3__110__function6__funcIZN3tns15MetadataBuilder17CFunctionCallbackERKN2v820FunctionCallbackInfoINS4_5ValueEEEE3$_2NS_9allocatorISA_EEFvvEED1Ev', symObjAddr: 0x11184, symBinAddr: 0x5AF48, symSize: 0x44 }
  - { offsetInCU: 0x6789B, offset: 0x34D50D, size: 0x8, addend: 0x0, symName: '__ZNSt3__110__function6__funcIZN3tns15MetadataBuilder17CFunctionCallbackERKN2v820FunctionCallbackInfoINS4_5ValueEEEE3$_2NS_9allocatorISA_EEFvvEED1Ev', symObjAddr: 0x11184, symBinAddr: 0x5AF48, symSize: 0x44 }
  - { offsetInCU: 0x67A5E, offset: 0x34D6D0, size: 0x8, addend: 0x0, symName: '__ZNSt3__110__function6__funcIZN3tns15MetadataBuilder17CFunctionCallbackERKN2v820FunctionCallbackInfoINS4_5ValueEEEE3$_2NS_9allocatorISA_EEFvvEED0Ev', symObjAddr: 0x111C8, symBinAddr: 0x5AF8C, symSize: 0x48 }
  - { offsetInCU: 0x67F39, offset: 0x34DBAB, size: 0x8, addend: 0x0, symName: '__ZNKSt3__110__function6__funcIZN3tns15MetadataBuilder17CFunctionCallbackERKN2v820FunctionCallbackInfoINS4_5ValueEEEE3$_2NS_9allocatorISA_EEFvvEE7__cloneEv', symObjAddr: 0x11210, symBinAddr: 0x5AFD4, symSize: 0x6C }
  - { offsetInCU: 0x6841B, offset: 0x34E08D, size: 0x8, addend: 0x0, symName: '__ZNKSt3__110__function6__funcIZN3tns15MetadataBuilder17CFunctionCallbackERKN2v820FunctionCallbackInfoINS4_5ValueEEEE3$_2NS_9allocatorISA_EEFvvEE7__cloneEPNS0_6__baseISD_EE', symObjAddr: 0x1127C, symBinAddr: 0x5B040, symSize: 0x34 }
  - { offsetInCU: 0x68665, offset: 0x34E2D7, size: 0x8, addend: 0x0, symName: '__ZNSt3__110__function6__funcIZN3tns15MetadataBuilder17CFunctionCallbackERKN2v820FunctionCallbackInfoINS4_5ValueEEEE3$_2NS_9allocatorISA_EEFvvEE7destroyEv', symObjAddr: 0x112B0, symBinAddr: 0x5B074, symSize: 0x28 }
  - { offsetInCU: 0x687D7, offset: 0x34E449, size: 0x8, addend: 0x0, symName: '__ZNSt3__110__function6__funcIZN3tns15MetadataBuilder17CFunctionCallbackERKN2v820FunctionCallbackInfoINS4_5ValueEEEE3$_2NS_9allocatorISA_EEFvvEE18destroy_deallocateEv', symObjAddr: 0x112D8, symBinAddr: 0x5B09C, symSize: 0x3C }
  - { offsetInCU: 0x68FE7, offset: 0x34EC59, size: 0x8, addend: 0x0, symName: '__ZNSt3__110__function6__funcIZN3tns15MetadataBuilder17CFunctionCallbackERKN2v820FunctionCallbackInfoINS4_5ValueEEEE3$_2NS_9allocatorISA_EEFvvEEclEv', symObjAddr: 0x11314, symBinAddr: 0x5B0D8, symSize: 0x358 }
  - { offsetInCU: 0x6A0B6, offset: 0x34FD28, size: 0x8, addend: 0x0, symName: '__ZNSt3__110__function6__funcIZN3tns15MetadataBuilder30SwizzledInstanceMethodCallbackEN2v85LocalINS4_4NameEEENS5_INS4_5ValueEEERKNS4_20PropertyCallbackInfoIS8_EEE3$_3NS_9allocatorISE_EEFiRKNS2_5PtrToINS2_10MethodMetaEEEEED1Ev', symObjAddr: 0x117B8, symBinAddr: 0x5B430, symSize: 0x3C }
  - { offsetInCU: 0x6A30A, offset: 0x34FF7C, size: 0x8, addend: 0x0, symName: '__ZNSt3__110__function6__funcIZN3tns15MetadataBuilder30SwizzledInstanceMethodCallbackEN2v85LocalINS4_4NameEEENS5_INS4_5ValueEEERKNS4_20PropertyCallbackInfoIS8_EEE3$_3NS_9allocatorISE_EEFiRKNS2_5PtrToINS2_10MethodMetaEEEEED0Ev', symObjAddr: 0x117F4, symBinAddr: 0x5B46C, symSize: 0x3C }
  - { offsetInCU: 0x6A876, offset: 0x3504E8, size: 0x8, addend: 0x0, symName: '__ZNKSt3__110__function6__funcIZN3tns15MetadataBuilder30SwizzledInstanceMethodCallbackEN2v85LocalINS4_4NameEEENS5_INS4_5ValueEEERKNS4_20PropertyCallbackInfoIS8_EEE3$_3NS_9allocatorISE_EEFiRKNS2_5PtrToINS2_10MethodMetaEEEEE7__cloneEv', symObjAddr: 0x11830, symBinAddr: 0x5B4A8, symSize: 0x74 }
  - { offsetInCU: 0x6AD03, offset: 0x350975, size: 0x8, addend: 0x0, symName: '__ZNKSt3__110__function6__funcIZN3tns15MetadataBuilder30SwizzledInstanceMethodCallbackEN2v85LocalINS4_4NameEEENS5_INS4_5ValueEEERKNS4_20PropertyCallbackInfoIS8_EEE3$_3NS_9allocatorISE_EEFiRKNS2_5PtrToINS2_10MethodMetaEEEEE7__cloneEPNS0_6__baseISM_EE', symObjAddr: 0x118A4, symBinAddr: 0x5B51C, symSize: 0x3C }
  - { offsetInCU: 0x6AF1A, offset: 0x350B8C, size: 0x8, addend: 0x0, symName: '__ZNSt3__110__function6__funcIZN3tns15MetadataBuilder30SwizzledInstanceMethodCallbackEN2v85LocalINS4_4NameEEENS5_INS4_5ValueEEERKNS4_20PropertyCallbackInfoIS8_EEE3$_3NS_9allocatorISE_EEFiRKNS2_5PtrToINS2_10MethodMetaEEEEE7destroyEv', symObjAddr: 0x118E0, symBinAddr: 0x5B558, symSize: 0x14 }
  - { offsetInCU: 0x6AFF1, offset: 0x350C63, size: 0x8, addend: 0x0, symName: '__ZNSt3__110__function6__funcIZN3tns15MetadataBuilder30SwizzledInstanceMethodCallbackEN2v85LocalINS4_4NameEEENS5_INS4_5ValueEEERKNS4_20PropertyCallbackInfoIS8_EEE3$_3NS_9allocatorISE_EEFiRKNS2_5PtrToINS2_10MethodMetaEEEEE7destroyEv', symObjAddr: 0x118E0, symBinAddr: 0x5B558, symSize: 0x14 }
  - { offsetInCU: 0x6B0CB, offset: 0x350D3D, size: 0x8, addend: 0x0, symName: '__ZNSt3__110__function6__funcIZN3tns15MetadataBuilder30SwizzledInstanceMethodCallbackEN2v85LocalINS4_4NameEEENS5_INS4_5ValueEEERKNS4_20PropertyCallbackInfoIS8_EEE3$_3NS_9allocatorISE_EEFiRKNS2_5PtrToINS2_10MethodMetaEEEEE18destroy_deallocateEv', symObjAddr: 0x118F4, symBinAddr: 0x5B56C, symSize: 0x30 }
  - { offsetInCU: 0x6B40A, offset: 0x35107C, size: 0x8, addend: 0x0, symName: '__ZNSt3__110__function6__funcIZN3tns15MetadataBuilder30SwizzledInstanceMethodCallbackEN2v85LocalINS4_4NameEEENS5_INS4_5ValueEEERKNS4_20PropertyCallbackInfoIS8_EEE3$_3NS_9allocatorISE_EEFiRKNS2_5PtrToINS2_10MethodMetaEEEEEclESL_', symObjAddr: 0x11924, symBinAddr: 0x5B59C, symSize: 0x140 }
  - { offsetInCU: 0x6BAC0, offset: 0x351732, size: 0x8, addend: 0x0, symName: __ZNSt3__120__shared_ptr_emplaceIN2v810PersistentINS1_5ValueENS1_27NonCopyablePersistentTraitsIS3_EEEENS_9allocatorIS6_EEEC2B8ue170006IJRPNS1_7IsolateERNS1_5LocalIS3_EEEEES8_DpOT_, symObjAddr: 0x11AC4, symBinAddr: 0x5B73C, symSize: 0x68 }
  - { offsetInCU: 0x6BCD3, offset: 0x351945, size: 0x8, addend: 0x0, symName: '__ZNSt3__110__function6__funcIZN3tns15MetadataBuilder24SwizzledPropertyCallbackEN2v85LocalINS4_4NameEEERKNS4_18PropertyDescriptorERKNS4_20PropertyCallbackInfoINS4_5ValueEEEE3$_4NS_9allocatorISG_EEFiRKNS2_5PtrToINS2_12PropertyMetaEEEEED1Ev', symObjAddr: 0x11BA0, symBinAddr: 0x5B7A4, symSize: 0x3C }
  - { offsetInCU: 0x6BF27, offset: 0x351B99, size: 0x8, addend: 0x0, symName: '__ZNSt3__110__function6__funcIZN3tns15MetadataBuilder24SwizzledPropertyCallbackEN2v85LocalINS4_4NameEEERKNS4_18PropertyDescriptorERKNS4_20PropertyCallbackInfoINS4_5ValueEEEE3$_4NS_9allocatorISG_EEFiRKNS2_5PtrToINS2_12PropertyMetaEEEEED0Ev', symObjAddr: 0x11BDC, symBinAddr: 0x5B7E0, symSize: 0x3C }
  - { offsetInCU: 0x6C493, offset: 0x352105, size: 0x8, addend: 0x0, symName: '__ZNKSt3__110__function6__funcIZN3tns15MetadataBuilder24SwizzledPropertyCallbackEN2v85LocalINS4_4NameEEERKNS4_18PropertyDescriptorERKNS4_20PropertyCallbackInfoINS4_5ValueEEEE3$_4NS_9allocatorISG_EEFiRKNS2_5PtrToINS2_12PropertyMetaEEEEE7__cloneEv', symObjAddr: 0x11C18, symBinAddr: 0x5B81C, symSize: 0x74 }
  - { offsetInCU: 0x6C920, offset: 0x352592, size: 0x8, addend: 0x0, symName: '__ZNKSt3__110__function6__funcIZN3tns15MetadataBuilder24SwizzledPropertyCallbackEN2v85LocalINS4_4NameEEERKNS4_18PropertyDescriptorERKNS4_20PropertyCallbackInfoINS4_5ValueEEEE3$_4NS_9allocatorISG_EEFiRKNS2_5PtrToINS2_12PropertyMetaEEEEE7__cloneEPNS0_6__baseISO_EE', symObjAddr: 0x11C8C, symBinAddr: 0x5B890, symSize: 0x3C }
  - { offsetInCU: 0x6CB37, offset: 0x3527A9, size: 0x8, addend: 0x0, symName: '__ZNSt3__110__function6__funcIZN3tns15MetadataBuilder24SwizzledPropertyCallbackEN2v85LocalINS4_4NameEEERKNS4_18PropertyDescriptorERKNS4_20PropertyCallbackInfoINS4_5ValueEEEE3$_4NS_9allocatorISG_EEFiRKNS2_5PtrToINS2_12PropertyMetaEEEEE7destroyEv', symObjAddr: 0x11CC8, symBinAddr: 0x5B8CC, symSize: 0x14 }
  - { offsetInCU: 0x6CC0E, offset: 0x352880, size: 0x8, addend: 0x0, symName: '__ZNSt3__110__function6__funcIZN3tns15MetadataBuilder24SwizzledPropertyCallbackEN2v85LocalINS4_4NameEEERKNS4_18PropertyDescriptorERKNS4_20PropertyCallbackInfoINS4_5ValueEEEE3$_4NS_9allocatorISG_EEFiRKNS2_5PtrToINS2_12PropertyMetaEEEEE7destroyEv', symObjAddr: 0x11CC8, symBinAddr: 0x5B8CC, symSize: 0x14 }
  - { offsetInCU: 0x6CCE8, offset: 0x35295A, size: 0x8, addend: 0x0, symName: '__ZNSt3__110__function6__funcIZN3tns15MetadataBuilder24SwizzledPropertyCallbackEN2v85LocalINS4_4NameEEERKNS4_18PropertyDescriptorERKNS4_20PropertyCallbackInfoINS4_5ValueEEEE3$_4NS_9allocatorISG_EEFiRKNS2_5PtrToINS2_12PropertyMetaEEEEE18destroy_deallocateEv', symObjAddr: 0x11CDC, symBinAddr: 0x5B8E0, symSize: 0x30 }
  - { offsetInCU: 0x6D027, offset: 0x352C99, size: 0x8, addend: 0x0, symName: '__ZNSt3__110__function6__funcIZN3tns15MetadataBuilder24SwizzledPropertyCallbackEN2v85LocalINS4_4NameEEERKNS4_18PropertyDescriptorERKNS4_20PropertyCallbackInfoINS4_5ValueEEEE3$_4NS_9allocatorISG_EEFiRKNS2_5PtrToINS2_12PropertyMetaEEEEEclESN_', symObjAddr: 0x11D0C, symBinAddr: 0x5B910, symSize: 0x140 }
  - { offsetInCU: 0x6D8E9, offset: 0x35355B, size: 0x8, addend: 0x0, symName: __ZNSt3__120__shared_ptr_emplaceIN2v810PersistentINS1_8FunctionENS1_27NonCopyablePersistentTraitsIS3_EEEENS_9allocatorIS6_EEEC2B8ue170006IJRPNS1_7IsolateENS1_5LocalIS3_EEEEES8_DpOT_, symObjAddr: 0x11EAC, symBinAddr: 0x5BAB0, symSize: 0x68 }
  - { offsetInCU: 0x6DA50, offset: 0x3536C2, size: 0x8, addend: 0x0, symName: __ZNSt3__120__shared_ptr_emplaceIN2v810PersistentINS1_8FunctionENS1_27NonCopyablePersistentTraitsIS3_EEEENS_9allocatorIS6_EEED1Ev, symObjAddr: 0x11F14, symBinAddr: 0x5BB18, symSize: 0x14 }
  - { offsetInCU: 0x6DA72, offset: 0x3536E4, size: 0x8, addend: 0x0, symName: __ZNSt3__120__shared_ptr_emplaceIN2v810PersistentINS1_8FunctionENS1_27NonCopyablePersistentTraitsIS3_EEEENS_9allocatorIS6_EEED1Ev, symObjAddr: 0x11F14, symBinAddr: 0x5BB18, symSize: 0x14 }
  - { offsetInCU: 0x6DAAA, offset: 0x35371C, size: 0x8, addend: 0x0, symName: __ZNSt3__120__shared_ptr_emplaceIN2v810PersistentINS1_8FunctionENS1_27NonCopyablePersistentTraitsIS3_EEEENS_9allocatorIS6_EEED0Ev, symObjAddr: 0x11F28, symBinAddr: 0x5BB2C, symSize: 0x24 }
  - { offsetInCU: 0x6DB10, offset: 0x353782, size: 0x8, addend: 0x0, symName: __ZNSt3__120__shared_ptr_emplaceIN2v810PersistentINS1_8FunctionENS1_27NonCopyablePersistentTraitsIS3_EEEENS_9allocatorIS6_EEE16__on_zero_sharedEv, symObjAddr: 0x11F4C, symBinAddr: 0x5BB50, symSize: 0x4 }
  - { offsetInCU: 0x6DB35, offset: 0x3537A7, size: 0x8, addend: 0x0, symName: __ZNSt3__120__shared_ptr_emplaceIN2v810PersistentINS1_8FunctionENS1_27NonCopyablePersistentTraitsIS3_EEEENS_9allocatorIS6_EEE21__on_zero_shared_weakEv, symObjAddr: 0x11F50, symBinAddr: 0x5BB54, symSize: 0x4 }
  - { offsetInCU: 0x6DB68, offset: 0x3537DA, size: 0x8, addend: 0x0, symName: __ZNSt3__120__shared_ptr_emplaceIN2v810PersistentINS1_8FunctionENS1_27NonCopyablePersistentTraitsIS3_EEEENS_9allocatorIS6_EEE21__on_zero_shared_weakEv, symObjAddr: 0x11F50, symBinAddr: 0x5BB54, symSize: 0x4 }
  - { offsetInCU: 0x6DB8A, offset: 0x3537FC, size: 0x8, addend: 0x0, symName: __ZNSt3__120__shared_ptr_emplaceIN2v810PersistentINS1_8FunctionENS1_27NonCopyablePersistentTraitsIS3_EEEENS_9allocatorIS6_EEE21__on_zero_shared_weakEv, symObjAddr: 0x11F50, symBinAddr: 0x5BB54, symSize: 0x4 }
  - { offsetInCU: 0x6DBAC, offset: 0x35381E, size: 0x8, addend: 0x0, symName: __ZNSt3__120__shared_ptr_emplaceIN2v810PersistentINS1_8FunctionENS1_27NonCopyablePersistentTraitsIS3_EEEENS_9allocatorIS6_EEE21__on_zero_shared_weakEv, symObjAddr: 0x11F50, symBinAddr: 0x5BB54, symSize: 0x4 }
  - { offsetInCU: 0x6DBD7, offset: 0x353849, size: 0x8, addend: 0x0, symName: __ZNSt3__120__shared_ptr_emplaceIN2v810PersistentINS1_8FunctionENS1_27NonCopyablePersistentTraitsIS3_EEEENS_9allocatorIS6_EEE21__on_zero_shared_weakEv, symObjAddr: 0x11F50, symBinAddr: 0x5BB54, symSize: 0x4 }
  - { offsetInCU: 0x6DBFD, offset: 0x35386F, size: 0x8, addend: 0x0, symName: __ZNSt3__120__shared_ptr_emplaceIN2v810PersistentINS1_8FunctionENS1_27NonCopyablePersistentTraitsIS3_EEEENS_9allocatorIS6_EEE21__on_zero_shared_weakEv, symObjAddr: 0x11F50, symBinAddr: 0x5BB54, symSize: 0x4 }
  - { offsetInCU: 0xE6A5, offset: 0x362006, size: 0x8, addend: 0x0, symName: __ZN3tns9Reference8RegisterEN2v85LocalINS1_7ContextEEENS2_INS1_6ObjectEEE, symObjAddr: 0x0, symBinAddr: 0x5BB58, symSize: 0x118 }
  - { offsetInCU: 0xEAA7, offset: 0x362408, size: 0x8, addend: 0x0, symName: __ZN3tns9Reference27GetInteropReferenceCtorFuncEN2v85LocalINS1_7ContextEEE, symObjAddr: 0x118, symBinAddr: 0x5BC70, symSize: 0x440 }
  - { offsetInCU: 0xFC25, offset: 0x363586, size: 0x8, addend: 0x0, symName: GCC_except_table0, symObjAddr: 0x1ED0, symBinAddr: 0xC2D85C, symSize: 0x0 }
  - { offsetInCU: 0x101D9, offset: 0x363B3A, size: 0x8, addend: 0x0, symName: __ZN3tns9Reference22RegisterToStringMethodEN2v85LocalINS1_7ContextEEENS2_INS1_6ObjectEEE, symObjAddr: 0xBD4, symBinAddr: 0x5C72C, symSize: 0x174 }
  - { offsetInCU: 0x10896, offset: 0x3641F7, size: 0x8, addend: 0x0, symName: __ZN3tns9Reference11FromPointerEN2v85LocalINS1_7ContextEEENS2_INS1_5ValueEEEPv, symObjAddr: 0x558, symBinAddr: 0x5C0B0, symSize: 0x16C }
  - { offsetInCU: 0x11062, offset: 0x3649C3, size: 0x8, addend: 0x0, symName: __ZN3tns9Reference28ReferenceConstructorCallbackERKN2v820FunctionCallbackInfoINS1_5ValueEEE, symObjAddr: 0x6C4, symBinAddr: 0x5C21C, symSize: 0x260 }
  - { offsetInCU: 0x11BDE, offset: 0x36553F, size: 0x8, addend: 0x0, symName: __ZN3tns9Reference26IndexedPropertyGetCallbackEjRKN2v820PropertyCallbackInfoINS1_5ValueEEE, symObjAddr: 0x924, symBinAddr: 0x5C47C, symSize: 0xEC }
  - { offsetInCU: 0x11EA1, offset: 0x365802, size: 0x8, addend: 0x0, symName: __ZN3tns9Reference23GetTypeEncodingDataPairEN2v85LocalINS1_6ObjectEEE, symObjAddr: 0xD48, symBinAddr: 0x5C8A0, symSize: 0x210 }
  - { offsetInCU: 0x12AD7, offset: 0x366438, size: 0x8, addend: 0x0, symName: __ZN3tns9Reference26IndexedPropertySetCallbackEjN2v85LocalINS1_5ValueEEERKNS1_20PropertyCallbackInfoIS3_EE, symObjAddr: 0xA10, symBinAddr: 0x5C568, symSize: 0x6C }
  - { offsetInCU: 0x12C0D, offset: 0x36656E, size: 0x8, addend: 0x0, symName: __ZN3tns9Reference16GetValueCallbackEN2v85LocalINS1_4NameEEERKNS1_20PropertyCallbackInfoINS1_5ValueEEE, symObjAddr: 0xA7C, symBinAddr: 0x5C5D4, symSize: 0x4C }
  - { offsetInCU: 0x12D02, offset: 0x366663, size: 0x8, addend: 0x0, symName: __ZN3tns9Reference16GetReferredValueEN2v85LocalINS1_7ContextEEENS2_INS1_5ValueEEE, symObjAddr: 0xF58, symBinAddr: 0x5CAB0, symSize: 0x2DC }
  - { offsetInCU: 0x135D9, offset: 0x366F3A, size: 0x8, addend: 0x0, symName: __ZN3tns9Reference16SetValueCallbackEN2v85LocalINS1_4NameEEENS2_INS1_5ValueEEERKNS1_20PropertyCallbackInfoIvEE, symObjAddr: 0xAC8, symBinAddr: 0x5C620, symSize: 0x10C }
  - { offsetInCU: 0x13E14, offset: 0x367775, size: 0x8, addend: 0x0, symName: __ZN3tns9Reference17GetWrappedPointerEN2v85LocalINS1_7ContextEEENS2_INS1_5ValueEEEPKNS_12TypeEncodingE, symObjAddr: 0x1234, symBinAddr: 0x5CD8C, symSize: 0x314 }
  - { offsetInCU: 0x15162, offset: 0x368AC3, size: 0x8, addend: 0x0, symName: __ZN3tns20ReferenceTypeWrapperD1Ev, symObjAddr: 0x175C, symBinAddr: 0x5D0A0, symSize: 0x4 }
  - { offsetInCU: 0x1518D, offset: 0x368AEE, size: 0x8, addend: 0x0, symName: __ZN3tns20ReferenceTypeWrapperD0Ev, symObjAddr: 0x1760, symBinAddr: 0x5D0A4, symSize: 0x4 }
  - { offsetInCU: 0x151B8, offset: 0x368B19, size: 0x8, addend: 0x0, symName: __ZN3tns20ReferenceTypeWrapper4TypeEv, symObjAddr: 0x1764, symBinAddr: 0x5D0A8, symSize: 0x8 }
  - { offsetInCU: 0x151DF, offset: 0x368B40, size: 0x8, addend: 0x0, symName: __ZN3tns16ReferenceWrapperD1Ev, symObjAddr: 0x176C, symBinAddr: 0x5D0B0, symSize: 0x4 }
  - { offsetInCU: 0x15202, offset: 0x368B63, size: 0x8, addend: 0x0, symName: __ZN3tns16ReferenceWrapperD1Ev, symObjAddr: 0x176C, symBinAddr: 0x5D0B0, symSize: 0x4 }
  - { offsetInCU: 0x1520C, offset: 0x368B6D, size: 0x8, addend: 0x0, symName: __ZN3tns16ReferenceWrapperD2Ev, symObjAddr: 0x178C, symBinAddr: 0x5D0D0, symSize: 0x68 }
  - { offsetInCU: 0x15298, offset: 0x368BF9, size: 0x8, addend: 0x0, symName: __ZN3tns16ReferenceWrapperD0Ev, symObjAddr: 0x1770, symBinAddr: 0x5D0B4, symSize: 0x14 }
  - { offsetInCU: 0x152EB, offset: 0x368C4C, size: 0x8, addend: 0x0, symName: __ZN3tns16ReferenceWrapper4TypeEv, symObjAddr: 0x1784, symBinAddr: 0x5D0C8, symSize: 0x8 }
  - { offsetInCU: 0x15D10, offset: 0x369671, size: 0x8, addend: 0x0, symName: '__ZZN3tns9Reference22RegisterToStringMethodEN2v85LocalINS1_7ContextEEENS2_INS1_6ObjectEEEEN3$_08__invokeERKNS1_20FunctionCallbackInfoINS1_5ValueEEE', symObjAddr: 0x1C10, symBinAddr: 0x5D138, symSize: 0x180 }
  - { offsetInCU: 0x55, offset: 0x369D50, size: 0x8, addend: 0x0, symName: __ZN3tns10SetTimeout6cache_E, symObjAddr: 0x173038, symBinAddr: 0x15B2040, symSize: 0x0 }
  - { offsetInCU: 0x126, offset: 0x369E21, size: 0x8, addend: 0x0, symName: __ZN3tns10SetTimeout6count_E, symObjAddr: 0x173030, symBinAddr: 0x15B2038, symSize: 0x0 }
  - { offsetInCU: 0xE0CA, offset: 0x377DC5, size: 0x8, addend: 0x0, symName: __ZN3tns10SetTimeout4InitEPN2v87IsolateENS1_5LocalINS1_14ObjectTemplateEEE, symObjAddr: 0x0, symBinAddr: 0x5D2B8, symSize: 0x194 }
  - { offsetInCU: 0xEA76, offset: 0x378771, size: 0x8, addend: 0x0, symName: __ZN3tns10SetTimeout18SetTimeoutCallbackERKN2v820FunctionCallbackInfoINS1_5ValueEEE, symObjAddr: 0x194, symBinAddr: 0x5D44C, symSize: 0x258 }
  - { offsetInCU: 0xF1F8, offset: 0x378EF3, size: 0x8, addend: 0x0, symName: __ZN10robin_hood6detail5TableILb1ELm80EjN3tns10SetTimeout10CacheEntryENS_4hashIjvEENSt3__18equal_toIjEEE7emplaceIJRjRS4_EEENS7_4pairINSA_4IterILb0EEEbEEDpOT_, symObjAddr: 0x704, symBinAddr: 0x5D9BC, symSize: 0xAC }
  - { offsetInCU: 0xF3FC, offset: 0x3790F7, size: 0x8, addend: 0x0, symName: __ZN3tns10SetTimeout20ClearTimeoutCallbackERKN2v820FunctionCallbackInfoINS1_5ValueEEE, symObjAddr: 0x3EC, symBinAddr: 0x5D6A4, symSize: 0x12C }
  - { offsetInCU: 0xF8BA, offset: 0x3795B5, size: 0x8, addend: 0x0, symName: __ZNK10robin_hood6detail5TableILb1ELm80EjN3tns10SetTimeout10CacheEntryENS_4hashIjvEENSt3__18equal_toIjEEE7findIdxIjEEmRKT_, symObjAddr: 0x13B0, symBinAddr: 0x5E398, symSize: 0xE4 }
  - { offsetInCU: 0xF914, offset: 0x37960F, size: 0x8, addend: 0x0, symName: __ZNK10robin_hood6detail5TableILb1ELm80EjN3tns10SetTimeout10CacheEntryENS_4hashIjvEENSt3__18equal_toIjEEE7findIdxIjEEmRKT_, symObjAddr: 0x13B0, symBinAddr: 0x5E398, symSize: 0xE4 }
  - { offsetInCU: 0xF940, offset: 0x37963B, size: 0x8, addend: 0x0, symName: __ZNK10robin_hood6detail5TableILb1ELm80EjN3tns10SetTimeout10CacheEntryENS_4hashIjvEENSt3__18equal_toIjEEE7findIdxIjEEmRKT_, symObjAddr: 0x13B0, symBinAddr: 0x5E398, symSize: 0xE4 }
  - { offsetInCU: 0xFA43, offset: 0x37973E, size: 0x8, addend: 0x0, symName: __ZN3tns10SetTimeout9RemoveKeyEj, symObjAddr: 0x7B0, symBinAddr: 0x5DA68, symSize: 0x84 }
  - { offsetInCU: 0xFB17, offset: 0x379812, size: 0x8, addend: 0x0, symName: ____ZN3tns10SetTimeout18SetTimeoutCallbackERKN2v820FunctionCallbackInfoINS1_5ValueEEE_block_invoke, symObjAddr: 0x518, symBinAddr: 0x5D7D0, symSize: 0x8 }
  - { offsetInCU: 0xFB5E, offset: 0x379859, size: 0x8, addend: 0x0, symName: __ZN3tns10SetTimeout7ElapsedEj, symObjAddr: 0x520, symBinAddr: 0x5D7D8, symSize: 0x1E4 }
  - { offsetInCU: 0x1076C, offset: 0x37A467, size: 0x8, addend: 0x0, symName: __ZN10robin_hood6detail5TableILb1ELm80EjN3tns10SetTimeout10CacheEntryENS_4hashIjvEENSt3__18equal_toIjEEE25insertKeyPrepareEmptySpotIRKjEENS7_4pairImNSA_14InsertionStateEEEOT_, symObjAddr: 0xB98, symBinAddr: 0x5DBCC, symSize: 0x19C }
  - { offsetInCU: 0x108FA, offset: 0x37A5F5, size: 0x8, addend: 0x0, symName: __ZNK10robin_hood6detail5TableILb1ELm80EjN3tns10SetTimeout10CacheEntryENS_4hashIjvEENSt3__18equal_toIjEEE18throwOverflowErrorEv, symObjAddr: 0xD34, symBinAddr: 0x5DD68, symSize: 0x50 }
  - { offsetInCU: 0x1095C, offset: 0x37A657, size: 0x8, addend: 0x0, symName: __ZN10robin_hood6detail5TableILb1ELm80EjN3tns10SetTimeout10CacheEntryENS_4hashIjvEENSt3__18equal_toIjEEE5eraseENSA_4IterILb0EEE, symObjAddr: 0x834, symBinAddr: 0x5DAEC, symSize: 0xA0 }
  - { offsetInCU: 0x10A47, offset: 0x37A742, size: 0x8, addend: 0x0, symName: __ZN10robin_hood6detail5TableILb1ELm80EjN3tns10SetTimeout10CacheEntryENS_4hashIjvEENSt3__18equal_toIjEEE9shiftDownEm, symObjAddr: 0x1494, symBinAddr: 0x5E47C, symSize: 0x68 }
  - { offsetInCU: 0x10ADF, offset: 0x37A7DA, size: 0x8, addend: 0x0, symName: __ZN10robin_hood6detail5TableILb1ELm80EjN3tns10SetTimeout10CacheEntryENS_4hashIjvEENSt3__18equal_toIjEEED1Ev, symObjAddr: 0x8D4, symBinAddr: 0x5DB8C, symSize: 0x40 }
  - { offsetInCU: 0x11141, offset: 0x37AE3C, size: 0x8, addend: 0x0, symName: __ZN10robin_hood6detail5TableILb1ELm80EjN3tns10SetTimeout10CacheEntryENS_4hashIjvEENSt3__18equal_toIjEEE13increase_sizeEv, symObjAddr: 0xD84, symBinAddr: 0x5DDB8, symSize: 0x12C }
  - { offsetInCU: 0x11204, offset: 0x37AEFF, size: 0x8, addend: 0x0, symName: __ZN10robin_hood6detail5TableILb1ELm80EjN3tns10SetTimeout10CacheEntryENS_4hashIjvEENSt3__18equal_toIjEEE7shiftUpEmm, symObjAddr: 0xEB0, symBinAddr: 0x5DEE4, symSize: 0xB4 }
  - { offsetInCU: 0x112C7, offset: 0x37AFC2, size: 0x8, addend: 0x0, symName: __ZN10robin_hood6detail5TableILb1ELm80EjN3tns10SetTimeout10CacheEntryENS_4hashIjvEENSt3__18equal_toIjEEE17try_increase_infoEv, symObjAddr: 0x1040, symBinAddr: 0x5E074, symSize: 0x100 }
  - { offsetInCU: 0x113C4, offset: 0x37B0BF, size: 0x8, addend: 0x0, symName: __ZN10robin_hood6detail5TableILb1ELm80EjN3tns10SetTimeout10CacheEntryENS_4hashIjvEENSt3__18equal_toIjEEE8initDataEm, symObjAddr: 0xF64, symBinAddr: 0x5DF98, symSize: 0xDC }
  - { offsetInCU: 0x114D2, offset: 0x37B1CD, size: 0x8, addend: 0x0, symName: __ZN10robin_hood6detail5TableILb1ELm80EjN3tns10SetTimeout10CacheEntryENS_4hashIjvEENSt3__18equal_toIjEEE17try_increase_infoEv, symObjAddr: 0x1040, symBinAddr: 0x5E074, symSize: 0x100 }
  - { offsetInCU: 0x114DC, offset: 0x37B1D7, size: 0x8, addend: 0x0, symName: __ZN10robin_hood6detail5TableILb1ELm80EjN3tns10SetTimeout10CacheEntryENS_4hashIjvEENSt3__18equal_toIjEEE16rehashPowerOfTwoEmb, symObjAddr: 0x1140, symBinAddr: 0x5E174, symSize: 0xF0 }
  - { offsetInCU: 0x1164E, offset: 0x37B349, size: 0x8, addend: 0x0, symName: __ZN10robin_hood6detail5TableILb1ELm80EjN3tns10SetTimeout10CacheEntryENS_4hashIjvEENSt3__18equal_toIjEEE11insert_moveEONSA_8DataNodeISA_Lb1EEE, symObjAddr: 0x1258, symBinAddr: 0x5E264, symSize: 0x134 }
  - { offsetInCU: 0x11819, offset: 0x37B514, size: 0x8, addend: 0x0, symName: __GLOBAL__sub_I_SetTimeout.cpp, symObjAddr: 0x1628, symBinAddr: 0x5E4E4, symSize: 0x4C }
  - { offsetInCU: 0x11831, offset: 0x37B52C, size: 0x8, addend: 0x0, symName: __GLOBAL__sub_I_SetTimeout.cpp, symObjAddr: 0x1628, symBinAddr: 0x5E4E4, symSize: 0x4C }
  - { offsetInCU: 0x41, offset: 0x37B664, size: 0x8, addend: 0x0, symName: __ZL2rt, symObjAddr: 0xB0948, symBinAddr: 0x159D0B0, symSize: 0x0 }
  - { offsetInCU: 0x33CE, offset: 0x37E9F1, size: 0x8, addend: 0x0, symName: __ZNSt3__115allocate_sharedB8ue170006IN4rnv89V8RuntimeENS_9allocatorIS2_EEJEvEENS_10shared_ptrIT_EERKT0_DpOT1_, symObjAddr: 0x154, symBinAddr: 0x5E684, symSize: 0x48 }
  - { offsetInCU: 0x784E, offset: 0x382E71, size: 0x8, addend: 0x0, symName: __ZNSt3__110shared_ptrIN8facebook3jsi7RuntimeEED1B8ue170006Ev, symObjAddr: 0x0, symBinAddr: 0x5E530, symSize: 0x4 }
  - { offsetInCU: 0x7871, offset: 0x382E94, size: 0x8, addend: 0x0, symName: __ZNSt3__110shared_ptrIN8facebook3jsi7RuntimeEED1B8ue170006Ev, symObjAddr: 0x0, symBinAddr: 0x5E530, symSize: 0x4 }
  - { offsetInCU: 0x787B, offset: 0x382E9E, size: 0x8, addend: 0x0, symName: __ZNSt3__110shared_ptrIN8facebook3jsi7RuntimeEED2B8ue170006Ev, symObjAddr: 0x104, symBinAddr: 0x5E634, symSize: 0x50 }
  - { offsetInCU: 0x7A49, offset: 0x38306C, size: 0x8, addend: 0x0, symName: '+[JSIRuntime runtime]', symObjAddr: 0x4, symBinAddr: 0x5E534, symSize: 0xA4 }
  - { offsetInCU: 0x7C08, offset: 0x38322B, size: 0x8, addend: 0x0, symName: __ZNSt3__110shared_ptrIN8facebook3jsi7RuntimeEEaSB8ue170006IN4rnv89V8RuntimeEvEERS4_ONS0_IT_EE, symObjAddr: 0xA8, symBinAddr: 0x5E5D8, symSize: 0x5C }
  - { offsetInCU: 0x806D, offset: 0x383690, size: 0x8, addend: 0x0, symName: __ZNSt3__120__shared_ptr_emplaceIN4rnv89V8RuntimeENS_9allocatorIS2_EEEC2B8ue170006IJEEES4_DpOT_, symObjAddr: 0x19C, symBinAddr: 0x5E6CC, symSize: 0x4C }
  - { offsetInCU: 0x8145, offset: 0x383768, size: 0x8, addend: 0x0, symName: __ZNSt3__120__shared_ptr_emplaceIN4rnv89V8RuntimeENS_9allocatorIS2_EEED1Ev, symObjAddr: 0x1E8, symBinAddr: 0x5E718, symSize: 0x14 }
  - { offsetInCU: 0x8167, offset: 0x38378A, size: 0x8, addend: 0x0, symName: __ZNSt3__120__shared_ptr_emplaceIN4rnv89V8RuntimeENS_9allocatorIS2_EEED1Ev, symObjAddr: 0x1E8, symBinAddr: 0x5E718, symSize: 0x14 }
  - { offsetInCU: 0x819F, offset: 0x3837C2, size: 0x8, addend: 0x0, symName: __ZNSt3__120__shared_ptr_emplaceIN4rnv89V8RuntimeENS_9allocatorIS2_EEED0Ev, symObjAddr: 0x1FC, symBinAddr: 0x5E72C, symSize: 0x24 }
  - { offsetInCU: 0x8205, offset: 0x383828, size: 0x8, addend: 0x0, symName: __ZNSt3__120__shared_ptr_emplaceIN4rnv89V8RuntimeENS_9allocatorIS2_EEE16__on_zero_sharedEv, symObjAddr: 0x220, symBinAddr: 0x5E750, symSize: 0xC }
  - { offsetInCU: 0x8238, offset: 0x38385B, size: 0x8, addend: 0x0, symName: __ZNSt3__120__shared_ptr_emplaceIN4rnv89V8RuntimeENS_9allocatorIS2_EEE21__on_zero_shared_weakEv, symObjAddr: 0x22C, symBinAddr: 0x5E75C, symSize: 0x4 }
  - { offsetInCU: 0x826B, offset: 0x38388E, size: 0x8, addend: 0x0, symName: __ZNSt3__120__shared_ptr_emplaceIN4rnv89V8RuntimeENS_9allocatorIS2_EEE21__on_zero_shared_weakEv, symObjAddr: 0x22C, symBinAddr: 0x5E75C, symSize: 0x4 }
  - { offsetInCU: 0x828D, offset: 0x3838B0, size: 0x8, addend: 0x0, symName: __ZNSt3__120__shared_ptr_emplaceIN4rnv89V8RuntimeENS_9allocatorIS2_EEE21__on_zero_shared_weakEv, symObjAddr: 0x22C, symBinAddr: 0x5E75C, symSize: 0x4 }
  - { offsetInCU: 0x82AF, offset: 0x3838D2, size: 0x8, addend: 0x0, symName: __ZNSt3__120__shared_ptr_emplaceIN4rnv89V8RuntimeENS_9allocatorIS2_EEE21__on_zero_shared_weakEv, symObjAddr: 0x22C, symBinAddr: 0x5E75C, symSize: 0x4 }
  - { offsetInCU: 0x82DA, offset: 0x3838FD, size: 0x8, addend: 0x0, symName: __ZNSt3__120__shared_ptr_emplaceIN4rnv89V8RuntimeENS_9allocatorIS2_EEE21__on_zero_shared_weakEv, symObjAddr: 0x22C, symBinAddr: 0x5E75C, symSize: 0x4 }
  - { offsetInCU: 0x8300, offset: 0x383923, size: 0x8, addend: 0x0, symName: __ZNSt3__120__shared_ptr_emplaceIN4rnv89V8RuntimeENS_9allocatorIS2_EEE21__on_zero_shared_weakEv, symObjAddr: 0x22C, symBinAddr: 0x5E75C, symSize: 0x4 }
  - { offsetInCU: 0x8332, offset: 0x383955, size: 0x8, addend: 0x0, symName: __GLOBAL__sub_I_JSIRuntime.m, symObjAddr: 0x24C, symBinAddr: 0x5E760, symSize: 0x1C }
  - { offsetInCU: 0x834A, offset: 0x38396D, size: 0x8, addend: 0x0, symName: __GLOBAL__sub_I_JSIRuntime.m, symObjAddr: 0x24C, symBinAddr: 0x5E760, symSize: 0x1C }
  - { offsetInCU: 0x27, offset: 0x3839BA, size: 0x8, addend: 0x0, symName: __ZN12v8_inspector15InspectorServer4InitENSt3__18functionIFvNS2_IFvNS1_12basic_stringIcNS1_11char_traitsIcEENS1_9allocatorIcEEEEEEEEEESA_, symObjAddr: 0x0, symBinAddr: 0x5E77C, symSize: 0x304 }
  - { offsetInCU: 0x49B0, offset: 0x388343, size: 0x8, addend: 0x0, symName: ____ZN12v8_inspector15InspectorServer4InitENSt3__18functionIFvNS2_IFvNS1_12basic_stringIcNS1_11char_traitsIcEENS1_9allocatorIcEEEEEEEEEESA__block_invoke, symObjAddr: 0x304, symBinAddr: 0x5EA80, symSize: 0x2F8 }
  - { offsetInCU: 0x7381, offset: 0x38AD14, size: 0x8, addend: 0x0, symName: __ZN12v8_inspector15InspectorServer4InitENSt3__18functionIFvNS2_IFvNS1_12basic_stringIcNS1_11char_traitsIcEENS1_9allocatorIcEEEEEEEEEESA_, symObjAddr: 0x0, symBinAddr: 0x5E77C, symSize: 0x304 }
  - { offsetInCU: 0x780A, offset: 0x38B19D, size: 0x8, addend: 0x0, symName: __ZNSt3__110__function12__value_funcIFvNS_8functionIFvNS_12basic_stringIcNS_11char_traitsIcEENS_9allocatorIcEEEEEEEEEC2B8ue170006ERKSC_, symObjAddr: 0x118C, symBinAddr: 0x5F6B4, symSize: 0x64 }
  - { offsetInCU: 0x78E1, offset: 0x38B274, size: 0x8, addend: 0x0, symName: __ZN12v8_inspector15InspectorServer4InitENSt3__18functionIFvNS2_IFvNS1_12basic_stringIcNS1_11char_traitsIcEENS1_9allocatorIcEEEEEEEEEESA_.cold.1, symObjAddr: 0x11F0, symBinAddr: 0xB6AE50, symSize: 0x28 }
  - { offsetInCU: 0x78F9, offset: 0x38B28C, size: 0x8, addend: 0x0, symName: __ZN12v8_inspector15InspectorServer4InitENSt3__18functionIFvNS2_IFvNS1_12basic_stringIcNS1_11char_traitsIcEENS1_9allocatorIcEEEEEEEEEESA_.cold.2, symObjAddr: 0x1218, symBinAddr: 0xB6AE78, symSize: 0x40 }
  - { offsetInCU: 0x7EB2, offset: 0x38B845, size: 0x8, addend: 0x0, symName: ____ZN12v8_inspector15InspectorServer4InitENSt3__18functionIFvNS2_IFvNS1_12basic_stringIcNS1_11char_traitsIcEENS1_9allocatorIcEEEEEEEEEESA__block_invoke_2, symObjAddr: 0x5FC, symBinAddr: 0x5ED78, symSize: 0x44 }
  - { offsetInCU: 0x7F15, offset: 0x38B8A8, size: 0x8, addend: 0x0, symName: ___Block_byref_object_copy_, symObjAddr: 0x640, symBinAddr: 0x5EDBC, symSize: 0x28 }
  - { offsetInCU: 0x7F3E, offset: 0x38B8D1, size: 0x8, addend: 0x0, symName: ___Block_byref_object_dispose_, symObjAddr: 0x668, symBinAddr: 0x5EDE4, symSize: 0x8 }
  - { offsetInCU: 0x7F5D, offset: 0x38B8F0, size: 0x8, addend: 0x0, symName: ____ZN12v8_inspector15InspectorServer4InitENSt3__18functionIFvNS2_IFvNS1_12basic_stringIcNS1_11char_traitsIcEENS1_9allocatorIcEEEEEEEEEESA__block_invoke.5, symObjAddr: 0x670, symBinAddr: 0x5EDEC, symSize: 0x194 }
  - { offsetInCU: 0x82A5, offset: 0x38BC38, size: 0x8, addend: 0x0, symName: ____ZN12v8_inspector15InspectorServer4InitENSt3__18functionIFvNS2_IFvNS1_12basic_stringIcNS1_11char_traitsIcEENS1_9allocatorIcEEEEEEEEEESA__block_invoke_2.6, symObjAddr: 0x804, symBinAddr: 0x5EF80, symSize: 0x148 }
  - { offsetInCU: 0x88B3, offset: 0x38C246, size: 0x8, addend: 0x0, symName: ___copy_helper_block_ea8_32s40s48r56c84_ZTSNSt3__18functionIFvNS_12basic_stringIcNS_11char_traitsIcEENS_9allocatorIcEEEEEEE, symObjAddr: 0x94C, symBinAddr: 0x5F0C8, symSize: 0x74 }
  - { offsetInCU: 0x8954, offset: 0x38C2E7, size: 0x8, addend: 0x0, symName: ___destroy_helper_block_ea8_32s40s48r56c84_ZTSNSt3__18functionIFvNS_12basic_stringIcNS_11char_traitsIcEENS_9allocatorIcEEEEEEE, symObjAddr: 0x9C0, symBinAddr: 0x5F13C, symSize: 0x64 }
  - { offsetInCU: 0x89FA, offset: 0x38C38D, size: 0x8, addend: 0x0, symName: ___copy_helper_block_ea8_32s40s48c94_ZTSNSt3__18functionIFvNS0_IFvNS_12basic_stringIcNS_11char_traitsIcEENS_9allocatorIcEEEEEEEEEE80c84_ZTSNSt3__18functionIFvNS_12basic_stringIcNS_11char_traitsIcEENS_9allocatorIcEEEEEEE, symObjAddr: 0xA24, symBinAddr: 0x5F1A0, symSize: 0xA8 }
  - { offsetInCU: 0x8B9A, offset: 0x38C52D, size: 0x8, addend: 0x0, symName: ___destroy_helper_block_ea8_32s40s48c94_ZTSNSt3__18functionIFvNS0_IFvNS_12basic_stringIcNS_11char_traitsIcEENS_9allocatorIcEEEEEEEEEE80c84_ZTSNSt3__18functionIFvNS_12basic_stringIcNS_11char_traitsIcEENS_9allocatorIcEEEEEEE, symObjAddr: 0xACC, symBinAddr: 0x5F248, symSize: 0x88 }
  - { offsetInCU: 0x8D1F, offset: 0x38C6B2, size: 0x8, addend: 0x0, symName: __ZN12v8_inspector15InspectorServer4SendEPU25objcproto14OS_dispatch_io8NSObjectPU28objcproto17OS_dispatch_queueS1_NSt3__112basic_stringIcNS6_11char_traitsIcEENS6_9allocatorIcEEEE, symObjAddr: 0xB54, symBinAddr: 0x5F2D0, symSize: 0x180 }
  - { offsetInCU: 0x8E8C, offset: 0x38C81F, size: 0x8, addend: 0x0, symName: ____ZN12v8_inspector15InspectorServer4SendEPU25objcproto14OS_dispatch_io8NSObjectPU28objcproto17OS_dispatch_queueS1_NSt3__112basic_stringIcNS6_11char_traitsIcEENS6_9allocatorIcEEEE_block_invoke, symObjAddr: 0xCD4, symBinAddr: 0x5F450, symSize: 0x8 }
  - { offsetInCU: 0x8EC6, offset: 0x38C859, size: 0x8, addend: 0x0, symName: ____ZN12v8_inspector15InspectorServer4SendEPU25objcproto14OS_dispatch_io8NSObjectPU28objcproto17OS_dispatch_queueS1_NSt3__112basic_stringIcNS6_11char_traitsIcEENS6_9allocatorIcEEEE_block_invoke_2, symObjAddr: 0xCDC, symBinAddr: 0x5F458, symSize: 0x34 }
  - { offsetInCU: 0x9044, offset: 0x38C9D7, size: 0x8, addend: 0x0, symName: '__ZNSt3__110__function6__funcIZZN12v8_inspector15InspectorServer4InitENS_8functionIFvNS4_IFvNS_12basic_stringIcNS_11char_traitsIcEENS_9allocatorIcEEEEEEEEEESC_EUb_E3$_0NS8_ISF_EESB_ED1Ev', symObjAddr: 0xD5C, symBinAddr: 0x5F48C, symSize: 0x30 }
  - { offsetInCU: 0x9173, offset: 0x38CB06, size: 0x8, addend: 0x0, symName: '__ZNSt3__110__function6__funcIZZN12v8_inspector15InspectorServer4InitENS_8functionIFvNS4_IFvNS_12basic_stringIcNS_11char_traitsIcEENS_9allocatorIcEEEEEEEEEESC_EUb_E3$_0NS8_ISF_EESB_ED0Ev', symObjAddr: 0xD8C, symBinAddr: 0x5F4BC, symSize: 0x30 }
  - { offsetInCU: 0x94CA, offset: 0x38CE5D, size: 0x8, addend: 0x0, symName: '__ZNKSt3__110__function6__funcIZZN12v8_inspector15InspectorServer4InitENS_8functionIFvNS4_IFvNS_12basic_stringIcNS_11char_traitsIcEENS_9allocatorIcEEEEEEEEEESC_EUb_E3$_0NS8_ISF_EESB_E7__cloneEv', symObjAddr: 0xDBC, symBinAddr: 0x5F4EC, symSize: 0x50 }
  - { offsetInCU: 0x9838, offset: 0x38D1CB, size: 0x8, addend: 0x0, symName: '__ZNKSt3__110__function6__funcIZZN12v8_inspector15InspectorServer4InitENS_8functionIFvNS4_IFvNS_12basic_stringIcNS_11char_traitsIcEENS_9allocatorIcEEEEEEEEEESC_EUb_E3$_0NS8_ISF_EESB_E7__cloneEPNS0_6__baseISB_EE', symObjAddr: 0xE0C, symBinAddr: 0x5F53C, symSize: 0x44 }
  - { offsetInCU: 0x9A1B, offset: 0x38D3AE, size: 0x8, addend: 0x0, symName: '__ZNSt3__110__function6__funcIZZN12v8_inspector15InspectorServer4InitENS_8functionIFvNS4_IFvNS_12basic_stringIcNS_11char_traitsIcEENS_9allocatorIcEEEEEEEEEESC_EUb_E3$_0NS8_ISF_EESB_E7destroyEv', symObjAddr: 0xE50, symBinAddr: 0x5F580, symSize: 0x28 }
  - { offsetInCU: 0x9B25, offset: 0x38D4B8, size: 0x8, addend: 0x0, symName: '__ZNSt3__110__function6__funcIZZN12v8_inspector15InspectorServer4InitENS_8functionIFvNS4_IFvNS_12basic_stringIcNS_11char_traitsIcEENS_9allocatorIcEEEEEEEEEESC_EUb_E3$_0NS8_ISF_EESB_E18destroy_deallocateEv', symObjAddr: 0xE78, symBinAddr: 0x5F5A8, symSize: 0x30 }
  - { offsetInCU: 0x9DDC, offset: 0x38D76F, size: 0x8, addend: 0x0, symName: '__ZNSt3__110__function6__funcIZZN12v8_inspector15InspectorServer4InitENS_8functionIFvNS4_IFvNS_12basic_stringIcNS_11char_traitsIcEENS_9allocatorIcEEEEEEEEEESC_EUb_E3$_0NS8_ISF_EESB_EclEOSA_', symObjAddr: 0xEA8, symBinAddr: 0x5F5D8, symSize: 0xDC }
  - { offsetInCU: 0xA458, offset: 0x39895F, size: 0x8, addend: 0x0, symName: __ZN4rnv815HostObjectProxyC2ERNS_9V8RuntimeEPN2v87IsolateENSt3__110shared_ptrIN8facebook3jsi10HostObjectEEE, symObjAddr: 0x0, symBinAddr: 0x5F718, symSize: 0x24 }
  - { offsetInCU: 0xA5D1, offset: 0x398AD8, size: 0x8, addend: 0x0, symName: __ZN4rnv815HostObjectProxyC1ERNS_9V8RuntimeEPN2v87IsolateENSt3__110shared_ptrIN8facebook3jsi10HostObjectEEE, symObjAddr: 0x24, symBinAddr: 0x5F73C, symSize: 0x24 }
  - { offsetInCU: 0xA627, offset: 0x398B2E, size: 0x8, addend: 0x0, symName: __ZN4rnv815HostObjectProxyC1ERNS_9V8RuntimeEPN2v87IsolateENSt3__110shared_ptrIN8facebook3jsi10HostObjectEEE, symObjAddr: 0x24, symBinAddr: 0x5F73C, symSize: 0x24 }
  - { offsetInCU: 0xA851, offset: 0x398D58, size: 0x8, addend: 0x0, symName: __ZN4rnv815HostObjectProxy13BindFinalizerERKN2v85LocalINS1_6ObjectEEE, symObjAddr: 0x48, symBinAddr: 0x5F760, symSize: 0x9C }
  - { offsetInCU: 0xAA61, offset: 0x398F68, size: 0x8, addend: 0x0, symName: __ZN4rnv815HostObjectProxy9FinalizerERKN2v816WeakCallbackInfoIS0_EE, symObjAddr: 0xE4, symBinAddr: 0x5F7FC, symSize: 0x54 }
  - { offsetInCU: 0xABDD, offset: 0x3990E4, size: 0x8, addend: 0x0, symName: __ZNSt3__110shared_ptrIN8facebook3jsi10HostObjectEE5resetB8ue170006Ev, symObjAddr: 0x1318, symBinAddr: 0x60A24, symSize: 0x54 }
  - { offsetInCU: 0xACCA, offset: 0x3991D1, size: 0x8, addend: 0x0, symName: __ZNSt3__110shared_ptrIN8facebook3jsi10HostObjectEED2B8ue170006Ev, symObjAddr: 0x1C48, symBinAddr: 0x61354, symSize: 0x50 }
  - { offsetInCU: 0xAD4D, offset: 0x399254, size: 0x8, addend: 0x0, symName: __ZN4rnv815HostObjectProxy13GetHostObjectEv, symObjAddr: 0x138, symBinAddr: 0x5F850, symSize: 0x1C }
  - { offsetInCU: 0xAD77, offset: 0x39927E, size: 0x8, addend: 0x0, symName: __ZN4rnv815HostObjectProxy13GetHostObjectEv, symObjAddr: 0x138, symBinAddr: 0x5F850, symSize: 0x1C }
  - { offsetInCU: 0xAD9D, offset: 0x3992A4, size: 0x8, addend: 0x0, symName: __ZN4rnv815HostObjectProxy13GetHostObjectEv, symObjAddr: 0x138, symBinAddr: 0x5F850, symSize: 0x1C }
  - { offsetInCU: 0xB40A, offset: 0x399911, size: 0x8, addend: 0x0, symName: __ZN4rnv815HostObjectProxy6GetterEN2v85LocalINS1_4NameEEERKNS1_20PropertyCallbackInfoINS1_5ValueEEE, symObjAddr: 0x154, symBinAddr: 0x5F86C, symSize: 0x790 }
  - { offsetInCU: 0xDE3B, offset: 0x39C342, size: 0x8, addend: 0x0, symName: __ZNK8facebook3jsi8Function4callIJNSt3__112basic_stringIcNS3_11char_traitsIcEENS3_9allocatorIcEEEEEEENS0_5ValueERNS0_7RuntimeEDpOT_, symObjAddr: 0x8E4, symBinAddr: 0x5FFFC, symSize: 0xEC }
  - { offsetInCU: 0xE13A, offset: 0x39C641, size: 0x8, addend: 0x0, symName: __ZN4rnv815HostObjectProxy6SetterEN2v85LocalINS1_4NameEEENS2_INS1_5ValueEEERKNS1_20PropertyCallbackInfoIS5_EE, symObjAddr: 0x9DC, symBinAddr: 0x600E8, symSize: 0x758 }
  - { offsetInCU: 0x10A1B, offset: 0x39EF22, size: 0x8, addend: 0x0, symName: __ZN4rnv815HostObjectProxy10EnumeratorERKN2v820PropertyCallbackInfoINS1_5ArrayEEE, symObjAddr: 0x1134, symBinAddr: 0x60840, symSize: 0x1E4 }
  - { offsetInCU: 0x10E89, offset: 0x39F390, size: 0x8, addend: 0x0, symName: __ZNSt3__16vectorIN8facebook3jsi10PropNameIDENS_9allocatorIS3_EEE16__destroy_vectorclB8ue170006Ev, symObjAddr: 0x1E24, symBinAddr: 0x61408, symSize: 0x40 }
  - { offsetInCU: 0x11080, offset: 0x39F587, size: 0x8, addend: 0x0, symName: __ZN4rnv817HostFunctionProxyC2ERNS_9V8RuntimeEPN2v87IsolateEONSt3__18functionIFN8facebook3jsi5ValueERNS9_7RuntimeERKSA_PSD_mEEE, symObjAddr: 0x136C, symBinAddr: 0x60A78, symSize: 0x30 }
  - { offsetInCU: 0x11197, offset: 0x39F69E, size: 0x8, addend: 0x0, symName: __ZNSt3__110__function12__value_funcIFN8facebook3jsi5ValueERNS3_7RuntimeERKS4_PS7_mEEC2B8ue170006EOSB_, symObjAddr: 0x1DC0, symBinAddr: 0x613A4, symSize: 0x64 }
  - { offsetInCU: 0x1121B, offset: 0x39F722, size: 0x8, addend: 0x0, symName: __ZN4rnv817HostFunctionProxyC1ERNS_9V8RuntimeEPN2v87IsolateEONSt3__18functionIFN8facebook3jsi5ValueERNS9_7RuntimeERKSA_PSD_mEEE, symObjAddr: 0x139C, symBinAddr: 0x60AA8, symSize: 0x30 }
  - { offsetInCU: 0x113C8, offset: 0x39F8CF, size: 0x8, addend: 0x0, symName: __ZN4rnv817HostFunctionProxy13BindFinalizerERKN2v85LocalINS1_6ObjectEEE, symObjAddr: 0x13CC, symBinAddr: 0x60AD8, symSize: 0x9C }
  - { offsetInCU: 0x115CB, offset: 0x39FAD2, size: 0x8, addend: 0x0, symName: __ZN4rnv817HostFunctionProxy9FinalizerERKN2v816WeakCallbackInfoIS0_EE, symObjAddr: 0x1468, symBinAddr: 0x60B74, symSize: 0x60 }
  - { offsetInCU: 0x11725, offset: 0x39FC2C, size: 0x8, addend: 0x0, symName: __ZN4rnv817HostFunctionProxy15GetHostFunctionEv, symObjAddr: 0x14C8, symBinAddr: 0x60BD4, symSize: 0x8 }
  - { offsetInCU: 0x11A23, offset: 0x39FF2A, size: 0x8, addend: 0x0, symName: __ZN4rnv817HostFunctionProxy16FunctionCallbackERKN2v820FunctionCallbackInfoINS1_5ValueEEE, symObjAddr: 0x14D0, symBinAddr: 0x60BDC, symSize: 0x650 }
  - { offsetInCU: 0x12979, offset: 0x3A0E80, size: 0x8, addend: 0x0, symName: __ZNKSt3__18functionIFN8facebook3jsi5ValueERNS2_7RuntimeERKS3_PS6_mEEclES5_S7_S8_m, symObjAddr: 0x1B20, symBinAddr: 0x6122C, symSize: 0x3C }
  - { offsetInCU: 0x12A1A, offset: 0x3A0F21, size: 0x8, addend: 0x0, symName: __ZNK8facebook3jsi8Function4callIJRNSt3__112basic_stringIcNS3_11char_traitsIcEENS3_9allocatorIcEEEEEEENS0_5ValueERNS0_7RuntimeEDpOT_, symObjAddr: 0x1B5C, symBinAddr: 0x61268, symSize: 0xEC }
  - { offsetInCU: 0x12A2A, offset: 0x3A0F31, size: 0x8, addend: 0x0, symName: __ZNKSt3__114default_deleteIA_N8facebook3jsi5ValueEEclB8ue170006IS3_EENS5_20_EnableIfConvertibleIT_E4typeEPS8_, symObjAddr: 0x1EBC, symBinAddr: 0x614A0, symSize: 0x44 }
  - { offsetInCU: 0x12A6F, offset: 0x3A0F76, size: 0x8, addend: 0x0, symName: __ZNK8facebook3jsi8Function4callIJRNSt3__112basic_stringIcNS3_11char_traitsIcEENS3_9allocatorIcEEEEEEENS0_5ValueERNS0_7RuntimeEDpOT_, symObjAddr: 0x1B5C, symBinAddr: 0x61268, symSize: 0xEC }
  - { offsetInCU: 0x12F95, offset: 0x3A149C, size: 0x8, addend: 0x0, symName: __ZNSt3__16vectorIN8facebook3jsi10PropNameIDENS_9allocatorIS3_EEE22__base_destruct_at_endB8ue170006EPS3_, symObjAddr: 0x1E64, symBinAddr: 0x61448, symSize: 0x58 }
  - { offsetInCU: 0x21AC, offset: 0x3A37E4, size: 0x8, addend: 0x0, symName: __ZN8facebook3jsi12_GLOBAL__N_112kindToStringERKNS0_5ValueEPNS0_7RuntimeE, symObjAddr: 0xA74, symBinAddr: 0x61F58, symSize: 0x168 }
  - { offsetInCU: 0x243B, offset: 0x3A3A73, size: 0x8, addend: 0x0, symName: __ZN8facebook3jsi12_GLOBAL__N_118callGlobalFunctionERNS0_7RuntimeEPKcRKNS0_5ValueE, symObjAddr: 0x3BDC, symBinAddr: 0x64FE8, symSize: 0x624 }
  - { offsetInCU: 0xA5F1, offset: 0x3ABC29, size: 0x8, addend: 0x0, symName: __ZNSt3__115allocate_sharedB8ue170006IN8facebook3jsi5ValueENS_9allocatorIS3_EEJS3_EvEENS_10shared_ptrIT_EERKT0_DpOT1_, symObjAddr: 0x4D60, symBinAddr: 0x65FBC, symSize: 0x58 }
  - { offsetInCU: 0xB4E6, offset: 0x3ACB1E, size: 0x8, addend: 0x0, symName: __ZN8facebook3jsi7Runtime15instrumentationEv, symObjAddr: 0x1A8, symBinAddr: 0x6168C, symSize: 0x48 }
  - { offsetInCU: 0xB50C, offset: 0x3ACB44, size: 0x8, addend: 0x0, symName: __ZZN8facebook3jsi7Runtime15instrumentationEvE14sharedInstance, symObjAddr: 0x6490, symBinAddr: 0xD26CE0, symSize: 0x0 }
  - { offsetInCU: 0xD6A7, offset: 0x3AECDF, size: 0x8, addend: 0x0, symName: __ZN8facebook3jsi6BufferD2Ev, symObjAddr: 0x0, symBinAddr: 0x614E4, symSize: 0x4 }
  - { offsetInCU: 0xD6D2, offset: 0x3AED0A, size: 0x8, addend: 0x0, symName: __ZN8facebook3jsi6BufferD1Ev, symObjAddr: 0x4, symBinAddr: 0x614E8, symSize: 0x4 }
  - { offsetInCU: 0xD6FB, offset: 0x3AED33, size: 0x8, addend: 0x0, symName: __ZN8facebook3jsi6BufferD0Ev, symObjAddr: 0x8, symBinAddr: 0x614EC, symSize: 0x4 }
  - { offsetInCU: 0xD724, offset: 0x3AED5C, size: 0x8, addend: 0x0, symName: __ZN8facebook3jsi13MutableBufferD2Ev, symObjAddr: 0xC, symBinAddr: 0x614F0, symSize: 0x4 }
  - { offsetInCU: 0xD74F, offset: 0x3AED87, size: 0x8, addend: 0x0, symName: __ZN8facebook3jsi13MutableBufferD1Ev, symObjAddr: 0x10, symBinAddr: 0x614F4, symSize: 0x4 }
  - { offsetInCU: 0xD778, offset: 0x3AEDB0, size: 0x8, addend: 0x0, symName: __ZN8facebook3jsi13MutableBufferD0Ev, symObjAddr: 0x14, symBinAddr: 0x614F8, symSize: 0x4 }
  - { offsetInCU: 0xD7A7, offset: 0x3AEDDF, size: 0x8, addend: 0x0, symName: __ZN8facebook3jsi18PreparedJavaScriptD2Ev, symObjAddr: 0x18, symBinAddr: 0x614FC, symSize: 0x4 }
  - { offsetInCU: 0xD7D2, offset: 0x3AEE0A, size: 0x8, addend: 0x0, symName: __ZN8facebook3jsi18PreparedJavaScriptD1Ev, symObjAddr: 0x1C, symBinAddr: 0x61500, symSize: 0x4 }
  - { offsetInCU: 0xD7FD, offset: 0x3AEE35, size: 0x8, addend: 0x0, symName: __ZN8facebook3jsi18PreparedJavaScriptD0Ev, symObjAddr: 0x20, symBinAddr: 0x61504, symSize: 0x4 }
  - { offsetInCU: 0xD88E, offset: 0x3AEEC6, size: 0x8, addend: 0x0, symName: __ZN8facebook3jsi10HostObject3getERNS0_7RuntimeERKNS0_10PropNameIDE, symObjAddr: 0x24, symBinAddr: 0x61508, symSize: 0x8 }
  - { offsetInCU: 0xD8C5, offset: 0x3AEEFD, size: 0x8, addend: 0x0, symName: __ZN8facebook3jsi10HostObject3getERNS0_7RuntimeERKNS0_10PropNameIDE, symObjAddr: 0x24, symBinAddr: 0x61508, symSize: 0x8 }
  - { offsetInCU: 0xD8E0, offset: 0x3AEF18, size: 0x8, addend: 0x0, symName: __ZN8facebook3jsi10HostObject3getERNS0_7RuntimeERKNS0_10PropNameIDE, symObjAddr: 0x24, symBinAddr: 0x61508, symSize: 0x8 }
  - { offsetInCU: 0xD902, offset: 0x3AEF3A, size: 0x8, addend: 0x0, symName: __ZN8facebook3jsi10HostObject3getERNS0_7RuntimeERKNS0_10PropNameIDE, symObjAddr: 0x24, symBinAddr: 0x61508, symSize: 0x8 }
  - { offsetInCU: 0xDB8E, offset: 0x3AF1C6, size: 0x8, addend: 0x0, symName: __ZN8facebook3jsi10HostObject3setERNS0_7RuntimeERKNS0_10PropNameIDERKNS0_5ValueE, symObjAddr: 0x2C, symBinAddr: 0x61510, symSize: 0x15C }
  - { offsetInCU: 0xE652, offset: 0x3AFC8A, size: 0x8, addend: 0x0, symName: __ZNSt3__110shared_ptrIN8facebook3jsi5ValueEED2B8ue170006Ev, symObjAddr: 0x4C64, symBinAddr: 0x65EC0, symSize: 0x50 }
  - { offsetInCU: 0xE65D, offset: 0x3AFC95, size: 0x8, addend: 0x0, symName: __ZN8facebook3jsi7JSErrorC2ERNS0_7RuntimeENSt3__112basic_stringIcNS4_11char_traitsIcEENS4_9allocatorIcEEEE, symObjAddr: 0x3790, symBinAddr: 0x64B9C, symSize: 0x44C }
  - { offsetInCU: 0xFB6C, offset: 0x3B11A4, size: 0x8, addend: 0x0, symName: __ZN8facebook3jsi7JSErrorC1ERNS0_7RuntimeENSt3__112basic_stringIcNS4_11char_traitsIcEENS4_9allocatorIcEEEE, symObjAddr: 0x188, symBinAddr: 0x6166C, symSize: 0x4 }
  - { offsetInCU: 0xFB9D, offset: 0x3B11D5, size: 0x8, addend: 0x0, symName: __ZN8facebook3jsi7JSErrorC1ERNS0_7RuntimeENSt3__112basic_stringIcNS4_11char_traitsIcEENS4_9allocatorIcEEEE, symObjAddr: 0x188, symBinAddr: 0x6166C, symSize: 0x4 }
  - { offsetInCU: 0xFBA8, offset: 0x3B11E0, size: 0x8, addend: 0x0, symName: __ZN8facebook3jsi7JSErrorD1Ev, symObjAddr: 0x18C, symBinAddr: 0x61670, symSize: 0x4 }
  - { offsetInCU: 0xFBCA, offset: 0x3B1202, size: 0x8, addend: 0x0, symName: __ZN8facebook3jsi7JSErrorD1Ev, symObjAddr: 0x18C, symBinAddr: 0x61670, symSize: 0x4 }
  - { offsetInCU: 0xFBD5, offset: 0x3B120D, size: 0x8, addend: 0x0, symName: __ZN8facebook3jsi7JSErrorD2Ev, symObjAddr: 0x487C, symBinAddr: 0x65C7C, symSize: 0x54 }
  - { offsetInCU: 0xFE88, offset: 0x3B14C0, size: 0x8, addend: 0x0, symName: __ZN8facebook3jsi10HostObjectD2Ev, symObjAddr: 0x190, symBinAddr: 0x61674, symSize: 0x4 }
  - { offsetInCU: 0xFEB3, offset: 0x3B14EB, size: 0x8, addend: 0x0, symName: __ZN8facebook3jsi10HostObjectD1Ev, symObjAddr: 0x194, symBinAddr: 0x61678, symSize: 0x4 }
  - { offsetInCU: 0xFEDE, offset: 0x3B1516, size: 0x8, addend: 0x0, symName: __ZN8facebook3jsi10HostObjectD0Ev, symObjAddr: 0x198, symBinAddr: 0x6167C, symSize: 0x4 }
  - { offsetInCU: 0xFF09, offset: 0x3B1541, size: 0x8, addend: 0x0, symName: __ZN8facebook3jsi7RuntimeD2Ev, symObjAddr: 0x19C, symBinAddr: 0x61680, symSize: 0x4 }
  - { offsetInCU: 0xFF34, offset: 0x3B156C, size: 0x8, addend: 0x0, symName: __ZN8facebook3jsi7RuntimeD1Ev, symObjAddr: 0x1A0, symBinAddr: 0x61684, symSize: 0x4 }
  - { offsetInCU: 0xFF5D, offset: 0x3B1595, size: 0x8, addend: 0x0, symName: __ZN8facebook3jsi7RuntimeD0Ev, symObjAddr: 0x1A4, symBinAddr: 0x61688, symSize: 0x4 }
  - { offsetInCU: 0xFF86, offset: 0x3B15BE, size: 0x8, addend: 0x0, symName: __ZZN8facebook3jsi7Runtime15instrumentationEvEN17NoInstrumentationD1Ev, symObjAddr: 0x1F0, symBinAddr: 0x616D4, symSize: 0x4 }
  - { offsetInCU: 0x100BD, offset: 0x3B16F5, size: 0x8, addend: 0x0, symName: __ZN8facebook3jsi7Runtime23createValueFromJsonUtf8EPKhm, symObjAddr: 0x1F4, symBinAddr: 0x616D8, symSize: 0x18C }
  - { offsetInCU: 0x10491, offset: 0x3B1AC9, size: 0x8, addend: 0x0, symName: __ZNK8facebook3jsi6Object19getPropertyAsObjectERNS0_7RuntimeEPKc, symObjAddr: 0x380, symBinAddr: 0x61864, symSize: 0x2E8 }
  - { offsetInCU: 0x111A5, offset: 0x3B27DD, size: 0x8, addend: 0x0, symName: __ZNK8facebook3jsi6Object21getPropertyAsFunctionERNS0_7RuntimeEPKc, symObjAddr: 0x668, symBinAddr: 0x61B4C, symSize: 0x2B4 }
  - { offsetInCU: 0x11E6B, offset: 0x3B34A3, size: 0x8, addend: 0x0, symName: __ZNK8facebook3jsi8Function4callIJNS0_6StringEEEENS0_5ValueERNS0_7RuntimeEDpOT_, symObjAddr: 0x91C, symBinAddr: 0x61E00, symSize: 0x114 }
  - { offsetInCU: 0x123AA, offset: 0x3B39E2, size: 0x8, addend: 0x0, symName: __ZN8facebook3jsi5ValueD2Ev, symObjAddr: 0x13C4, symBinAddr: 0x62860, symSize: 0x44 }
  - { offsetInCU: 0x1262C, offset: 0x3B3C64, size: 0x8, addend: 0x0, symName: __ZN8facebook3jsi7PointeraSEOS1_, symObjAddr: 0xA30, symBinAddr: 0x61F14, symSize: 0x44 }
  - { offsetInCU: 0x1270E, offset: 0x3B3D46, size: 0x8, addend: 0x0, symName: __ZN8facebook3jsi5ValueD1Ev, symObjAddr: 0xC24, symBinAddr: 0x620C0, symSize: 0x4 }
  - { offsetInCU: 0x12719, offset: 0x3B3D51, size: 0x8, addend: 0x0, symName: __ZN8facebook3jsi12_GLOBAL__N_112kindToStringERKNS0_5ValueEPNS0_7RuntimeE.cold.1, symObjAddr: 0x4ED0, symBinAddr: 0xB6AEB8, symSize: 0x28 }
  - { offsetInCU: 0x1273B, offset: 0x3B3D73, size: 0x8, addend: 0x0, symName: __ZN8facebook3jsi5ValueD1Ev, symObjAddr: 0xC24, symBinAddr: 0x620C0, symSize: 0x4 }
  - { offsetInCU: 0x1275D, offset: 0x3B3D95, size: 0x8, addend: 0x0, symName: __ZN8facebook3jsi5ValueD1Ev, symObjAddr: 0xC24, symBinAddr: 0x620C0, symSize: 0x4 }
  - { offsetInCU: 0x12831, offset: 0x3B3E69, size: 0x8, addend: 0x0, symName: __ZNKR8facebook3jsi6Object7asArrayERNS0_7RuntimeE, symObjAddr: 0xC28, symBinAddr: 0x620C4, symSize: 0x1DC }
  - { offsetInCU: 0x12F45, offset: 0x3B457D, size: 0x8, addend: 0x0, symName: __ZNKR8facebook3jsi6Object7asArrayERNS0_7RuntimeE.cold.1, symObjAddr: 0x4F20, symBinAddr: 0xB6AEE0, symSize: 0x28 }
  - { offsetInCU: 0x12FA0, offset: 0x3B45D8, size: 0x8, addend: 0x0, symName: __ZNO8facebook3jsi6Object7asArrayERNS0_7RuntimeE, symObjAddr: 0xE04, symBinAddr: 0x622A0, symSize: 0x1CC }
  - { offsetInCU: 0x136AF, offset: 0x3B4CE7, size: 0x8, addend: 0x0, symName: __ZNO8facebook3jsi6Object7asArrayERNS0_7RuntimeE.cold.1, symObjAddr: 0x4F48, symBinAddr: 0xB6AF08, symSize: 0x28 }
  - { offsetInCU: 0x136FF, offset: 0x3B4D37, size: 0x8, addend: 0x0, symName: __ZNKR8facebook3jsi6Object10asFunctionERNS0_7RuntimeE, symObjAddr: 0xFD0, symBinAddr: 0x6246C, symSize: 0x1DC }
  - { offsetInCU: 0x13E13, offset: 0x3B544B, size: 0x8, addend: 0x0, symName: __ZNKR8facebook3jsi6Object10asFunctionERNS0_7RuntimeE.cold.1, symObjAddr: 0x4F70, symBinAddr: 0xB6AF30, symSize: 0x28 }
  - { offsetInCU: 0x13E40, offset: 0x3B5478, size: 0x8, addend: 0x0, symName: __ZNO8facebook3jsi6Object10asFunctionERNS0_7RuntimeE, symObjAddr: 0x11AC, symBinAddr: 0x62648, symSize: 0x1CC }
  - { offsetInCU: 0x1454F, offset: 0x3B5B87, size: 0x8, addend: 0x0, symName: __ZNO8facebook3jsi6Object10asFunctionERNS0_7RuntimeE.cold.1, symObjAddr: 0x4F98, symBinAddr: 0xB6AF58, symSize: 0x28 }
  - { offsetInCU: 0x145A2, offset: 0x3B5BDA, size: 0x8, addend: 0x0, symName: __ZN8facebook3jsi5ValueC2EOS1_, symObjAddr: 0x1378, symBinAddr: 0x62814, symSize: 0x4C }
  - { offsetInCU: 0x1464C, offset: 0x3B5C84, size: 0x8, addend: 0x0, symName: __ZN8facebook3jsi5ValueC1EOS1_, symObjAddr: 0x1408, symBinAddr: 0x628A4, symSize: 0x4C }
  - { offsetInCU: 0x14709, offset: 0x3B5D41, size: 0x8, addend: 0x0, symName: __ZN8facebook3jsi5ValueC2ERNS0_7RuntimeERKS1_, symObjAddr: 0x1454, symBinAddr: 0x628F0, symSize: 0xF0 }
  - { offsetInCU: 0x147B4, offset: 0x3B5DEC, size: 0x8, addend: 0x0, symName: __ZN8facebook3jsi5ValueC1ERNS0_7RuntimeERKS1_, symObjAddr: 0x1544, symBinAddr: 0x629E0, symSize: 0xF0 }
  - { offsetInCU: 0x1489F, offset: 0x3B5ED7, size: 0x8, addend: 0x0, symName: __ZN8facebook3jsi5Value12strictEqualsERNS0_7RuntimeERKS1_S5_, symObjAddr: 0x1634, symBinAddr: 0x62AD0, symSize: 0xB4 }
  - { offsetInCU: 0x149AB, offset: 0x3B5FE3, size: 0x8, addend: 0x0, symName: __ZNK8facebook3jsi5Value6asBoolEv, symObjAddr: 0x16E8, symBinAddr: 0x62B84, symSize: 0x198 }
  - { offsetInCU: 0x14E16, offset: 0x3B644E, size: 0x8, addend: 0x0, symName: __ZN8facebook3jsi18JSINativeExceptionD1Ev, symObjAddr: 0x1880, symBinAddr: 0x62D1C, symSize: 0x4 }
  - { offsetInCU: 0x14E38, offset: 0x3B6470, size: 0x8, addend: 0x0, symName: __ZN8facebook3jsi18JSINativeExceptionD1Ev, symObjAddr: 0x1880, symBinAddr: 0x62D1C, symSize: 0x4 }
  - { offsetInCU: 0x14E55, offset: 0x3B648D, size: 0x8, addend: 0x0, symName: __ZN8facebook3jsi18JSINativeExceptionD1Ev, symObjAddr: 0x1880, symBinAddr: 0x62D1C, symSize: 0x4 }
  - { offsetInCU: 0x14E60, offset: 0x3B6498, size: 0x8, addend: 0x0, symName: __ZN8facebook3jsi12JSIExceptionD2Ev, symObjAddr: 0x3750, symBinAddr: 0x64B5C, symSize: 0x3C }
  - { offsetInCU: 0x14FDE, offset: 0x3B6616, size: 0x8, addend: 0x0, symName: __ZNK8facebook3jsi5Value8asNumberEv, symObjAddr: 0x1884, symBinAddr: 0x62D20, symSize: 0x198 }
  - { offsetInCU: 0x1542C, offset: 0x3B6A64, size: 0x8, addend: 0x0, symName: __ZNKR8facebook3jsi5Value8asObjectERNS0_7RuntimeE, symObjAddr: 0x1A1C, symBinAddr: 0x62EB8, symSize: 0x160 }
  - { offsetInCU: 0x1593C, offset: 0x3B6F74, size: 0x8, addend: 0x0, symName: __ZNO8facebook3jsi5Value8asObjectERNS0_7RuntimeE, symObjAddr: 0x1B7C, symBinAddr: 0x63018, symSize: 0x168 }
  - { offsetInCU: 0x15ED1, offset: 0x3B7509, size: 0x8, addend: 0x0, symName: __ZNKR8facebook3jsi5Value8asSymbolERNS0_7RuntimeE, symObjAddr: 0x1CE4, symBinAddr: 0x63180, symSize: 0x160 }
  - { offsetInCU: 0x163E1, offset: 0x3B7A19, size: 0x8, addend: 0x0, symName: __ZNKR8facebook3jsi5Value9getSymbolERNS0_7RuntimeE, symObjAddr: 0x1E44, symBinAddr: 0x632E0, symSize: 0x48 }
  - { offsetInCU: 0x164AF, offset: 0x3B7AE7, size: 0x8, addend: 0x0, symName: __ZNO8facebook3jsi5Value8asSymbolERNS0_7RuntimeE, symObjAddr: 0x1E8C, symBinAddr: 0x63328, symSize: 0x168 }
  - { offsetInCU: 0x16504, offset: 0x3B7B3C, size: 0x8, addend: 0x0, symName: __ZNKR8facebook3jsi5Value9getSymbolERNS0_7RuntimeE.cold.1, symObjAddr: 0x4FC0, symBinAddr: 0xB6AF80, symSize: 0x28 }
  - { offsetInCU: 0x16547, offset: 0x3B7B7F, size: 0x8, addend: 0x0, symName: __ZNO8facebook3jsi5Value8asSymbolERNS0_7RuntimeE, symObjAddr: 0x1E8C, symBinAddr: 0x63328, symSize: 0x168 }
  - { offsetInCU: 0x16AF2, offset: 0x3B812A, size: 0x8, addend: 0x0, symName: __ZNKR8facebook3jsi5Value8asBigIntERNS0_7RuntimeE, symObjAddr: 0x1FF4, symBinAddr: 0x63490, symSize: 0x160 }
  - { offsetInCU: 0x17080, offset: 0x3B86B8, size: 0x8, addend: 0x0, symName: __ZNO8facebook3jsi5Value8asBigIntERNS0_7RuntimeE, symObjAddr: 0x219C, symBinAddr: 0x635F0, symSize: 0x168 }
  - { offsetInCU: 0x1710A, offset: 0x3B8742, size: 0x8, addend: 0x0, symName: __ZNO8facebook3jsi5Value8asBigIntERNS0_7RuntimeE, symObjAddr: 0x219C, symBinAddr: 0x635F0, symSize: 0x168 }
  - { offsetInCU: 0x176B5, offset: 0x3B8CED, size: 0x8, addend: 0x0, symName: __ZNKR8facebook3jsi5Value8asStringERNS0_7RuntimeE, symObjAddr: 0x2304, symBinAddr: 0x63758, symSize: 0x160 }
  - { offsetInCU: 0x17C37, offset: 0x3B926F, size: 0x8, addend: 0x0, symName: __ZNO8facebook3jsi5Value8asStringERNS0_7RuntimeE, symObjAddr: 0x24AC, symBinAddr: 0x638B8, symSize: 0x168 }
  - { offsetInCU: 0x17C77, offset: 0x3B92AF, size: 0x8, addend: 0x0, symName: __ZNO8facebook3jsi5Value8asStringERNS0_7RuntimeE, symObjAddr: 0x24AC, symBinAddr: 0x638B8, symSize: 0x168 }
  - { offsetInCU: 0x18245, offset: 0x3B987D, size: 0x8, addend: 0x0, symName: __ZNK8facebook3jsi5Value8toStringERNS0_7RuntimeE, symObjAddr: 0x2614, symBinAddr: 0x63A20, symSize: 0x1F4 }
  - { offsetInCU: 0x1882D, offset: 0x3B9E65, size: 0x8, addend: 0x0, symName: __ZN8facebook3jsi5Array18createWithElementsERNS0_7RuntimeESt16initializer_listINS0_5ValueEE, symObjAddr: 0x2808, symBinAddr: 0x63C14, symSize: 0xB0 }
  - { offsetInCU: 0x18A2C, offset: 0x3BA064, size: 0x8, addend: 0x0, symName: __ZN8facebook3jsi5Array15setValueAtIndexIRKNS0_5ValueEEEvRNS0_7RuntimeEmOT_, symObjAddr: 0x28B8, symBinAddr: 0x63CC4, symSize: 0x94 }
  - { offsetInCU: 0x18BE6, offset: 0x3BA21E, size: 0x8, addend: 0x0, symName: __ZN8facebook3jsi10HostObject16getPropertyNamesERNS0_7RuntimeE, symObjAddr: 0x294C, symBinAddr: 0x63D58, symSize: 0xC }
  - { offsetInCU: 0x18C17, offset: 0x3BA24F, size: 0x8, addend: 0x0, symName: __ZN8facebook3jsi10HostObject16getPropertyNamesERNS0_7RuntimeE, symObjAddr: 0x294C, symBinAddr: 0x63D58, symSize: 0xC }
  - { offsetInCU: 0x18C33, offset: 0x3BA26B, size: 0x8, addend: 0x0, symName: __ZN8facebook3jsi10HostObject16getPropertyNamesERNS0_7RuntimeE, symObjAddr: 0x294C, symBinAddr: 0x63D58, symSize: 0xC }
  - { offsetInCU: 0x18C4F, offset: 0x3BA287, size: 0x8, addend: 0x0, symName: __ZN8facebook3jsi7Runtime9pushScopeEv, symObjAddr: 0x2958, symBinAddr: 0x63D64, symSize: 0x8 }
  - { offsetInCU: 0x18C75, offset: 0x3BA2AD, size: 0x8, addend: 0x0, symName: __ZN8facebook3jsi7Runtime8popScopeEPNS1_10ScopeStateE, symObjAddr: 0x2960, symBinAddr: 0x63D6C, symSize: 0x4 }
  - { offsetInCU: 0x18D12, offset: 0x3BA34A, size: 0x8, addend: 0x0, symName: __ZN8facebook3jsi7JSErrorC2ERNS0_7RuntimeEONS0_5ValueE, symObjAddr: 0x2964, symBinAddr: 0x63D70, symSize: 0x8C }
  - { offsetInCU: 0x190A9, offset: 0x3BA6E1, size: 0x8, addend: 0x0, symName: __ZN8facebook3jsi7JSError8setValueERNS0_7RuntimeEONS0_5ValueE, symObjAddr: 0x29F0, symBinAddr: 0x63DFC, symSize: 0xD60 }
  - { offsetInCU: 0x1D28D, offset: 0x3BE8C5, size: 0x8, addend: 0x0, symName: __ZNSt3__110shared_ptrIN8facebook3jsi5ValueEED2B8ue170006Ev, symObjAddr: 0x4C64, symBinAddr: 0x65EC0, symSize: 0x50 }
  - { offsetInCU: 0x1D5CE, offset: 0x3BEC06, size: 0x8, addend: 0x0, symName: __ZNSt3__110shared_ptrIN8facebook3jsi5ValueEEaSB8ue170006EOS4_, symObjAddr: 0x4788, symBinAddr: 0x65B88, symSize: 0x5C }
  - { offsetInCU: 0x1D722, offset: 0x3BED5A, size: 0x8, addend: 0x0, symName: __ZN8facebook3jsi5ValueaSEOS1_, symObjAddr: 0x47E4, symBinAddr: 0x65BE4, symSize: 0x68 }
  - { offsetInCU: 0x1D92F, offset: 0x3BEF67, size: 0x8, addend: 0x0, symName: __ZN8facebook3jsi12_GLOBAL__N_112kindToStringERKNS0_5ValueEPNS0_7RuntimeE.cold.1, symObjAddr: 0x4ED0, symBinAddr: 0xB6AEB8, symSize: 0x28 }
  - { offsetInCU: 0x1D93A, offset: 0x3BEF72, size: 0x8, addend: 0x0, symName: __ZN8facebook3jsi7JSErrorC1ERNS0_7RuntimeEONS0_5ValueE, symObjAddr: 0x378C, symBinAddr: 0x64B98, symSize: 0x4 }
  - { offsetInCU: 0x1D984, offset: 0x3BEFBC, size: 0x8, addend: 0x0, symName: __ZN8facebook3jsi7JSErrorC1ERNS0_7RuntimeEONS0_5ValueE, symObjAddr: 0x378C, symBinAddr: 0x64B98, symSize: 0x4 }
  - { offsetInCU: 0x1DA84, offset: 0x3BF0BC, size: 0x8, addend: 0x0, symName: __ZN8facebook3jsi7JSErrorC2ERNS0_7RuntimeENSt3__112basic_stringIcNS4_11char_traitsIcEENS4_9allocatorIcEEEESA_, symObjAddr: 0x420C, symBinAddr: 0x6560C, symSize: 0x3D4 }
  - { offsetInCU: 0x1EA00, offset: 0x3C0038, size: 0x8, addend: 0x0, symName: __ZN8facebook3jsi6Object11setPropertyINS0_6StringEEEvRNS0_7RuntimeEPKcOT_, symObjAddr: 0x45E0, symBinAddr: 0x659E0, symSize: 0xAC }
  - { offsetInCU: 0x1EB7C, offset: 0x3C01B4, size: 0x8, addend: 0x0, symName: __ZN8facebook3jsi6Object11setPropertyINS0_6StringEEEvRNS0_7RuntimeERKS3_OT_, symObjAddr: 0x4CB4, symBinAddr: 0x65F10, symSize: 0xAC }
  - { offsetInCU: 0x1ED87, offset: 0x3C03BF, size: 0x8, addend: 0x0, symName: __ZN8facebook3jsi7JSErrorC1ERNS0_7RuntimeENSt3__112basic_stringIcNS4_11char_traitsIcEENS4_9allocatorIcEEEESA_, symObjAddr: 0x468C, symBinAddr: 0x65A8C, symSize: 0x4 }
  - { offsetInCU: 0x1EDE1, offset: 0x3C0419, size: 0x8, addend: 0x0, symName: __ZN8facebook3jsi7JSErrorC1ERNS0_7RuntimeENSt3__112basic_stringIcNS4_11char_traitsIcEENS4_9allocatorIcEEEESA_, symObjAddr: 0x468C, symBinAddr: 0x65A8C, symSize: 0x4 }
  - { offsetInCU: 0x1EDEC, offset: 0x3C0424, size: 0x8, addend: 0x0, symName: __ZN8facebook3jsi7JSErrorC2ENSt3__112basic_stringIcNS2_11char_traitsIcEENS2_9allocatorIcEEEERNS0_7RuntimeEONS0_5ValueE, symObjAddr: 0x4690, symBinAddr: 0x65A90, symSize: 0xF4 }
  - { offsetInCU: 0x1F1EB, offset: 0x3C0823, size: 0x8, addend: 0x0, symName: __ZN8facebook3jsi7JSErrorC1ENSt3__112basic_stringIcNS2_11char_traitsIcEENS2_9allocatorIcEEEERNS0_7RuntimeEONS0_5ValueE, symObjAddr: 0x4784, symBinAddr: 0x65B84, symSize: 0x4 }
  - { offsetInCU: 0x1F244, offset: 0x3C087C, size: 0x8, addend: 0x0, symName: __ZN8facebook3jsi7JSErrorC1ENSt3__112basic_stringIcNS2_11char_traitsIcEENS2_9allocatorIcEEEERNS0_7RuntimeEONS0_5ValueE, symObjAddr: 0x4784, symBinAddr: 0x65B84, symSize: 0x4 }
  - { offsetInCU: 0x1F2F0, offset: 0x3C0928, size: 0x8, addend: 0x0, symName: __ZN8facebook3jsi12JSIExceptionD1Ev, symObjAddr: 0x484C, symBinAddr: 0x65C4C, symSize: 0x4 }
  - { offsetInCU: 0x1F312, offset: 0x3C094A, size: 0x8, addend: 0x0, symName: __ZN8facebook3jsi12JSIExceptionD1Ev, symObjAddr: 0x484C, symBinAddr: 0x65C4C, symSize: 0x4 }
  - { offsetInCU: 0x1F33A, offset: 0x3C0972, size: 0x8, addend: 0x0, symName: __ZN8facebook3jsi12JSIExceptionD0Ev, symObjAddr: 0x4850, symBinAddr: 0x65C50, symSize: 0x14 }
  - { offsetInCU: 0x1F390, offset: 0x3C09C8, size: 0x8, addend: 0x0, symName: __ZN8facebook3jsi18JSINativeExceptionD2Ev, symObjAddr: 0x4864, symBinAddr: 0x65C64, symSize: 0x4 }
  - { offsetInCU: 0x1F3B2, offset: 0x3C09EA, size: 0x8, addend: 0x0, symName: __ZN8facebook3jsi18JSINativeExceptionD2Ev, symObjAddr: 0x4864, symBinAddr: 0x65C64, symSize: 0x4 }
  - { offsetInCU: 0x1F3DA, offset: 0x3C0A12, size: 0x8, addend: 0x0, symName: __ZN8facebook3jsi18JSINativeExceptionD0Ev, symObjAddr: 0x4868, symBinAddr: 0x65C68, symSize: 0x14 }
  - { offsetInCU: 0x1F46A, offset: 0x3C0AA2, size: 0x8, addend: 0x0, symName: __ZN8facebook3jsi7JSErrorD0Ev, symObjAddr: 0x48D0, symBinAddr: 0x65CD0, symSize: 0x14 }
  - { offsetInCU: 0x1F4D6, offset: 0x3C0B0E, size: 0x8, addend: 0x0, symName: __ZNK8facebook3jsi12JSIException4whatEv, symObjAddr: 0x48E4, symBinAddr: 0x65CE4, symSize: 0x1C }
  - { offsetInCU: 0x1F57C, offset: 0x3C0BB4, size: 0x8, addend: 0x0, symName: __ZZN8facebook3jsi7Runtime15instrumentationEvEN17NoInstrumentationD0Ev, symObjAddr: 0x4900, symBinAddr: 0x65D00, symSize: 0x4 }
  - { offsetInCU: 0x1F5A7, offset: 0x3C0BDF, size: 0x8, addend: 0x0, symName: __ZZN8facebook3jsi7Runtime15instrumentationEvEN17NoInstrumentation18getRecordedGCStatsEv, symObjAddr: 0x4904, symBinAddr: 0x65D04, symSize: 0x10 }
  - { offsetInCU: 0x1F7DA, offset: 0x3C0E12, size: 0x8, addend: 0x0, symName: __ZZN8facebook3jsi7Runtime15instrumentationEvEN17NoInstrumentation11getHeapInfoEb, symObjAddr: 0x4914, symBinAddr: 0x65D14, symSize: 0x14 }
  - { offsetInCU: 0x1F80B, offset: 0x3C0E43, size: 0x8, addend: 0x0, symName: __ZZN8facebook3jsi7Runtime15instrumentationEvEN17NoInstrumentation11getHeapInfoEb, symObjAddr: 0x4914, symBinAddr: 0x65D14, symSize: 0x14 }
  - { offsetInCU: 0x1F826, offset: 0x3C0E5E, size: 0x8, addend: 0x0, symName: __ZZN8facebook3jsi7Runtime15instrumentationEvEN17NoInstrumentation11getHeapInfoEb, symObjAddr: 0x4914, symBinAddr: 0x65D14, symSize: 0x14 }
  - { offsetInCU: 0x1F842, offset: 0x3C0E7A, size: 0x8, addend: 0x0, symName: __ZZN8facebook3jsi7Runtime15instrumentationEvEN17NoInstrumentation11getHeapInfoEb, symObjAddr: 0x4914, symBinAddr: 0x65D14, symSize: 0x14 }
  - { offsetInCU: 0x1F85E, offset: 0x3C0E96, size: 0x8, addend: 0x0, symName: __ZZN8facebook3jsi7Runtime15instrumentationEvEN17NoInstrumentation11getHeapInfoEb, symObjAddr: 0x4914, symBinAddr: 0x65D14, symSize: 0x14 }
  - { offsetInCU: 0x1F87A, offset: 0x3C0EB2, size: 0x8, addend: 0x0, symName: __ZZN8facebook3jsi7Runtime15instrumentationEvEN17NoInstrumentation11getHeapInfoEb, symObjAddr: 0x4914, symBinAddr: 0x65D14, symSize: 0x14 }
  - { offsetInCU: 0x1F898, offset: 0x3C0ED0, size: 0x8, addend: 0x0, symName: __ZZN8facebook3jsi7Runtime15instrumentationEvEN17NoInstrumentation11getHeapInfoEb, symObjAddr: 0x4914, symBinAddr: 0x65D14, symSize: 0x14 }
  - { offsetInCU: 0x1F8B5, offset: 0x3C0EED, size: 0x8, addend: 0x0, symName: __ZZN8facebook3jsi7Runtime15instrumentationEvEN17NoInstrumentation11getHeapInfoEb, symObjAddr: 0x4914, symBinAddr: 0x65D14, symSize: 0x14 }
  - { offsetInCU: 0x1F8D2, offset: 0x3C0F0A, size: 0x8, addend: 0x0, symName: __ZZN8facebook3jsi7Runtime15instrumentationEvEN17NoInstrumentation11getHeapInfoEb, symObjAddr: 0x4914, symBinAddr: 0x65D14, symSize: 0x14 }
  - { offsetInCU: 0x1F8EF, offset: 0x3C0F27, size: 0x8, addend: 0x0, symName: __ZZN8facebook3jsi7Runtime15instrumentationEvEN17NoInstrumentation11getHeapInfoEb, symObjAddr: 0x4914, symBinAddr: 0x65D14, symSize: 0x14 }
  - { offsetInCU: 0x1F96E, offset: 0x3C0FA6, size: 0x8, addend: 0x0, symName: __ZZN8facebook3jsi7Runtime15instrumentationEvEN17NoInstrumentation14collectGarbageENSt3__112basic_stringIcNS3_11char_traitsIcEENS3_9allocatorIcEEEE, symObjAddr: 0x4928, symBinAddr: 0x65D28, symSize: 0x4 }
  - { offsetInCU: 0x1F99D, offset: 0x3C0FD5, size: 0x8, addend: 0x0, symName: __ZZN8facebook3jsi7Runtime15instrumentationEvEN17NoInstrumentation34startTrackingHeapObjectStackTracesENSt3__18functionIFvyNS3_6chrono8durationIxNS3_5ratioILl1ELl1000000EEEEENS3_6vectorINS3_5tupleIJyyyEEENS3_9allocatorISC_EEEEEEE, symObjAddr: 0x492C, symBinAddr: 0x65D2C, symSize: 0x4 }
  - { offsetInCU: 0x1F9CC, offset: 0x3C1004, size: 0x8, addend: 0x0, symName: __ZZN8facebook3jsi7Runtime15instrumentationEvEN17NoInstrumentation33stopTrackingHeapObjectStackTracesEv, symObjAddr: 0x4930, symBinAddr: 0x65D30, symSize: 0x4 }
  - { offsetInCU: 0x1F9F3, offset: 0x3C102B, size: 0x8, addend: 0x0, symName: __ZZN8facebook3jsi7Runtime15instrumentationEvEN17NoInstrumentation17startHeapSamplingEm, symObjAddr: 0x4934, symBinAddr: 0x65D34, symSize: 0x4 }
  - { offsetInCU: 0x1FA22, offset: 0x3C105A, size: 0x8, addend: 0x0, symName: __ZZN8facebook3jsi7Runtime15instrumentationEvEN17NoInstrumentation16stopHeapSamplingERNSt3__113basic_ostreamIcNS3_11char_traitsIcEEEE, symObjAddr: 0x4938, symBinAddr: 0x65D38, symSize: 0x4 }
  - { offsetInCU: 0x1FA51, offset: 0x3C1089, size: 0x8, addend: 0x0, symName: __ZZN8facebook3jsi7Runtime15instrumentationEvEN17NoInstrumentation20createSnapshotToFileERKNSt3__112basic_stringIcNS3_11char_traitsIcEENS3_9allocatorIcEEEE, symObjAddr: 0x493C, symBinAddr: 0x65D3C, symSize: 0xB0 }
  - { offsetInCU: 0x1FCB4, offset: 0x3C12EC, size: 0x8, addend: 0x0, symName: __ZZN8facebook3jsi7Runtime15instrumentationEvEN17NoInstrumentation22createSnapshotToStreamERNSt3__113basic_ostreamIcNS3_11char_traitsIcEEEE, symObjAddr: 0x49EC, symBinAddr: 0x65DEC, symSize: 0xB0 }
  - { offsetInCU: 0x1FF17, offset: 0x3C154F, size: 0x8, addend: 0x0, symName: __ZZN8facebook3jsi7Runtime15instrumentationEvEN17NoInstrumentation33flushAndDisableBridgeTrafficTraceEv, symObjAddr: 0x4A9C, symBinAddr: 0x65E9C, symSize: 0xC }
  - { offsetInCU: 0x1FF3E, offset: 0x3C1576, size: 0x8, addend: 0x0, symName: __ZZN8facebook3jsi7Runtime15instrumentationEvENK17NoInstrumentation33writeBasicBlockProfileTraceToFileERKNSt3__112basic_stringIcNS3_11char_traitsIcEENS3_9allocatorIcEEEE, symObjAddr: 0x4AA8, symBinAddr: 0x65EA8, symSize: 0xC }
  - { offsetInCU: 0x1FF6D, offset: 0x3C15A5, size: 0x8, addend: 0x0, symName: __ZZN8facebook3jsi7Runtime15instrumentationEvENK17NoInstrumentation25dumpProfilerSymbolsToFileERKNSt3__112basic_stringIcNS3_11char_traitsIcEENS3_9allocatorIcEEEE, symObjAddr: 0x4AB4, symBinAddr: 0x65EB4, symSize: 0xC }
  - { offsetInCU: 0x20386, offset: 0x3C19BE, size: 0x8, addend: 0x0, symName: __ZNSt3__120__shared_ptr_emplaceIN8facebook3jsi5ValueENS_9allocatorIS3_EEEC2B8ue170006IJS3_EEES5_DpOT_, symObjAddr: 0x4DB8, symBinAddr: 0x66014, symSize: 0x60 }
  - { offsetInCU: 0x20530, offset: 0x3C1B68, size: 0x8, addend: 0x0, symName: __ZNSt3__120__shared_ptr_emplaceIN8facebook3jsi5ValueENS_9allocatorIS3_EEED1Ev, symObjAddr: 0x4E18, symBinAddr: 0x66074, symSize: 0x14 }
  - { offsetInCU: 0x20552, offset: 0x3C1B8A, size: 0x8, addend: 0x0, symName: __ZNSt3__120__shared_ptr_emplaceIN8facebook3jsi5ValueENS_9allocatorIS3_EEED1Ev, symObjAddr: 0x4E18, symBinAddr: 0x66074, symSize: 0x14 }
  - { offsetInCU: 0x2058A, offset: 0x3C1BC2, size: 0x8, addend: 0x0, symName: __ZNSt3__120__shared_ptr_emplaceIN8facebook3jsi5ValueENS_9allocatorIS3_EEED0Ev, symObjAddr: 0x4E2C, symBinAddr: 0x66088, symSize: 0x24 }
  - { offsetInCU: 0x205F0, offset: 0x3C1C28, size: 0x8, addend: 0x0, symName: __ZNSt3__120__shared_ptr_emplaceIN8facebook3jsi5ValueENS_9allocatorIS3_EEE16__on_zero_sharedEv, symObjAddr: 0x4E50, symBinAddr: 0x660AC, symSize: 0x8 }
  - { offsetInCU: 0x20619, offset: 0x3C1C51, size: 0x8, addend: 0x0, symName: __ZNSt3__120__shared_ptr_emplaceIN8facebook3jsi5ValueENS_9allocatorIS3_EEE16__on_zero_sharedEv, symObjAddr: 0x4E50, symBinAddr: 0x660AC, symSize: 0x8 }
  - { offsetInCU: 0x2065E, offset: 0x3C1C96, size: 0x8, addend: 0x0, symName: __ZNSt3__120__shared_ptr_emplaceIN8facebook3jsi5ValueENS_9allocatorIS3_EEE21__on_zero_shared_weakEv, symObjAddr: 0x4E58, symBinAddr: 0x660B4, symSize: 0x4 }
  - { offsetInCU: 0x20691, offset: 0x3C1CC9, size: 0x8, addend: 0x0, symName: __ZNSt3__120__shared_ptr_emplaceIN8facebook3jsi5ValueENS_9allocatorIS3_EEE21__on_zero_shared_weakEv, symObjAddr: 0x4E58, symBinAddr: 0x660B4, symSize: 0x4 }
  - { offsetInCU: 0x206B3, offset: 0x3C1CEB, size: 0x8, addend: 0x0, symName: __ZNSt3__120__shared_ptr_emplaceIN8facebook3jsi5ValueENS_9allocatorIS3_EEE21__on_zero_shared_weakEv, symObjAddr: 0x4E58, symBinAddr: 0x660B4, symSize: 0x4 }
  - { offsetInCU: 0x206D5, offset: 0x3C1D0D, size: 0x8, addend: 0x0, symName: __ZNSt3__120__shared_ptr_emplaceIN8facebook3jsi5ValueENS_9allocatorIS3_EEE21__on_zero_shared_weakEv, symObjAddr: 0x4E58, symBinAddr: 0x660B4, symSize: 0x4 }
  - { offsetInCU: 0x20701, offset: 0x3C1D39, size: 0x8, addend: 0x0, symName: __ZNSt3__120__shared_ptr_emplaceIN8facebook3jsi5ValueENS_9allocatorIS3_EEE21__on_zero_shared_weakEv, symObjAddr: 0x4E58, symBinAddr: 0x660B4, symSize: 0x4 }
  - { offsetInCU: 0x20728, offset: 0x3C1D60, size: 0x8, addend: 0x0, symName: __ZNSt3__120__shared_ptr_emplaceIN8facebook3jsi5ValueENS_9allocatorIS3_EEE21__on_zero_shared_weakEv, symObjAddr: 0x4E58, symBinAddr: 0x660B4, symSize: 0x4 }
  - { offsetInCU: 0x53, offset: 0x3C1E33, size: 0x8, addend: 0x0, symName: __ZN3tns12ClassBuilder17classNameCounter_E, symObjAddr: 0x32B228, symBinAddr: 0x15B2078, symSize: 0x0 }
  - { offsetInCU: 0xA655, offset: 0x3CC435, size: 0x8, addend: 0x0, symName: __ZNSt3__119__allocate_at_leastB8ue170006INS_9allocatorIPKN3tns12ProtocolMetaEEEEENS_19__allocation_resultINS_16allocator_traitsIT_E7pointerEEERS9_m, symObjAddr: 0xA5B4, symBinAddr: 0x6D02C, symSize: 0x34 }
  - { offsetInCU: 0xB031, offset: 0x3CCE11, size: 0x8, addend: 0x0, symName: __ZNSt3__115allocate_sharedB8ue170006IN2v810PersistentINS1_6ObjectENS1_27NonCopyablePersistentTraitsIS3_EEEENS_9allocatorIS6_EEJRPNS1_7IsolateERNS1_5LocalIS3_EEEvEENS_10shared_ptrIT_EERKT0_DpOT1_, symObjAddr: 0xA878, symBinAddr: 0x6D118, symSize: 0x60 }
  - { offsetInCU: 0xB78A, offset: 0x3CD56A, size: 0x8, addend: 0x0, symName: __ZNSt3__115allocate_sharedB8ue170006IN2v810PersistentINS1_6ObjectENS1_27NonCopyablePersistentTraitsIS3_EEEENS_9allocatorIS6_EEJRPNS1_7IsolateERNS1_5LocalIS3_EEEvEENS_10shared_ptrIT_EERKT0_DpOT1_, symObjAddr: 0xA878, symBinAddr: 0x6D118, symSize: 0x60 }
  - { offsetInCU: 0x167D6, offset: 0x3D85B6, size: 0x8, addend: 0x0, symName: __ZN3tns12ClassBuilder17GetExtendFunctionEPN2v87IsolateEPKNS_13InterfaceMetaE, symObjAddr: 0x0, symBinAddr: 0x660B8, symSize: 0x104 }
  - { offsetInCU: 0x16AB0, offset: 0x3D8890, size: 0x8, addend: 0x0, symName: __ZN3tns6Caches24registerCacheBoundObjectINS_12ClassBuilder9CacheItemEEEvPT_, symObjAddr: 0x104, symBinAddr: 0x661BC, symSize: 0x110 }
  - { offsetInCU: 0x1850F, offset: 0x3DA2EF, size: 0x8, addend: 0x0, symName: __ZN3tns12ClassBuilder14ExtendCallbackERKN2v820FunctionCallbackInfoINS1_5ValueEEE, symObjAddr: 0x214, symBinAddr: 0x662CC, symSize: 0xD94 }
  - { offsetInCU: 0x1C509, offset: 0x3DE2E9, size: 0x8, addend: 0x0, symName: __ZN3tns12ClassBuilder20ExposeDynamicMembersEN2v85LocalINS1_7ContextEEEP10objc_classNS2_INS1_6ObjectEEES8_, symObjAddr: 0x1064, symBinAddr: 0x67060, symSize: 0x1C8 }
  - { offsetInCU: 0x1CD08, offset: 0x3DEAE8, size: 0x8, addend: 0x0, symName: __ZN3tns12ClassBuilder20ExposeDynamicMethodsEN2v85LocalINS1_7ContextEEEP10objc_classNS2_INS1_5ValueEEES8_NS2_INS1_6ObjectEEE, symObjAddr: 0x122C, symBinAddr: 0x67228, symSize: 0x1264 }
  - { offsetInCU: 0x2348B, offset: 0x3E526B, size: 0x8, addend: 0x0, symName: __ZN10robin_hood6detail5TableILb1ELm80ENSt3__112basic_stringIcNS2_11char_traitsIcEENS2_9allocatorIcEEEENS2_10unique_ptrIN2v810PersistentINSA_6ObjectENSA_27NonCopyablePersistentTraitsISC_EEEENS2_14default_deleteISF_EEEENS_4hashIS8_vEENS2_8equal_toIS8_EEE7emplaceIJRS8_SI_EEENS2_4pairINSN_4IterILb0EEEbEEDpOT_, symObjAddr: 0x287C, symBinAddr: 0x6870C, symSize: 0x16C }
  - { offsetInCU: 0x249B4, offset: 0x3E6794, size: 0x8, addend: 0x0, symName: __ZN3tns12ClassBuilder19GetTypeEncodingTypeEPN2v87IsolateENS1_5LocalINS1_5ValueEEE, symObjAddr: 0x3810, symBinAddr: 0x69434, symSize: 0x110 }
  - { offsetInCU: 0x25024, offset: 0x3E6E04, size: 0x8, addend: 0x0, symName: __ZN3tns12ClassBuilder15GetTypeEncodingEPKNS_12TypeEncodingEi, symObjAddr: 0x3660, symBinAddr: 0x69284, symSize: 0x1B0 }
  - { offsetInCU: 0x2564B, offset: 0x3E742B, size: 0x8, addend: 0x0, symName: __ZNSt3__16vectorIPKN3tns12ProtocolMetaENS_9allocatorIS4_EEE16__init_with_sizeB8ue170006IPS4_S9_EEvT_T0_m, symObjAddr: 0xA6F0, symBinAddr: 0x6D060, symSize: 0x78 }
  - { offsetInCU: 0x25A60, offset: 0x3E7840, size: 0x8, addend: 0x0, symName: __ZN3tns12ClassBuilder15VisitPropertiesENSt3__112basic_stringIcNS1_11char_traitsIcEENS1_9allocatorIcEEEEPKNS_13BaseClassMetaERNS1_6vectorIPKNS_12PropertyMetaENS5_ISE_EEEENSB_IPKNS_12ProtocolMetaENS5_ISK_EEEE, symObjAddr: 0x392C, symBinAddr: 0x69550, symSize: 0x6E4 }
  - { offsetInCU: 0x28598, offset: 0x3EA378, size: 0x8, addend: 0x0, symName: __ZN3tns12ClassBuilder16ExposePropertiesEPN2v87IsolateEP10objc_classNSt3__16vectorIPKNS_12PropertyMetaENS6_9allocatorISA_EEEENS1_5LocalINS1_6ObjectEEENSE_INS1_5ValueEEESI_, symObjAddr: 0x4010, symBinAddr: 0x69C34, symSize: 0x774 }
  - { offsetInCU: 0x2A552, offset: 0x3EC332, size: 0x8, addend: 0x0, symName: __ZN3tns12ClassBuilder12VisitMethodsEP10objc_classNSt3__112basic_stringIcNS3_11char_traitsIcEENS3_9allocatorIcEEEEPKNS_13BaseClassMetaERNS3_6vectorIPKNS_10MethodMetaENS7_ISG_EEEENSD_IPKNS_12ProtocolMetaENS7_ISM_EEEE, symObjAddr: 0x4784, symBinAddr: 0x6A3A8, symSize: 0x6FC }
  - { offsetInCU: 0x2CE62, offset: 0x3EEC42, size: 0x8, addend: 0x0, symName: __ZNKSt3__16vectorIPKN3tns12ProtocolMetaENS_9allocatorIS4_EEE20__throw_length_errorB8ue170006Ev, symObjAddr: 0xA5A0, symBinAddr: 0x6D018, symSize: 0x14 }
  - { offsetInCU: 0x2CE8B, offset: 0x3EEC6B, size: 0x8, addend: 0x0, symName: __ZNSt3__119__allocate_at_leastB8ue170006INS_9allocatorIPKN3tns12ProtocolMetaEEEEENS_19__allocation_resultINS_16allocator_traitsIT_E7pointerEEERS9_m, symObjAddr: 0xA5B4, symBinAddr: 0x6D02C, symSize: 0x34 }
  - { offsetInCU: 0x2CEE0, offset: 0x3EECC0, size: 0x8, addend: 0x0, symName: __ZN3tns12ClassBuilder32ExtendedClassConstructorCallbackERKN2v820FunctionCallbackInfoINS1_5ValueEEE, symObjAddr: 0x2490, symBinAddr: 0x6848C, symSize: 0x9C }
  - { offsetInCU: 0x2D13E, offset: 0x3EEF1E, size: 0x8, addend: 0x0, symName: __ZN3tns12ClassBuilder27SuperAccessorGetterCallbackEN2v85LocalINS1_4NameEEERKNS1_20PropertyCallbackInfoINS1_5ValueEEE, symObjAddr: 0x252C, symBinAddr: 0x68528, symSize: 0x1E4 }
  - { offsetInCU: 0x2E3D4, offset: 0x3F01B4, size: 0x8, addend: 0x0, symName: __ZN10robin_hood6detail5TableILb1ELm80ENSt3__112basic_stringIcNS2_11char_traitsIcEENS2_9allocatorIcEEEENS2_10unique_ptrIN2v810PersistentINSA_6ObjectENSA_27NonCopyablePersistentTraitsISC_EEEENS2_14default_deleteISF_EEEENS_4hashIS8_vEENS2_8equal_toIS8_EEE25insertKeyPrepareEmptySpotIRKS8_EENS2_4pairImNSN_14InsertionStateEEEOT_, symObjAddr: 0x98CC, symBinAddr: 0x6C75C, symSize: 0x188 }
  - { offsetInCU: 0x2E510, offset: 0x3F02F0, size: 0x8, addend: 0x0, symName: __ZNK10robin_hood6detail5TableILb1ELm80ENSt3__112basic_stringIcNS2_11char_traitsIcEENS2_9allocatorIcEEEENS2_10unique_ptrIN2v810PersistentINSA_6ObjectENSA_27NonCopyablePersistentTraitsISC_EEEENS2_14default_deleteISF_EEEENS_4hashIS8_vEENS2_8equal_toIS8_EEE18throwOverflowErrorEv, symObjAddr: 0x9A54, symBinAddr: 0x6C8E4, symSize: 0x50 }
  - { offsetInCU: 0x2E544, offset: 0x3F0324, size: 0x8, addend: 0x0, symName: __ZN10robin_hood6detail5TableILb1ELm80ENSt3__112basic_stringIcNS2_11char_traitsIcEENS2_9allocatorIcEEEENS2_10unique_ptrIN2v810PersistentINSA_6ObjectENSA_27NonCopyablePersistentTraitsISC_EEEENS2_14default_deleteISF_EEEENS_4hashIS8_vEENS2_8equal_toIS8_EEE8DataNodeISN_Lb1EED1Ev, symObjAddr: 0x9AA4, symBinAddr: 0x6C934, symSize: 0x40 }
  - { offsetInCU: 0x2E7CC, offset: 0x3F05AC, size: 0x8, addend: 0x0, symName: __ZN3tns12ClassBuilder37RegisterBaseTypeScriptExtendsFunctionEN2v85LocalINS1_7ContextEEE, symObjAddr: 0x29F4, symBinAddr: 0x68878, symSize: 0x268 }
  - { offsetInCU: 0x2F55A, offset: 0x3F133A, size: 0x8, addend: 0x0, symName: __ZN3tns12ClassBuilder39RegisterNativeTypeScriptExtendsFunctionEN2v85LocalINS1_7ContextEEE, symObjAddr: 0x2C5C, symBinAddr: 0x68AE0, symSize: 0x148 }
  - { offsetInCU: 0x2FADD, offset: 0x3F18BD, size: 0x8, addend: 0x0, symName: __ZN3tns12ClassBuilder15GetTypeEncodingEPKNS_12TypeEncodingE, symObjAddr: 0x2DA4, symBinAddr: 0x68C28, symSize: 0x65C }
  - { offsetInCU: 0x31849, offset: 0x3F3629, size: 0x8, addend: 0x0, symName: ____ZN3tns12ClassBuilder20ExposeDynamicMethodsEN2v85LocalINS1_7ContextEEEP10objc_classNS2_INS1_5ValueEEES8_NS2_INS1_6ObjectEEE_block_invoke, symObjAddr: 0x3920, symBinAddr: 0x69544, symSize: 0xC }
  - { offsetInCU: 0x32CFC, offset: 0x3F4ADC, size: 0x8, addend: 0x0, symName: __ZN3tns12ClassBuilder22FindNotOverridenMethodEP10objc_classP13objc_selector, symObjAddr: 0x50E4, symBinAddr: 0x6AAA4, symSize: 0x58 }
  - { offsetInCU: 0x334E3, offset: 0x3F52C3, size: 0x8, addend: 0x0, symName: '__ZZN3tns12ClassBuilder39RegisterNativeTypeScriptExtendsFunctionEN2v85LocalINS1_7ContextEEEEN3$_08__invokeERKNS1_20FunctionCallbackInfoINS1_5ValueEEE', symObjAddr: 0x5394, symBinAddr: 0x6AAFC, symSize: 0xA7C }
  - { offsetInCU: 0x360F9, offset: 0x3F7ED9, size: 0x8, addend: 0x0, symName: __ZN10robin_hood6detail5TableILb1ELm80ENSt3__112basic_stringIcNS2_11char_traitsIcEENS2_9allocatorIcEEEENS2_10unique_ptrIN2v810PersistentINSA_8FunctionENSA_27NonCopyablePersistentTraitsISC_EEEENS2_14default_deleteISF_EEEENS_4hashIS8_vEENS2_8equal_toIS8_EEE7emplaceIJRS8_RPSF_EEENS2_4pairINSN_4IterILb0EEEbEEDpOT_, symObjAddr: 0x5E2C, symBinAddr: 0x6B594, symSize: 0x168 }
  - { offsetInCU: 0x36974, offset: 0x3F8754, size: 0x8, addend: 0x0, symName: ___Block_byref_object_copy_, symObjAddr: 0x5E10, symBinAddr: 0x6B578, symSize: 0x10 }
  - { offsetInCU: 0x3699D, offset: 0x3F877D, size: 0x8, addend: 0x0, symName: ___Block_byref_object_dispose_, symObjAddr: 0x5E20, symBinAddr: 0x6B588, symSize: 0xC }
  - { offsetInCU: 0x36BC1, offset: 0x3F89A1, size: 0x8, addend: 0x0, symName: '____ZZN3tns12ClassBuilder39RegisterNativeTypeScriptExtendsFunctionEN2v85LocalINS1_7ContextEEEENK3$_0clERKNS1_20FunctionCallbackInfoINS1_5ValueEEE_block_invoke', symObjAddr: 0x5F94, symBinAddr: 0x6B6FC, symSize: 0x3BC }
  - { offsetInCU: 0x37AD5, offset: 0x3F98B5, size: 0x8, addend: 0x0, symName: '____ZZN3tns12ClassBuilder39RegisterNativeTypeScriptExtendsFunctionEN2v85LocalINS1_7ContextEEEENK3$_0clERKNS1_20FunctionCallbackInfoINS1_5ValueEEE_block_invoke.53', symObjAddr: 0x636C, symBinAddr: 0x6BAB8, symSize: 0x210 }
  - { offsetInCU: 0x38154, offset: 0x3F9F34, size: 0x8, addend: 0x0, symName: '____ZZN3tns12ClassBuilder39RegisterNativeTypeScriptExtendsFunctionEN2v85LocalINS1_7ContextEEEENK3$_0clERKNS1_20FunctionCallbackInfoINS1_5ValueEEE_block_invoke_2', symObjAddr: 0x657C, symBinAddr: 0x6BCC8, symSize: 0x210 }
  - { offsetInCU: 0x3A862, offset: 0x3FC642, size: 0x8, addend: 0x0, symName: '__ZZN3tns12ClassBuilder16ExposePropertiesEPN2v87IsolateEP10objc_classNSt3__16vectorIPKNS_12PropertyMetaENS6_9allocatorISA_EEEENS1_5LocalINS1_6ObjectEEENSE_INS1_5ValueEEESI_EN3$_18__invokeEP7ffi_cifPvPSM_SM_', symObjAddr: 0x8900, symBinAddr: 0x6BED8, symSize: 0x3E4 }
  - { offsetInCU: 0x3BA5A, offset: 0x3FD83A, size: 0x8, addend: 0x0, symName: '__ZZN3tns12ClassBuilder16ExposePropertiesEPN2v87IsolateEP10objc_classNSt3__16vectorIPKNS_12PropertyMetaENS6_9allocatorISA_EEEENS1_5LocalINS1_6ObjectEEENSE_INS1_5ValueEEESI_EN3$_28__invokeEP7ffi_cifPvPSM_SM_', symObjAddr: 0x8CE4, symBinAddr: 0x6C2BC, symSize: 0x494 }
  - { offsetInCU: 0x3CF14, offset: 0x3FECF4, size: 0x8, addend: 0x0, symName: __ZZN3tns6Caches11unique_voidINS_12ClassBuilder9CacheItemEEENSt3__110unique_ptrIvPFvPKvEEEPT_ENUlS7_E_8__invokeES7_, symObjAddr: 0x9718, symBinAddr: 0x6C750, symSize: 0xC }
  - { offsetInCU: 0x3CF31, offset: 0x3FED11, size: 0x8, addend: 0x0, symName: __ZZN3tns6Caches11unique_voidINS_12ClassBuilder9CacheItemEEENSt3__110unique_ptrIvPFvPKvEEEPT_ENUlS7_E_8__invokeES7_, symObjAddr: 0x9718, symBinAddr: 0x6C750, symSize: 0xC }
  - { offsetInCU: 0x3D003, offset: 0x3FEDE3, size: 0x8, addend: 0x0, symName: __ZN10robin_hood6detail5TableILb1ELm80ENSt3__112basic_stringIcNS2_11char_traitsIcEENS2_9allocatorIcEEEENS2_10unique_ptrIN2v810PersistentINSA_6ObjectENSA_27NonCopyablePersistentTraitsISC_EEEENS2_14default_deleteISF_EEEENS_4hashIS8_vEENS2_8equal_toIS8_EEE13increase_sizeEv, symObjAddr: 0x9AE4, symBinAddr: 0x6C974, symSize: 0x12C }
  - { offsetInCU: 0x3D0C6, offset: 0x3FEEA6, size: 0x8, addend: 0x0, symName: __ZN10robin_hood6detail5TableILb1ELm80ENSt3__112basic_stringIcNS2_11char_traitsIcEENS2_9allocatorIcEEEENS2_10unique_ptrIN2v810PersistentINSA_6ObjectENSA_27NonCopyablePersistentTraitsISC_EEEENS2_14default_deleteISF_EEEENS_4hashIS8_vEENS2_8equal_toIS8_EEE7shiftUpEmm, symObjAddr: 0x9C10, symBinAddr: 0x6CAA0, symSize: 0x128 }
  - { offsetInCU: 0x3D3A6, offset: 0x3FF186, size: 0x8, addend: 0x0, symName: __ZN10robin_hood6detail5TableILb1ELm80ENSt3__112basic_stringIcNS2_11char_traitsIcEENS2_9allocatorIcEEEENS2_10unique_ptrIN2v810PersistentINSA_6ObjectENSA_27NonCopyablePersistentTraitsISC_EEEENS2_14default_deleteISF_EEEENS_4hashIS8_vEENS2_8equal_toIS8_EEE17try_increase_infoEv, symObjAddr: 0x9E04, symBinAddr: 0x6CC94, symSize: 0x100 }
  - { offsetInCU: 0x3D4A3, offset: 0x3FF283, size: 0x8, addend: 0x0, symName: __ZN10robin_hood6detail5TableILb1ELm80ENSt3__112basic_stringIcNS2_11char_traitsIcEENS2_9allocatorIcEEEENS2_10unique_ptrIN2v810PersistentINSA_6ObjectENSA_27NonCopyablePersistentTraitsISC_EEEENS2_14default_deleteISF_EEEENS_4hashIS8_vEENS2_8equal_toIS8_EEE8initDataEm, symObjAddr: 0x9D38, symBinAddr: 0x6CBC8, symSize: 0xCC }
  - { offsetInCU: 0x3D5B0, offset: 0x3FF390, size: 0x8, addend: 0x0, symName: __ZN10robin_hood6detail5TableILb1ELm80ENSt3__112basic_stringIcNS2_11char_traitsIcEENS2_9allocatorIcEEEENS2_10unique_ptrIN2v810PersistentINSA_6ObjectENSA_27NonCopyablePersistentTraitsISC_EEEENS2_14default_deleteISF_EEEENS_4hashIS8_vEENS2_8equal_toIS8_EEE17try_increase_infoEv, symObjAddr: 0x9E04, symBinAddr: 0x6CC94, symSize: 0x100 }
  - { offsetInCU: 0x3D5BB, offset: 0x3FF39B, size: 0x8, addend: 0x0, symName: __ZN10robin_hood6detail5TableILb1ELm80ENSt3__112basic_stringIcNS2_11char_traitsIcEENS2_9allocatorIcEEEENS2_10unique_ptrIN2v810PersistentINSA_6ObjectENSA_27NonCopyablePersistentTraitsISC_EEEENS2_14default_deleteISF_EEEENS_4hashIS8_vEENS2_8equal_toIS8_EEE16rehashPowerOfTwoEmb, symObjAddr: 0x9F04, symBinAddr: 0x6CD94, symSize: 0x110 }
  - { offsetInCU: 0x3D96B, offset: 0x3FF74B, size: 0x8, addend: 0x0, symName: __ZN10robin_hood6detail5TableILb1ELm80ENSt3__112basic_stringIcNS2_11char_traitsIcEENS2_9allocatorIcEEEENS2_10unique_ptrIN2v810PersistentINSA_6ObjectENSA_27NonCopyablePersistentTraitsISC_EEEENS2_14default_deleteISF_EEEENS_4hashIS8_vEENS2_8equal_toIS8_EEE11insert_moveEONSN_8DataNodeISN_Lb1EEE, symObjAddr: 0xA014, symBinAddr: 0x6CEA4, symSize: 0x174 }
  - { offsetInCU: 0x3E39F, offset: 0x40017F, size: 0x8, addend: 0x0, symName: __ZNKSt3__16vectorIPKN3tns12ProtocolMetaENS_9allocatorIS4_EEE20__throw_length_errorB8ue170006Ev, symObjAddr: 0xA5A0, symBinAddr: 0x6D018, symSize: 0x14 }
  - { offsetInCU: 0x3E8FF, offset: 0x4006DF, size: 0x8, addend: 0x0, symName: __ZNSt3__16vectorIPKN3tns12ProtocolMetaENS_9allocatorIS4_EEE11__vallocateB8ue170006Em, symObjAddr: 0xA768, symBinAddr: 0x6D0D8, symSize: 0x40 }
  - { offsetInCU: 0x3EC20, offset: 0x400A00, size: 0x8, addend: 0x0, symName: __ZNSt3__120__shared_ptr_emplaceIN2v810PersistentINS1_6ObjectENS1_27NonCopyablePersistentTraitsIS3_EEEENS_9allocatorIS6_EEEC2B8ue170006IJRPNS1_7IsolateERNS1_5LocalIS3_EEEEES8_DpOT_, symObjAddr: 0xA8D8, symBinAddr: 0x6D178, symSize: 0x68 }
  - { offsetInCU: 0x3F, offset: 0x401180, size: 0x8, addend: 0x0, symName: _RuntimeConfig, symObjAddr: 0x24D48, symBinAddr: 0x15B2080, symSize: 0x0 }
  - { offsetInCU: 0x4C39, offset: 0x405D7A, size: 0x8, addend: 0x0, symName: __ZN13RuntimeConfigD1Ev, symObjAddr: 0x0, symBinAddr: 0x6D1E0, symSize: 0x40 }
  - { offsetInCU: 0x4F45, offset: 0x406086, size: 0x8, addend: 0x0, symName: __GLOBAL__sub_I_RuntimeConfig.cpp, symObjAddr: 0x40, symBinAddr: 0x6D220, symSize: 0x28 }
  - { offsetInCU: 0x4F5D, offset: 0x40609E, size: 0x8, addend: 0x0, symName: __GLOBAL__sub_I_RuntimeConfig.cpp, symObjAddr: 0x40, symBinAddr: 0x6D220, symSize: 0x28 }
  - { offsetInCU: 0x53, offset: 0x406173, size: 0x8, addend: 0x0, symName: __ZN3tns13WorkerWrapper7nextId_E, symObjAddr: 0x227D28, symBinAddr: 0x15B20C0, symSize: 0x0 }
  - { offsetInCU: 0x514, offset: 0x406634, size: 0x8, addend: 0x0, symName: __ZN3tnsL8workers_E, symObjAddr: 0x227D20, symBinAddr: 0x159D0C8, symSize: 0x0 }
  - { offsetInCU: 0xACC, offset: 0x406BEC, size: 0x8, addend: 0x0, symName: __ZN3tns16staticInitMethodEv, symObjAddr: 0x0, symBinAddr: 0x6D248, symSize: 0x28 }
  - { offsetInCU: 0x10CDB, offset: 0x416DFB, size: 0x8, addend: 0x0, symName: __ZN3tns13WorkerWrapper37PassUncaughtExceptionFromWorkerToMainEN2v85LocalINS1_7ContextEEERNS1_8TryCatchEb, symObjAddr: 0xB50, symBinAddr: 0x6DD30, symSize: 0x444 }
  - { offsetInCU: 0x14850, offset: 0x41A970, size: 0x8, addend: 0x0, symName: __ZN3tns13WorkerWrapperC2EPN2v87IsolateENSt3__18functionIFvS3_NS1_5LocalINS1_6ObjectEEENS4_10shared_ptrINS_6worker7MessageEEEEEE, symObjAddr: 0x28, symBinAddr: 0x6D270, symSize: 0x8C }
  - { offsetInCU: 0x149D2, offset: 0x41AAF2, size: 0x8, addend: 0x0, symName: __ZNSt3__110__function12__value_funcIFvPN2v87IsolateENS2_5LocalINS2_6ObjectEEENS_10shared_ptrIN3tns6worker7MessageEEEEEC2B8ue170006ERKSE_, symObjAddr: 0x1A8C, symBinAddr: 0x6E868, symSize: 0x64 }
  - { offsetInCU: 0x14A57, offset: 0x41AB77, size: 0x8, addend: 0x0, symName: __ZN3tns13WorkerWrapperC1EPN2v87IsolateENSt3__18functionIFvS3_NS1_5LocalINS1_6ObjectEEENS4_10shared_ptrINS_6worker7MessageEEEEEE, symObjAddr: 0xB4, symBinAddr: 0x6D2FC, symSize: 0x8C }
  - { offsetInCU: 0x14C1E, offset: 0x41AD3E, size: 0x8, addend: 0x0, symName: __ZN3tns13WorkerWrapper4TypeEv, symObjAddr: 0x140, symBinAddr: 0x6D388, symSize: 0x8 }
  - { offsetInCU: 0x14C43, offset: 0x41AD63, size: 0x8, addend: 0x0, symName: __ZN3tns13WorkerWrapper2IdEv, symObjAddr: 0x148, symBinAddr: 0x6D390, symSize: 0x8 }
  - { offsetInCU: 0x14C6C, offset: 0x41AD8C, size: 0x8, addend: 0x0, symName: __ZN3tns13WorkerWrapper9IsRunningEv, symObjAddr: 0x150, symBinAddr: 0x6D398, symSize: 0x8 }
  - { offsetInCU: 0x14C95, offset: 0x41ADB5, size: 0x8, addend: 0x0, symName: __ZN3tns13WorkerWrapper9IsClosingEv, symObjAddr: 0x158, symBinAddr: 0x6D3A0, symSize: 0x8 }
  - { offsetInCU: 0x14CBE, offset: 0x41ADDE, size: 0x8, addend: 0x0, symName: __ZN3tns13WorkerWrapper8WorkerIdEv, symObjAddr: 0x160, symBinAddr: 0x6D3A8, symSize: 0x8 }
  - { offsetInCU: 0x14E0D, offset: 0x41AF2D, size: 0x8, addend: 0x0, symName: __ZN3tns13WorkerWrapper11PostMessageENSt3__110shared_ptrINS_6worker7MessageEEE, symObjAddr: 0x168, symBinAddr: 0x6D3B0, symSize: 0x94 }
  - { offsetInCU: 0x15178, offset: 0x41B298, size: 0x8, addend: 0x0, symName: __ZN3tns13WorkerWrapper5StartENSt3__110shared_ptrIN2v810PersistentINS3_5ValueENS3_27NonCopyablePersistentTraitsIS5_EEEEEENS1_8functionIFPNS3_7IsolateEvEEE, symObjAddr: 0x1FC, symBinAddr: 0x6D444, symSize: 0x14C }
  - { offsetInCU: 0x15494, offset: 0x41B5B4, size: 0x8, addend: 0x0, symName: __ZNSt3__110__function12__value_funcIFPN2v87IsolateEvEEC2B8ue170006ERKS6_, symObjAddr: 0x1B40, symBinAddr: 0x6E8CC, symSize: 0x64 }
  - { offsetInCU: 0x15595, offset: 0x41B6B5, size: 0x8, addend: 0x0, symName: ____ZN3tns13WorkerWrapper5StartENSt3__110shared_ptrIN2v810PersistentINS3_5ValueENS3_27NonCopyablePersistentTraitsIS5_EEEEEENS1_8functionIFPNS3_7IsolateEvEEE_block_invoke, symObjAddr: 0x3B0, symBinAddr: 0x6D590, symSize: 0xD0 }
  - { offsetInCU: 0x15768, offset: 0x41B888, size: 0x8, addend: 0x0, symName: __ZN3tns13WorkerWrapper16BackgroundLooperENSt3__18functionIFPN2v87IsolateEvEEE, symObjAddr: 0x480, symBinAddr: 0x6D660, symSize: 0xA0 }
  - { offsetInCU: 0x158E5, offset: 0x41BA05, size: 0x8, addend: 0x0, symName: ___copy_helper_block_e8_40c40_ZTSNSt3__18functionIFPN2v87IsolateEvEEE, symObjAddr: 0x520, symBinAddr: 0x6D700, symSize: 0xC }
  - { offsetInCU: 0x15964, offset: 0x41BA84, size: 0x8, addend: 0x0, symName: __ZN3tns13WorkerWrapper17DrainPendingTasksEv, symObjAddr: 0x560, symBinAddr: 0x6D740, symSize: 0x2E4 }
  - { offsetInCU: 0x162B2, offset: 0x41C3D2, size: 0x8, addend: 0x0, symName: ___copy_helper_block_e8_40c40_ZTSNSt3__18functionIFPN2v87IsolateEvEEE, symObjAddr: 0x520, symBinAddr: 0x6D700, symSize: 0xC }
  - { offsetInCU: 0x16353, offset: 0x41C473, size: 0x8, addend: 0x0, symName: ___destroy_helper_block_e8_40c40_ZTSNSt3__18functionIFPN2v87IsolateEvEEE, symObjAddr: 0x52C, symBinAddr: 0x6D70C, symSize: 0x34 }
  - { offsetInCU: 0x1669A, offset: 0x41C7BA, size: 0x8, addend: 0x0, symName: __ZNKSt3__18functionIFvPN2v87IsolateENS1_5LocalINS1_6ObjectEEENS_10shared_ptrIN3tns6worker7MessageEEEEEclES3_S6_SB_, symObjAddr: 0x844, symBinAddr: 0x6DA24, symSize: 0x3C }
  - { offsetInCU: 0x16729, offset: 0x41C849, size: 0x8, addend: 0x0, symName: __ZN3tns13WorkerWrapper19CallOnErrorHandlersERN2v88TryCatchE, symObjAddr: 0x880, symBinAddr: 0x6DA60, symSize: 0x280 }
  - { offsetInCU: 0x16734, offset: 0x41C854, size: 0x8, addend: 0x0, symName: __ZN3tns13WorkerWrapper19CallOnErrorHandlersERN2v88TryCatchE, symObjAddr: 0x880, symBinAddr: 0x6DA60, symSize: 0x280 }
  - { offsetInCU: 0x16E98, offset: 0x41CFB8, size: 0x8, addend: 0x0, symName: __ZNSt3__16vectorINS_10shared_ptrIN3tns6worker7MessageEEENS_9allocatorIS5_EEE16__destroy_vectorclB8ue170006Ev, symObjAddr: 0x1BA4, symBinAddr: 0x6E930, symSize: 0x70 }
  - { offsetInCU: 0x174B7, offset: 0x41D5D7, size: 0x8, addend: 0x0, symName: '__ZNSt3__110__function6__funcIZN3tns13WorkerWrapper37PassUncaughtExceptionFromWorkerToMainEN2v85LocalINS4_7ContextEEERNS4_8TryCatchEbE3$_1NS_9allocatorISA_EEFvvEED1Ev', symObjAddr: 0x1D00, symBinAddr: 0x6E9A0, symSize: 0x5C }
  - { offsetInCU: 0x174C8, offset: 0x41D5E8, size: 0x8, addend: 0x0, symName: __ZN3tns13WorkerWrapper5CloseEv, symObjAddr: 0xB00, symBinAddr: 0x6DCE0, symSize: 0xC }
  - { offsetInCU: 0x17527, offset: 0x41D647, size: 0x8, addend: 0x0, symName: __ZN3tns13WorkerWrapper9TerminateEv, symObjAddr: 0xB0C, symBinAddr: 0x6DCEC, symSize: 0x44 }
  - { offsetInCU: 0x17F4B, offset: 0x41E06B, size: 0x8, addend: 0x0, symName: '__ZZN3tns13WorkerWrapper37PassUncaughtExceptionFromWorkerToMainEN2v85LocalINS1_7ContextEEERNS1_8TryCatchEbEN3$_1D1Ev', symObjAddr: 0x1050, symBinAddr: 0x6E174, symSize: 0x50 }
  - { offsetInCU: 0x18600, offset: 0x41E720, size: 0x8, addend: 0x0, symName: __ZN3tns13WorkerWrapper20ConstructErrorObjectEN2v85LocalINS1_7ContextEEENSt3__112basic_stringIcNS5_11char_traitsIcEENS5_9allocatorIcEEEESB_SB_i, symObjAddr: 0x10A0, symBinAddr: 0x6E1C4, symSize: 0x440 }
  - { offsetInCU: 0x19943, offset: 0x41FA63, size: 0x8, addend: 0x0, symName: __ZN3tns13WorkerWrapperD1Ev, symObjAddr: 0x14E0, symBinAddr: 0x6E604, symSize: 0x80 }
  - { offsetInCU: 0x19AD0, offset: 0x41FBF0, size: 0x8, addend: 0x0, symName: __ZNSt3__15dequeINS_10shared_ptrIN3tns6worker7MessageEEENS_9allocatorIS5_EEED2B8ue170006Ev, symObjAddr: 0x1810, symBinAddr: 0x6E708, symSize: 0x114 }
  - { offsetInCU: 0x19F25, offset: 0x420045, size: 0x8, addend: 0x0, symName: __ZN3tns13WorkerWrapperD0Ev, symObjAddr: 0x1560, symBinAddr: 0x6E684, symSize: 0x80 }
  - { offsetInCU: 0x1A3C5, offset: 0x4204E5, size: 0x8, addend: 0x0, symName: '__ZZN3tns13WorkerWrapper16BackgroundLooperENSt3__18functionIFPN2v87IsolateEvEEEEN3$_08__invokeEPv', symObjAddr: 0x16EC, symBinAddr: 0x6E704, symSize: 0x4 }
  - { offsetInCU: 0x1A3EE, offset: 0x42050E, size: 0x8, addend: 0x0, symName: '__ZZN3tns13WorkerWrapper16BackgroundLooperENSt3__18functionIFPN2v87IsolateEvEEEEN3$_08__invokeEPv', symObjAddr: 0x16EC, symBinAddr: 0x6E704, symSize: 0x4 }
  - { offsetInCU: 0x1A412, offset: 0x420532, size: 0x8, addend: 0x0, symName: '__ZZN3tns13WorkerWrapper16BackgroundLooperENSt3__18functionIFPN2v87IsolateEvEEEEN3$_08__invokeEPv', symObjAddr: 0x16EC, symBinAddr: 0x6E704, symSize: 0x4 }
  - { offsetInCU: 0x1A86F, offset: 0x42098F, size: 0x8, addend: 0x0, symName: __ZNSt3__114__split_bufferIPNS_10shared_ptrIN3tns6worker7MessageEEENS_9allocatorIS6_EEED2Ev, symObjAddr: 0x1924, symBinAddr: 0x6E81C, symSize: 0x4C }
  - { offsetInCU: 0x1ABC3, offset: 0x420CE3, size: 0x8, addend: 0x0, symName: '__ZNSt3__110__function6__funcIZN3tns13WorkerWrapper37PassUncaughtExceptionFromWorkerToMainEN2v85LocalINS4_7ContextEEERNS4_8TryCatchEbE3$_1NS_9allocatorISA_EEFvvEED1Ev', symObjAddr: 0x1D00, symBinAddr: 0x6E9A0, symSize: 0x5C }
  - { offsetInCU: 0x1B073, offset: 0x421193, size: 0x8, addend: 0x0, symName: '__ZNSt3__110__function6__funcIZN3tns13WorkerWrapper37PassUncaughtExceptionFromWorkerToMainEN2v85LocalINS4_7ContextEEERNS4_8TryCatchEbE3$_1NS_9allocatorISA_EEFvvEED0Ev', symObjAddr: 0x1D5C, symBinAddr: 0x6E9FC, symSize: 0x5C }
  - { offsetInCU: 0x1B7AA, offset: 0x4218CA, size: 0x8, addend: 0x0, symName: '__ZNKSt3__110__function6__funcIZN3tns13WorkerWrapper37PassUncaughtExceptionFromWorkerToMainEN2v85LocalINS4_7ContextEEERNS4_8TryCatchEbE3$_1NS_9allocatorISA_EEFvvEE7__cloneEv', symObjAddr: 0x1DB8, symBinAddr: 0x6EA58, symSize: 0x54 }
  - { offsetInCU: 0x1BA37, offset: 0x421B57, size: 0x8, addend: 0x0, symName: '__ZNSt3__122__compressed_pair_elemIZN3tns13WorkerWrapper37PassUncaughtExceptionFromWorkerToMainEN2v85LocalINS3_7ContextEEERNS3_8TryCatchEbE3$_1Li0ELb0EEC2B8ue170006IJRKS9_EJLm0EEEENS_21piecewise_construct_tENS_5tupleIJDpT_EEENS_15__tuple_indicesIJXspT0_EEEE', symObjAddr: 0x22E0, symBinAddr: 0x6EF80, symSize: 0xFC }
  - { offsetInCU: 0x1BFAF, offset: 0x4220CF, size: 0x8, addend: 0x0, symName: '__ZNKSt3__110__function6__funcIZN3tns13WorkerWrapper37PassUncaughtExceptionFromWorkerToMainEN2v85LocalINS4_7ContextEEERNS4_8TryCatchEbE3$_1NS_9allocatorISA_EEFvvEE7__cloneEPNS0_6__baseISD_EE', symObjAddr: 0x1E0C, symBinAddr: 0x6EAAC, symSize: 0x1C }
  - { offsetInCU: 0x1C0F8, offset: 0x422218, size: 0x8, addend: 0x0, symName: '__ZNSt3__110__function6__funcIZN3tns13WorkerWrapper37PassUncaughtExceptionFromWorkerToMainEN2v85LocalINS4_7ContextEEERNS4_8TryCatchEbE3$_1NS_9allocatorISA_EEFvvEE7destroyEv', symObjAddr: 0x1E28, symBinAddr: 0x6EAC8, symSize: 0x8 }
  - { offsetInCU: 0x1C12E, offset: 0x42224E, size: 0x8, addend: 0x0, symName: '__ZNSt3__110__function12__alloc_funcIZN3tns13WorkerWrapper37PassUncaughtExceptionFromWorkerToMainEN2v85LocalINS4_7ContextEEERNS4_8TryCatchEbE3$_1NS_9allocatorISA_EEFvvEE7destroyB8ue170006Ev', symObjAddr: 0x23DC, symBinAddr: 0x6F07C, symSize: 0x54 }
  - { offsetInCU: 0x1C50A, offset: 0x42262A, size: 0x8, addend: 0x0, symName: '__ZNSt3__110__function6__funcIZN3tns13WorkerWrapper37PassUncaughtExceptionFromWorkerToMainEN2v85LocalINS4_7ContextEEERNS4_8TryCatchEbE3$_1NS_9allocatorISA_EEFvvEE18destroy_deallocateEv', symObjAddr: 0x1E30, symBinAddr: 0x6EAD0, symSize: 0x28 }
  - { offsetInCU: 0x1C804, offset: 0x422924, size: 0x8, addend: 0x0, symName: '__ZNSt3__110__function6__funcIZN3tns13WorkerWrapper37PassUncaughtExceptionFromWorkerToMainEN2v85LocalINS4_7ContextEEERNS4_8TryCatchEbE3$_1NS_9allocatorISA_EEFvvEEclEv', symObjAddr: 0x1E58, symBinAddr: 0x6EAF8, symSize: 0x488 }
  - { offsetInCU: 0x11B8B, offset: 0x43591D, size: 0x8, addend: 0x0, symName: '-[NSDataAdapter initWithJSObject:isolate:]', symObjAddr: 0x0, symBinAddr: 0x6F0D0, symSize: 0x278 }
  - { offsetInCU: 0x124C4, offset: 0x436256, size: 0x8, addend: 0x0, symName: __ZN10robin_hood6detail5TableILb1ELm80EP11objc_objectNSt3__110shared_ptrIN2v810PersistentINS6_5ValueENS6_27NonCopyablePersistentTraitsIS8_EEEEEENS_4hashIS3_vEENS4_8equal_toIS3_EEE7emplaceIJRP13NSDataAdapterRSC_EEENS4_4pairINSH_4IterILb0EEEbEEDpOT_, symObjAddr: 0x2D4, symBinAddr: 0x6F348, symSize: 0x138 }
  - { offsetInCU: 0x12F69, offset: 0x436CFB, size: 0x8, addend: 0x0, symName: '-[NSDataAdapter bytes]', symObjAddr: 0x40C, symBinAddr: 0x6F480, symSize: 0x4 }
  - { offsetInCU: 0x1306B, offset: 0x436DFD, size: 0x8, addend: 0x0, symName: '-[NSDataAdapter mutableBytes]', symObjAddr: 0x410, symBinAddr: 0x6F484, symSize: 0x13C }
  - { offsetInCU: 0x13263, offset: 0x436FF5, size: 0x8, addend: 0x0, symName: '-[NSDataAdapter length]', symObjAddr: 0x54C, symBinAddr: 0x6F5C0, symSize: 0x90 }
  - { offsetInCU: 0x134B9, offset: 0x43724B, size: 0x8, addend: 0x0, symName: '-[NSDataAdapter dealloc]', symObjAddr: 0x5DC, symBinAddr: 0x6F650, symSize: 0x27C }
  - { offsetInCU: 0x13CF9, offset: 0x437A8B, size: 0x8, addend: 0x0, symName: '-[NSDataAdapter .cxx_destruct]', symObjAddr: 0x91C, symBinAddr: 0x6F8CC, symSize: 0x10 }
  - { offsetInCU: 0x13D89, offset: 0x437B1B, size: 0x8, addend: 0x0, symName: '-[NSDataAdapter .cxx_construct]', symObjAddr: 0x92C, symBinAddr: 0x6F8DC, symSize: 0x14 }
  - { offsetInCU: 0x27, offset: 0x438924, size: 0x8, addend: 0x0, symName: __ZN3tns11DisposerPHV21VisitPersistentHandleEPN2v810PersistentINS1_5ValueENS1_27NonCopyablePersistentTraitsIS3_EEEEt, symObjAddr: 0x0, symBinAddr: 0x6F8F0, symSize: 0x118 }
  - { offsetInCU: 0x4F0B, offset: 0x43D808, size: 0x8, addend: 0x0, symName: __ZN3tns11DisposerPHV21VisitPersistentHandleEPN2v810PersistentINS1_5ValueENS1_27NonCopyablePersistentTraitsIS3_EEEEt, symObjAddr: 0x0, symBinAddr: 0x6F8F0, symSize: 0x118 }
  - { offsetInCU: 0x521C, offset: 0x43DB19, size: 0x8, addend: 0x0, symName: __ZN3tns11DisposerPHVD1Ev, symObjAddr: 0x118, symBinAddr: 0x6FA08, symSize: 0x4 }
  - { offsetInCU: 0x5245, offset: 0x43DB42, size: 0x8, addend: 0x0, symName: __ZN3tns11DisposerPHVD0Ev, symObjAddr: 0x11C, symBinAddr: 0x6FA0C, symSize: 0x4 }
  - { offsetInCU: 0x8DF1, offset: 0x4469B0, size: 0x8, addend: 0x0, symName: __ZN3tns9inspector21NSInMemoryTraceWriter16AppendTraceEventEPN2v88platform7tracing11TraceObjectE, symObjAddr: 0x0, symBinAddr: 0x6FA10, symSize: 0x68 }
  - { offsetInCU: 0x8EC9, offset: 0x446A88, size: 0x8, addend: 0x0, symName: __ZN3tns9inspector21NSInMemoryTraceWriter5FlushEv, symObjAddr: 0x68, symBinAddr: 0x6FA78, symSize: 0x18 }
  - { offsetInCU: 0x8EF5, offset: 0x446AB4, size: 0x8, addend: 0x0, symName: __ZN3tns9inspector21NSInMemoryTraceWriter5FlushEv, symObjAddr: 0x68, symBinAddr: 0x6FA78, symSize: 0x18 }
  - { offsetInCU: 0x90A0, offset: 0x446C5F, size: 0x8, addend: 0x0, symName: __ZN3tns9inspector21NSInMemoryTraceWriter8getTraceEv, symObjAddr: 0x80, symBinAddr: 0x6FA90, symSize: 0x104 }
  - { offsetInCU: 0x9819, offset: 0x4473D8, size: 0x8, addend: 0x0, symName: __ZNSt3__115basic_stringbufIcNS_11char_traitsIcEENS_9allocatorIcEEE15__init_buf_ptrsB8ue170006Ev, symObjAddr: 0x11A4, symBinAddr: 0x70188, symSize: 0x110 }
  - { offsetInCU: 0x9B81, offset: 0x447740, size: 0x8, addend: 0x0, symName: __ZN3tns9inspector16TracingAgentImplC2Ev, symObjAddr: 0x184, symBinAddr: 0x6FB94, symSize: 0xC4 }
  - { offsetInCU: 0x9EE5, offset: 0x447AA4, size: 0x8, addend: 0x0, symName: __ZN3tns9inspector16TracingAgentImplC1Ev, symObjAddr: 0x248, symBinAddr: 0x6FC58, symSize: 0x4 }
  - { offsetInCU: 0x9F13, offset: 0x447AD2, size: 0x8, addend: 0x0, symName: __ZN3tns9inspector16TracingAgentImplC1Ev, symObjAddr: 0x248, symBinAddr: 0x6FC58, symSize: 0x4 }
  - { offsetInCU: 0xA06A, offset: 0x447C29, size: 0x8, addend: 0x0, symName: __ZN3tns9inspector16TracingAgentImpl5startEv, symObjAddr: 0x24C, symBinAddr: 0x6FC5C, symSize: 0xB8 }
  - { offsetInCU: 0xA27C, offset: 0x447E3B, size: 0x8, addend: 0x0, symName: __ZN3tns9inspector16TracingAgentImpl3endEv, symObjAddr: 0x304, symBinAddr: 0x6FD14, symSize: 0x80 }
  - { offsetInCU: 0xA610, offset: 0x4481CF, size: 0x8, addend: 0x0, symName: __ZN3tns9inspector16TracingAgentImpl14SendToDevtoolsEN2v85LocalINS2_7ContextEEENSt3__112basic_stringIcNS6_11char_traitsIcEENS6_9allocatorIcEEEE, symObjAddr: 0x384, symBinAddr: 0x6FD94, symSize: 0x27C }
  - { offsetInCU: 0xB1A0, offset: 0x448D5F, size: 0x8, addend: 0x0, symName: __ZN3tns9inspector21NSInMemoryTraceWriterD1Ev, symObjAddr: 0x600, symBinAddr: 0x70010, symSize: 0xBC }
  - { offsetInCU: 0xB425, offset: 0x448FE4, size: 0x8, addend: 0x0, symName: __ZN3tns9inspector21NSInMemoryTraceWriterD0Ev, symObjAddr: 0x6BC, symBinAddr: 0x700CC, symSize: 0xBC }
  - { offsetInCU: 0xBC51, offset: 0x449810, size: 0x8, addend: 0x0, symName: __ZNSt3__115basic_stringbufIcNS_11char_traitsIcEENS_9allocatorIcEEE15__init_buf_ptrsB8ue170006Ev, symObjAddr: 0x11A4, symBinAddr: 0x70188, symSize: 0x110 }
  - { offsetInCU: 0x43, offset: 0x449904, size: 0x8, addend: 0x0, symName: __ZN12_GLOBAL__N_16BufferE, symObjAddr: 0x2BCD68, symBinAddr: 0x159D0D0, symSize: 0x0 }
  - { offsetInCU: 0x5C, offset: 0x44991D, size: 0x8, addend: 0x0, symName: __ZN12_GLOBAL__N_19BinBufferE, symObjAddr: 0x2BCD70, symBinAddr: 0x159D0D8, symSize: 0x0 }
  - { offsetInCU: 0x10B83, offset: 0x45A444, size: 0x8, addend: 0x0, symName: __ZNSt3__116__throw_bad_castB8ue170006Ev, symObjAddr: 0x4BA8, symBinAddr: 0x74B68, symSize: 0x28 }
  - { offsetInCU: 0x10F87, offset: 0x45A848, size: 0x8, addend: 0x0, symName: __ZNSt3__119__throw_range_errorB8ue170006EPKc, symObjAddr: 0x5A68, symBinAddr: 0x75078, symSize: 0x50 }
  - { offsetInCU: 0x110EF, offset: 0x45A9B0, size: 0x8, addend: 0x0, symName: __ZNSt3__119__allocate_at_leastB8ue170006INS_9allocatorIDsEEEENS_19__allocation_resultINS_16allocator_traitsIT_E7pointerEEERS5_m, symObjAddr: 0x5B5C, symBinAddr: 0x7516C, symSize: 0x30 }
  - { offsetInCU: 0x1118D, offset: 0x45AA4E, size: 0x8, addend: 0x0, symName: __ZNSt3__112basic_stringIDsNS_11char_traitsIDsEENS_9allocatorIDsEEE6resizeEmDs, symObjAddr: 0x5B8C, symBinAddr: 0x7519C, symSize: 0x44 }
  - { offsetInCU: 0x119D9, offset: 0x45B29A, size: 0x8, addend: 0x0, symName: __ZNSt3__119__allocate_at_leastB8ue170006INS_9allocatorItEEEENS_19__allocation_resultINS_16allocator_traitsIT_E7pointerEEERS5_m, symObjAddr: 0x61A0, symBinAddr: 0x757B0, symSize: 0x30 }
  - { offsetInCU: 0x11A77, offset: 0x45B338, size: 0x8, addend: 0x0, symName: __ZNSt3__113basic_filebufIcNS_11char_traitsIcEEEC2Ev, symObjAddr: 0x61D0, symBinAddr: 0x757E0, symSize: 0x12C }
  - { offsetInCU: 0x12A7A, offset: 0x45C33B, size: 0x8, addend: 0x0, symName: __ZN3tns13ToUtf16StringEPN2v87IsolateERKNS0_5LocalINS0_5ValueEEE, symObjAddr: 0x0, symBinAddr: 0x70298, symSize: 0x130 }
  - { offsetInCU: 0x130B9, offset: 0x45C97A, size: 0x8, addend: 0x0, symName: __ZN3tns8ToVectorERKNSt3__112basic_stringIcNS0_11char_traitsIcEENS0_9allocatorIcEEEE, symObjAddr: 0x1EC, symBinAddr: 0x703C8, symSize: 0x158 }
  - { offsetInCU: 0x1368B, offset: 0x45CF4C, size: 0x8, addend: 0x0, symName: __ZN3tns6ExistsEPKc, symObjAddr: 0x344, symBinAddr: 0x70520, symSize: 0x30 }
  - { offsetInCU: 0x136EA, offset: 0x45CFAB, size: 0x8, addend: 0x0, symName: __ZN3tns10ReadModuleEPN2v87IsolateERKNSt3__112basic_stringIcNS3_11char_traitsIcEENS3_9allocatorIcEEEE, symObjAddr: 0x374, symBinAddr: 0x70550, symSize: 0x124 }
  - { offsetInCU: 0x13AE1, offset: 0x45D3A2, size: 0x8, addend: 0x0, symName: __ZN3tns6AssertEbPN2v87IsolateERKNSt3__112basic_stringIcNS3_11char_traitsIcEENS3_9allocatorIcEEEE, symObjAddr: 0x498, symBinAddr: 0x70674, symSize: 0x168 }
  - { offsetInCU: 0x14170, offset: 0x45DA31, size: 0x8, addend: 0x0, symName: __ZN3tns12LogBacktraceEi, symObjAddr: 0x2030, symBinAddr: 0x72178, symSize: 0x1C8 }
  - { offsetInCU: 0x14295, offset: 0x45DB56, size: 0x8, addend: 0x0, symName: __ZN3tns13GetStackTraceEPN2v87IsolateE, symObjAddr: 0x2840, symBinAddr: 0x72988, symSize: 0x1FC }
  - { offsetInCU: 0x14835, offset: 0x45E0F6, size: 0x8, addend: 0x0, symName: __ZN3tns8ReadTextERKNSt3__112basic_stringIcNS0_11char_traitsIcEENS0_9allocatorIcEEEERlRb, symObjAddr: 0x600, symBinAddr: 0x707DC, symSize: 0x120 }
  - { offsetInCU: 0x14C10, offset: 0x45E4D1, size: 0x8, addend: 0x0, symName: __ZN3tns8ReadTextERKNSt3__112basic_stringIcNS0_11char_traitsIcEENS0_9allocatorIcEEEE, symObjAddr: 0x720, symBinAddr: 0x708FC, symSize: 0x64 }
  - { offsetInCU: 0x14CBE, offset: 0x45E57F, size: 0x8, addend: 0x0, symName: __ZN3tns10ReadBinaryENSt3__112basic_stringIcNS0_11char_traitsIcEENS0_9allocatorIcEEEERlRb, symObjAddr: 0x784, symBinAddr: 0x70960, symSize: 0x1B0 }
  - { offsetInCU: 0x14E9D, offset: 0x45E75E, size: 0x8, addend: 0x0, symName: __ZN3tns11WriteBinaryERKNSt3__112basic_stringIcNS0_11char_traitsIcEENS0_9allocatorIcEEEEPKvl, symObjAddr: 0xA9C, symBinAddr: 0x70C78, symSize: 0x74 }
  - { offsetInCU: 0x14F87, offset: 0x45E848, size: 0x8, addend: 0x0, symName: __ZN3tns15SetPrivateValueERKN2v85LocalINS0_6ObjectEEERKNS1_INS0_6StringEEERKNS1_INS0_5ValueEEE, symObjAddr: 0xB10, symBinAddr: 0x70CEC, symSize: 0xF8 }
  - { offsetInCU: 0x15399, offset: 0x45EC5A, size: 0x8, addend: 0x0, symName: __ZN3tns15GetPrivateValueERKN2v85LocalINS0_6ObjectEEERKNS1_INS0_6StringEEE, symObjAddr: 0xC08, symBinAddr: 0x70DE4, symSize: 0x184 }
  - { offsetInCU: 0x15AFF, offset: 0x45F3C0, size: 0x8, addend: 0x0, symName: __ZN3tns21DeleteWrapperIfUnusedEPN2v87IsolateERKNS0_5LocalINS0_5ValueEEEPNS_15BaseDataWrapperE, symObjAddr: 0xD8C, symBinAddr: 0x70F68, symSize: 0x48 }
  - { offsetInCU: 0x15B64, offset: 0x45F425, size: 0x8, addend: 0x0, symName: __ZN3tns8GetValueEPN2v87IsolateERKNS0_5LocalINS0_5ValueEEE, symObjAddr: 0xDD4, symBinAddr: 0x70FB0, symSize: 0x1E4 }
  - { offsetInCU: 0x164BC, offset: 0x45FD7D, size: 0x8, addend: 0x0, symName: __ZN3tns8SetValueEPN2v87IsolateERKNS0_5LocalINS0_6ObjectEEEPNS_15BaseDataWrapperE, symObjAddr: 0xFB8, symBinAddr: 0x71194, symSize: 0x13C }
  - { offsetInCU: 0x16A3B, offset: 0x4602FC, size: 0x8, addend: 0x0, symName: __ZN3tns11DeleteValueEPN2v87IsolateERKNS0_5LocalINS0_5ValueEEE, symObjAddr: 0x10F4, symBinAddr: 0x712D0, symSize: 0x1F8 }
  - { offsetInCU: 0x1737B, offset: 0x460C3C, size: 0x8, addend: 0x0, symName: __ZN3tns12ArgsToVectorERKN2v820FunctionCallbackInfoINS0_5ValueEEE, symObjAddr: 0x12EC, symBinAddr: 0x714C8, symSize: 0x150 }
  - { offsetInCU: 0x17984, offset: 0x461245, size: 0x8, addend: 0x0, symName: __ZN3tns18IsArrayOrArrayLikeEPN2v87IsolateERKNS0_5LocalINS0_5ValueEEE, symObjAddr: 0x14D0, symBinAddr: 0x71618, symSize: 0x138 }
  - { offsetInCU: 0x17E18, offset: 0x4616D9, size: 0x8, addend: 0x0, symName: __ZN3tns27TryGetBufferFromArrayBufferERKN2v85LocalINS0_5ValueEEERb, symObjAddr: 0x1608, symBinAddr: 0x71750, symSize: 0xEC }
  - { offsetInCU: 0x18003, offset: 0x4618C4, size: 0x8, addend: 0x0, symName: __ZN3tns16ExecuteOnRunLoopEP11__CFRunLoopNSt3__18functionIFvvEEEb, symObjAddr: 0x16F4, symBinAddr: 0x7183C, symSize: 0x2FC }
  - { offsetInCU: 0x1844C, offset: 0x461D0D, size: 0x8, addend: 0x0, symName: __ZN3tns22ExecuteOnDispatchQueueEPU28objcproto17OS_dispatch_queue8NSObjectNSt3__18functionIFvvEEEb, symObjAddr: 0x1B68, symBinAddr: 0x71CB0, symSize: 0x110 }
  - { offsetInCU: 0x18697, offset: 0x461F58, size: 0x8, addend: 0x0, symName: __ZN3tns19ExecuteOnMainThreadENSt3__18functionIFvvEEEb, symObjAddr: 0x1CC0, symBinAddr: 0x71E08, symSize: 0x120 }
  - { offsetInCU: 0x188D2, offset: 0x462193, size: 0x8, addend: 0x0, symName: __ZN3tns8LogErrorEPN2v87IsolateERNS0_8TryCatchE, symObjAddr: 0x1E28, symBinAddr: 0x71F70, symSize: 0x208 }
  - { offsetInCU: 0x196B4, offset: 0x462F75, size: 0x8, addend: 0x0, symName: __ZN3tns10ReplaceAllENSt3__112basic_stringIcNS0_11char_traitsIcEENS0_9allocatorIcEEEES6_S6_, symObjAddr: 0x21F8, symBinAddr: 0x72340, symSize: 0x220 }
  - { offsetInCU: 0x19D63, offset: 0x463624, size: 0x8, addend: 0x0, symName: __ZN3tns19JsonStringifyObjectEN2v85LocalINS0_7ContextEEENS1_INS0_5ValueEEEb, symObjAddr: 0x2418, symBinAddr: 0x72560, symSize: 0x1AC }
  - { offsetInCU: 0x19FAC, offset: 0x46386D, size: 0x8, addend: 0x0, symName: __ZN3tns29GetSmartJSONStringifyFunctionEPN2v87IsolateE, symObjAddr: 0x25C4, symBinAddr: 0x7270C, symSize: 0x27C }
  - { offsetInCU: 0x1AB0D, offset: 0x4643CE, size: 0x8, addend: 0x0, symName: __ZN3tns27BuildStacktraceFrameMessageEPN2v87IsolateENS0_5LocalINS0_10StackFrameEEE, symObjAddr: 0x2B24, symBinAddr: 0x72B84, symSize: 0x378 }
  - { offsetInCU: 0x1B53D, offset: 0x464DFE, size: 0x8, addend: 0x0, symName: __ZN3tns32BuildStacktraceFrameLocationPartEPN2v87IsolateENS0_5LocalINS0_10StackFrameEEE, symObjAddr: 0x2FAC, symBinAddr: 0x72F78, symSize: 0x2D4 }
  - { offsetInCU: 0x1C5B7, offset: 0x465E78, size: 0x8, addend: 0x0, symName: __ZN3tns19GetCurrentScriptUrlEPN2v87IsolateE, symObjAddr: 0x2F30, symBinAddr: 0x72EFC, symSize: 0x7C }
  - { offsetInCU: 0x1C666, offset: 0x465F27, size: 0x8, addend: 0x0, symName: __ZN3tns8LiveSyncEPN2v87IsolateE, symObjAddr: 0x3280, symBinAddr: 0x7324C, symSize: 0x25C }
  - { offsetInCU: 0x1CD77, offset: 0x466638, size: 0x8, addend: 0x0, symName: __ZN3tns29StopExecutionAndLogStackTraceEPN2v87IsolateE, symObjAddr: 0x34DC, symBinAddr: 0x734A8, symSize: 0x64 }
  - { offsetInCU: 0x1D054, offset: 0x466915, size: 0x8, addend: 0x0, symName: __ZN3tns19NewFunctionTemplateEPN2v87IsolateEPFvRKNS0_20FunctionCallbackInfoINS0_5ValueEEEENS0_5LocalIS4_EENSA_INS0_9SignatureEEENS0_19ConstructorBehaviorENS0_14SideEffectTypeEPKNS0_9CFunctionE, symObjAddr: 0x3540, symBinAddr: 0x7350C, symSize: 0x34 }
  - { offsetInCU: 0x1D10D, offset: 0x4669CE, size: 0x8, addend: 0x0, symName: __ZN3tns9SetMethodEN2v85LocalINS0_7ContextEEENS1_INS0_6ObjectEEEPKcPFvRKNS0_20FunctionCallbackInfoINS0_5ValueEEEENS1_IS9_EE, symObjAddr: 0x3574, symBinAddr: 0x73540, symSize: 0xDC }
  - { offsetInCU: 0x1D24C, offset: 0x466B0D, size: 0x8, addend: 0x0, symName: __ZN3tns9SetMethodEPN2v87IsolateENS0_5LocalINS0_8TemplateEEEPKcPFvRKNS0_20FunctionCallbackInfoINS0_5ValueEEEENS3_IS9_EE, symObjAddr: 0x3650, symBinAddr: 0x7361C, symSize: 0x94 }
  - { offsetInCU: 0x1D349, offset: 0x466C0A, size: 0x8, addend: 0x0, symName: __ZN3tns13SetFastMethodEPN2v87IsolateENS0_5LocalINS0_8TemplateEEEPKcPFvRKNS0_20FunctionCallbackInfoINS0_5ValueEEEEPKNS0_9CFunctionENS3_IS9_EE, symObjAddr: 0x36E4, symBinAddr: 0x736B0, symSize: 0x94 }
  - { offsetInCU: 0x1D459, offset: 0x466D1A, size: 0x8, addend: 0x0, symName: __ZN3tns13SetFastMethodEN2v85LocalINS0_7ContextEEENS1_INS0_6ObjectEEEPKcPFvRKNS0_20FunctionCallbackInfoINS0_5ValueEEEEPKNS0_9CFunctionENS1_IS9_EE, symObjAddr: 0x3778, symBinAddr: 0x73744, symSize: 0xF4 }
  - { offsetInCU: 0x1D5A9, offset: 0x466E6A, size: 0x8, addend: 0x0, symName: __ZN3tns25SetFastMethodNoSideEffectEN2v85LocalINS0_7ContextEEENS1_INS0_6ObjectEEEPKcPFvRKNS0_20FunctionCallbackInfoINS0_5ValueEEEEPKNS0_9CFunctionENS1_IS9_EE, symObjAddr: 0x386C, symBinAddr: 0x73838, symSize: 0xF4 }
  - { offsetInCU: 0x1D6F9, offset: 0x466FBA, size: 0x8, addend: 0x0, symName: __ZN3tns25SetFastMethodNoSideEffectEPN2v87IsolateENS0_5LocalINS0_8TemplateEEEPKcPFvRKNS0_20FunctionCallbackInfoINS0_5ValueEEEEPKNS0_9CFunctionENS3_IS9_EE, symObjAddr: 0x3960, symBinAddr: 0x7392C, symSize: 0x94 }
  - { offsetInCU: 0x1D809, offset: 0x4670CA, size: 0x8, addend: 0x0, symName: __ZN3tns21SetMethodNoSideEffectEN2v85LocalINS0_7ContextEEENS1_INS0_6ObjectEEEPKcPFvRKNS0_20FunctionCallbackInfoINS0_5ValueEEEENS1_IS9_EE, symObjAddr: 0x39F4, symBinAddr: 0x739C0, symSize: 0xDC }
  - { offsetInCU: 0x1D948, offset: 0x467209, size: 0x8, addend: 0x0, symName: __ZN3tns21SetMethodNoSideEffectEPN2v87IsolateENS0_5LocalINS0_8TemplateEEEPKcPFvRKNS0_20FunctionCallbackInfoINS0_5ValueEEEENS3_IS9_EE, symObjAddr: 0x3AD0, symBinAddr: 0x73A9C, symSize: 0x94 }
  - { offsetInCU: 0x1DA45, offset: 0x467306, size: 0x8, addend: 0x0, symName: __ZN3tns14SetProtoMethodEPN2v87IsolateENS0_5LocalINS0_16FunctionTemplateEEEPKcPFvRKNS0_20FunctionCallbackInfoINS0_5ValueEEEENS3_IS9_EE, symObjAddr: 0x3B64, symBinAddr: 0x73B30, symSize: 0xBC }
  - { offsetInCU: 0x1DB51, offset: 0x467412, size: 0x8, addend: 0x0, symName: __ZN3tns26SetProtoMethodNoSideEffectEPN2v87IsolateENS0_5LocalINS0_16FunctionTemplateEEEPKcPFvRKNS0_20FunctionCallbackInfoINS0_5ValueEEEENS3_IS9_EE, symObjAddr: 0x3C20, symBinAddr: 0x73BEC, symSize: 0xBC }
  - { offsetInCU: 0x1DC5D, offset: 0x46751E, size: 0x8, addend: 0x0, symName: __ZN3tns17SetInstanceMethodEPN2v87IsolateENS0_5LocalINS0_16FunctionTemplateEEEPKcPFvRKNS0_20FunctionCallbackInfoINS0_5ValueEEEENS3_IS9_EE, symObjAddr: 0x3CDC, symBinAddr: 0x73CA8, symSize: 0xBC }
  - { offsetInCU: 0x1DD9B, offset: 0x46765C, size: 0x8, addend: 0x0, symName: __ZN3tns22SetConstructorFunctionEN2v85LocalINS0_7ContextEEENS1_INS0_6ObjectEEEPKcNS1_INS0_16FunctionTemplateEEENS_26SetConstructorFunctionFlagE, symObjAddr: 0x3D98, symBinAddr: 0x73D64, symSize: 0x74 }
