---
triple:          'x86_64-apple-darwin'
binary-path:     '/Users/runner/Library/Developer/Xcode/DerivedData/v8ios-evcyqrxvhopiysgptalckyjckask/ArchiveIntermediates/NativeScript/InstallationBuildProductsLocation/Library/Frameworks/NativeScript.framework/NativeScript'
relocations:
  - { offsetInCU: 0x33, offset: 0x33, size: 0x8, addend: 0x0, symName: _NativeScriptVersionString, symObjAddr: 0x0, symBinAddr: 0xC74FB0, symSize: 0x0 }
  - { offsetInCU: 0x67, offset: 0x67, size: 0x8, addend: 0x0, symName: _NativeScriptVersionNumber, symObjAddr: 0x30, symBinAddr: 0xC74FE0, symSize: 0x0 }
  - { offsetInCU: 0x50, offset: 0xCC, size: 0x8, addend: 0x0, symName: __ZN3ada4idna3mapENSt3__117basic_string_viewIDiNS1_11char_traitsIDiEEEE, symObjAddr: 0x593, symBinAddr: 0x1A93, symSize: 0x1FD }
  - { offsetInCU: 0x7B, offset: 0xF7, size: 0x8, addend: 0x0, symName: __ZZN3ada4idna3mapENSt3__117basic_string_viewIDiNS1_11char_traitsIDiEEEEE5error, symObjAddr: 0x4D8940, symBinAddr: 0x16ACD90, symSize: 0x0 }
  - { offsetInCU: 0x660, offset: 0x6DC, size: 0x8, addend: 0x0, symName: __ZN3ada4idna14is_label_validENSt3__117basic_string_viewIDiNS1_11char_traitsIDiEEEE, symObjAddr: 0x1AC3, symBinAddr: 0x2FC3, symSize: 0x57F }
  - { offsetInCU: 0x68B, offset: 0x707, size: 0x8, addend: 0x0, symName: __ZZN3ada4idna14is_label_validENSt3__117basic_string_viewIDiNS1_11char_traitsIDiEEEEE9combining, symObjAddr: 0x4A840, symBinAddr: 0xC9EFC0, symSize: 0x0 }
  - { offsetInCU: 0x6A1, offset: 0x71D, size: 0x8, addend: 0x0, symName: __ZZN3ada4idna14is_label_validENSt3__117basic_string_viewIDiNS1_11char_traitsIDiEEEEE6virama, symObjAddr: 0x4CC20, symBinAddr: 0xCA13A0, symSize: 0x0 }
  - { offsetInCU: 0x6B7, offset: 0x733, size: 0x8, addend: 0x0, symName: __ZZN3ada4idna14is_label_validENSt3__117basic_string_viewIDiNS1_11char_traitsIDiEEEEE1R, symObjAddr: 0x4CD20, symBinAddr: 0xCA14A0, symSize: 0x0 }
  - { offsetInCU: 0x6D9, offset: 0x755, size: 0x8, addend: 0x0, symName: __ZZN3ada4idna14is_label_validENSt3__117basic_string_viewIDiNS1_11char_traitsIDiEEEEE1D, symObjAddr: 0x4CE40, symBinAddr: 0xCA15C0, symSize: 0x0 }
  - { offsetInCU: 0x14AC, offset: 0x1528, size: 0x8, addend: 0x0, symName: __ZN3ada4idna8to_asciiENSt3__117basic_string_viewIcNS1_11char_traitsIcEEEE, symObjAddr: 0x20C2, symBinAddr: 0x35C2, symSize: 0xD00 }
  - { offsetInCU: 0x14D7, offset: 0x1553, size: 0x8, addend: 0x0, symName: __ZZN3ada4idna8to_asciiENSt3__117basic_string_viewIcNS1_11char_traitsIcEEEEE5error, symObjAddr: 0x4D8960, symBinAddr: 0x16ACDB0, symSize: 0x0 }
  - { offsetInCU: 0x3978, offset: 0x39F4, size: 0x8, addend: 0x0, symName: __ZN3ada4idnaL5tableE, symObjAddr: 0x20940, symBinAddr: 0xC750C0, symSize: 0x0 }
  - { offsetInCU: 0x3992, offset: 0x3A0E, size: 0x8, addend: 0x0, symName: __ZN3ada4idnaL8mappingsE, symObjAddr: 0x30350, symBinAddr: 0xC84AD0, symSize: 0x0 }
  - { offsetInCU: 0x39AC, offset: 0x3A28, size: 0x8, addend: 0x0, symName: __ZN3ada4idnaL19decomposition_indexE, symObjAddr: 0x35400, symBinAddr: 0xC89B80, symSize: 0x0 }
  - { offsetInCU: 0x39C6, offset: 0x3A42, size: 0x8, addend: 0x0, symName: __ZN3ada4idnaL19decomposition_blockE, symObjAddr: 0x36500, symBinAddr: 0xC8AC80, symSize: 0x0 }
  - { offsetInCU: 0x39E0, offset: 0x3A5C, size: 0x8, addend: 0x0, symName: __ZN3ada4idnaL18decomposition_dataE, symObjAddr: 0x3EB90, symBinAddr: 0xC93310, symSize: 0x0 }
  - { offsetInCU: 0x39FA, offset: 0x3A76, size: 0x8, addend: 0x0, symName: __ZN3ada4idnaL31canonical_combining_class_blockE, symObjAddr: 0x4D810, symBinAddr: 0xCA1F80, symSize: 0x0 }
  - { offsetInCU: 0x3A14, offset: 0x3A90, size: 0x8, addend: 0x0, symName: __ZN3ada4idnaL31canonical_combining_class_indexE, symObjAddr: 0x51B10, symBinAddr: 0xCA6280, symSize: 0x0 }
  - { offsetInCU: 0x3A2E, offset: 0x3AAA, size: 0x8, addend: 0x0, symName: __ZN3ada4idnaL17composition_blockE, symObjAddr: 0x52C10, symBinAddr: 0xCA7380, symSize: 0x0 }
  - { offsetInCU: 0x3A48, offset: 0x3AC4, size: 0x8, addend: 0x0, symName: __ZN3ada4idnaL17composition_indexE, symObjAddr: 0x479D0, symBinAddr: 0xC9C150, symSize: 0x0 }
  - { offsetInCU: 0x3A62, offset: 0x3ADE, size: 0x8, addend: 0x0, symName: __ZN3ada4idnaL16composition_dataE, symObjAddr: 0x48AD0, symBinAddr: 0xC9D250, symSize: 0x0 }
  - { offsetInCU: 0x3A97, offset: 0x3B13, size: 0x8, addend: 0x0, symName: __ZN3ada4idnaL9dir_tableE, symObjAddr: 0x5B2D0, symBinAddr: 0xCAFA20, symSize: 0x0 }
  - { offsetInCU: 0x3B81, offset: 0x3BFD, size: 0x8, addend: 0x0, symName: __ZN3ada4idnaL36is_forbidden_domain_code_point_tableE, symObjAddr: 0x5F6C0, symBinAddr: 0xCB3E10, symSize: 0x0 }
  - { offsetInCU: 0x3B8E, offset: 0x3C0A, size: 0x8, addend: 0x0, symName: __ZN3ada4idna13utf8_to_utf32EPKcmPDi, symObjAddr: 0x0, symBinAddr: 0x1500, symSize: 0x23D }
  - { offsetInCU: 0x3CB6, offset: 0x3D32, size: 0x8, addend: 0x0, symName: __ZN3ada4idna22utf8_length_from_utf32EPKDim, symObjAddr: 0x23D, symBinAddr: 0x173D, symSize: 0x47 }
  - { offsetInCU: 0x3CFF, offset: 0x3D7B, size: 0x8, addend: 0x0, symName: __ZN3ada4idna22utf32_length_from_utf8EPKcm, symObjAddr: 0x284, symBinAddr: 0x1784, symSize: 0x27 }
  - { offsetInCU: 0x3D83, offset: 0x3DFF, size: 0x8, addend: 0x0, symName: __ZN3ada4idna13utf32_to_utf8EPKDimPc, symObjAddr: 0x2AB, symBinAddr: 0x17AB, symSize: 0x146 }
  - { offsetInCU: 0x3E2E, offset: 0x3EAA, size: 0x8, addend: 0x0, symName: __ZN3ada4idna16find_range_indexEj, symObjAddr: 0x3F1, symBinAddr: 0x18F1, symSize: 0x32 }
  - { offsetInCU: 0x3E7E, offset: 0x3EFA, size: 0x8, addend: 0x0, symName: __ZN3ada4idna20ascii_has_upper_caseEPcm, symObjAddr: 0x423, symBinAddr: 0x1923, symSize: 0xAD }
  - { offsetInCU: 0x3F84, offset: 0x4000, size: 0x8, addend: 0x0, symName: __ZN3ada4idna9ascii_mapEPcm, symObjAddr: 0x4D0, symBinAddr: 0x19D0, symSize: 0xC3 }
  - { offsetInCU: 0x40D2, offset: 0x414E, size: 0x8, addend: 0x0, symName: __ZN3ada4idna28compute_decomposition_lengthENSt3__117basic_string_viewIDiNS1_11char_traitsIDiEEEE, symObjAddr: 0x8AC, symBinAddr: 0x1DAC, symSize: 0xC8 }
  - { offsetInCU: 0x41B0, offset: 0x422C, size: 0x8, addend: 0x0, symName: __ZN3ada4idna9decomposeERNSt3__112basic_stringIDiNS1_11char_traitsIDiEENS1_9allocatorIDiEEEEm, symObjAddr: 0x974, symBinAddr: 0x1E74, symSize: 0x26B }
  - { offsetInCU: 0x4495, offset: 0x4511, size: 0x8, addend: 0x0, symName: __ZN3ada4idna7get_cccEDi, symObjAddr: 0xBDF, symBinAddr: 0x20DF, symSize: 0x3B }
  - { offsetInCU: 0x44CE, offset: 0x454A, size: 0x8, addend: 0x0, symName: __ZN3ada4idna10sort_marksERNSt3__112basic_stringIDiNS1_11char_traitsIDiEENS1_9allocatorIDiEEEE, symObjAddr: 0xC1A, symBinAddr: 0x211A, symSize: 0x10C }
  - { offsetInCU: 0x4705, offset: 0x4781, size: 0x8, addend: 0x0, symName: __ZN3ada4idna13decompose_nfcERNSt3__112basic_stringIDiNS1_11char_traitsIDiEENS1_9allocatorIDiEEEE, symObjAddr: 0xD26, symBinAddr: 0x2226, symSize: 0x45 }
  - { offsetInCU: 0x47E9, offset: 0x4865, size: 0x8, addend: 0x0, symName: __ZN3ada4idna7composeERNSt3__112basic_stringIDiNS1_11char_traitsIDiEENS1_9allocatorIDiEEEE, symObjAddr: 0xD6B, symBinAddr: 0x226B, symSize: 0x429 }
  - { offsetInCU: 0x4C84, offset: 0x4D00, size: 0x8, addend: 0x0, symName: __ZN3ada4idna9normalizeERNSt3__112basic_stringIDiNS1_11char_traitsIDiEENS1_9allocatorIDiEEEE, symObjAddr: 0x1194, symBinAddr: 0x2694, symSize: 0x1C }
  - { offsetInCU: 0x4D1B, offset: 0x4D97, size: 0x8, addend: 0x0, symName: __ZN3ada4idna17punycode_to_utf32ENSt3__117basic_string_viewIcNS1_11char_traitsIcEEEERNS1_12basic_stringIDiNS3_IDiEENS1_9allocatorIDiEEEE, symObjAddr: 0x11B0, symBinAddr: 0x26B0, symSize: 0x2B2 }
  - { offsetInCU: 0x50CD, offset: 0x5149, size: 0x8, addend: 0x0, symName: __ZN3ada4idna15verify_punycodeENSt3__117basic_string_viewIcNS1_11char_traitsIcEEEE, symObjAddr: 0x1564, symBinAddr: 0x2A64, symSize: 0x22E }
  - { offsetInCU: 0x538F, offset: 0x540B, size: 0x8, addend: 0x0, symName: __ZN3ada4idna17utf32_to_punycodeENSt3__117basic_string_viewIDiNS1_11char_traitsIDiEEEERNS1_12basic_stringIcNS3_IcEENS1_9allocatorIcEEEE, symObjAddr: 0x1792, symBinAddr: 0x2C92, symSize: 0x331 }
  - { offsetInCU: 0x56C4, offset: 0x5740, size: 0x8, addend: 0x0, symName: __ZN3ada4idna11begins_withENSt3__117basic_string_viewIDiNS1_11char_traitsIDiEEEES5_, symObjAddr: 0x2042, symBinAddr: 0x3542, symSize: 0x28 }
  - { offsetInCU: 0x57B4, offset: 0x5830, size: 0x8, addend: 0x0, symName: __ZN3ada4idna11begins_withENSt3__117basic_string_viewIcNS1_11char_traitsIcEEEES5_, symObjAddr: 0x206A, symBinAddr: 0x356A, symSize: 0x24 }
  - { offsetInCU: 0x58C2, offset: 0x593E, size: 0x8, addend: 0x0, symName: __ZN3ada4idna36contains_forbidden_domain_code_pointENSt3__117basic_string_viewIcNS1_11char_traitsIcEEEE, symObjAddr: 0x208E, symBinAddr: 0x358E, symSize: 0x34 }
  - { offsetInCU: 0x5B62, offset: 0x5BDE, size: 0x8, addend: 0x0, symName: __ZN3ada4idna10to_unicodeENSt3__117basic_string_viewIcNS1_11char_traitsIcEEEE, symObjAddr: 0x2E1D, symBinAddr: 0x431D, symSize: 0x28C }
  - { offsetInCU: 0x677A, offset: 0x67F6, size: 0x8, addend: 0x0, symName: __ZN3ada22url_search_params_iterINSt3__117basic_string_viewIcNS1_11char_traitsIcEEEELNS_27url_search_params_iter_typeE0EE5EMPTYE, symObjAddr: 0x60C60, symBinAddr: 0xE380E8, symSize: 0x0 }
  - { offsetInCU: 0x6CF3, offset: 0x6D6F, size: 0x8, addend: 0x0, symName: __ZN3ada22url_search_params_iterINSt3__117basic_string_viewIcNS1_11char_traitsIcEEEELNS_27url_search_params_iter_typeE1EE5EMPTYE, symObjAddr: 0x60C80, symBinAddr: 0xE38108, symSize: 0x0 }
  - { offsetInCU: 0x6D06, offset: 0x6D82, size: 0x8, addend: 0x0, symName: __ZN3ada22url_search_params_iterINSt3__14pairINS1_17basic_string_viewIcNS1_11char_traitsIcEEEES6_EELNS_27url_search_params_iter_typeE2EE5EMPTYE, symObjAddr: 0x60CA0, symBinAddr: 0xE38128, symSize: 0x0 }
  - { offsetInCU: 0x6D25, offset: 0x6DA1, size: 0x8, addend: 0x0, symName: __ZN3ada7unicodeL19hex_to_binary_tableE, symObjAddr: 0x5F7C0, symBinAddr: 0xCB3F10, symSize: 0x0 }
  - { offsetInCU: 0x6D3F, offset: 0x6DBB, size: 0x8, addend: 0x0, symName: __ZN3ada7unicodeL36is_forbidden_domain_code_point_tableE, symObjAddr: 0x5F7F7, symBinAddr: 0xCB3F47, symSize: 0x0 }
  - { offsetInCU: 0x6D59, offset: 0x6DD5, size: 0x8, addend: 0x0, symName: __ZN3ada7unicodeL32table_is_double_dot_path_segmentE, symObjAddr: 0x60BC0, symBinAddr: 0xDD6670, symSize: 0x0 }
  - { offsetInCU: 0x6D73, offset: 0x6DEF, size: 0x8, addend: 0x0, symName: __ZN3ada7unicodeL34is_forbidden_host_code_point_tableE, symObjAddr: 0x5FA50, symBinAddr: 0xCB41A0, symSize: 0x0 }
  - { offsetInCU: 0x6D8D, offset: 0x6E09, size: 0x8, addend: 0x0, symName: __ZN3ada7unicodeL19is_alnum_plus_tableE, symObjAddr: 0x5FB68, symBinAddr: 0xCB42B8, symSize: 0x0 }
  - { offsetInCU: 0x6DA7, offset: 0x6E23, size: 0x8, addend: 0x0, symName: __ZN3ada7unicodeL45is_forbidden_domain_code_point_table_or_upperE, symObjAddr: 0x5FFB0, symBinAddr: 0xCB4700, symSize: 0x0 }
  - { offsetInCU: 0x6DF0, offset: 0x6E6C, size: 0x8, addend: 0x0, symName: __ZN3ada7unicode14percent_decodeENSt3__117basic_string_viewIcNS1_11char_traitsIcEEEEm, symObjAddr: 0x30A9, symBinAddr: 0x45A9, symSize: 0x197 }
  - { offsetInCU: 0x74BF, offset: 0x753B, size: 0x8, addend: 0x0, symName: __ZN3ada7unicode14percent_encodeENSt3__117basic_string_viewIcNS1_11char_traitsIcEEEEPKh, symObjAddr: 0x32B8, symBinAddr: 0x47B8, symSize: 0x165 }
  - { offsetInCU: 0x7BAB, offset: 0x7C27, size: 0x8, addend: 0x0, symName: __ZN3ada7unicode8to_asciiERNSt3__18optionalINS1_12basic_stringIcNS1_11char_traitsIcEENS1_9allocatorIcEEEEEENS1_17basic_string_viewIcS5_EEm, symObjAddr: 0x341D, symBinAddr: 0x491D, symSize: 0x163 }
  - { offsetInCU: 0x823B, offset: 0x82B7, size: 0x8, addend: 0x0, symName: __ZN3ada7unicode14percent_encodeENSt3__117basic_string_viewIcNS1_11char_traitsIcEEEEPKhm, symObjAddr: 0x35E2, symBinAddr: 0x4AE2, symSize: 0xAE }
  - { offsetInCU: 0x8453, offset: 0x84CF, size: 0x8, addend: 0x0, symName: __ZN3ada7unicode10to_unicodeENSt3__117basic_string_viewIcNS1_11char_traitsIcEEEE, symObjAddr: 0x3690, symBinAddr: 0x4B90, symSize: 0x18 }
  - { offsetInCU: 0x8639, offset: 0x86B5, size: 0x8, addend: 0x0, symName: __ZN3ada7unicode14to_lower_asciiEPcm, symObjAddr: 0x1ABB3, symBinAddr: 0x1BFC3, symSize: 0xF9 }
  - { offsetInCU: 0x8714, offset: 0x8790, size: 0x8, addend: 0x0, symName: __ZN3ada7unicode14percent_encodeILb0EEEbNSt3__117basic_string_viewIcNS2_11char_traitsIcEEEEPKhRNS2_12basic_stringIcS5_NS2_9allocatorIcEEEE, symObjAddr: 0x1AA35, symBinAddr: 0x1BE75, symSize: 0xE0 }
  - { offsetInCU: 0x8979, offset: 0x89F5, size: 0x8, addend: 0x0, symName: __ZN3ada7unicode14percent_encodeILb1EEEbNSt3__117basic_string_viewIcNS2_11char_traitsIcEEEEPKhRNS2_12basic_stringIcS5_NS2_9allocatorIcEEEE, symObjAddr: 0x1AE62, symBinAddr: 0x1C272, symSize: 0xC6 }
  - { offsetInCU: 0x8B69, offset: 0x8BE5, size: 0x8, addend: 0x0, symName: __ZN3ada14character_setsL3hexE, symObjAddr: 0x4D370, symBinAddr: 0xCA1AE0, symSize: 0x0 }
  - { offsetInCU: 0x8B83, offset: 0x8BFF, size: 0x8, addend: 0x0, symName: __ZN3ada14character_setsL19PATH_PERCENT_ENCODEE, symObjAddr: 0x5F930, symBinAddr: 0xCB4080, symSize: 0x0 }
  - { offsetInCU: 0x8B9D, offset: 0x8C19, size: 0x8, addend: 0x0, symName: __ZN3ada14character_setsL25C0_CONTROL_PERCENT_ENCODEE, symObjAddr: 0x4D770, symBinAddr: 0xCA1EE0, symSize: 0x0 }
  - { offsetInCU: 0x8BB7, offset: 0x8C33, size: 0x8, addend: 0x0, symName: __ZN3ada14character_setsL23USERINFO_PERCENT_ENCODEE, symObjAddr: 0x4D790, symBinAddr: 0xCA1F00, symSize: 0x0 }
  - { offsetInCU: 0x8BD1, offset: 0x8C4D, size: 0x8, addend: 0x0, symName: __ZN3ada14character_setsL23FRAGMENT_PERCENT_ENCODEE, symObjAddr: 0x4D7B0, symBinAddr: 0xCA1F20, symSize: 0x0 }
  - { offsetInCU: 0x8BEB, offset: 0x8C67, size: 0x8, addend: 0x0, symName: __ZN3ada14character_setsL28SPECIAL_QUERY_PERCENT_ENCODEE, symObjAddr: 0x4D7D0, symBinAddr: 0xCA1F40, symSize: 0x0 }
  - { offsetInCU: 0x8C05, offset: 0x8C81, size: 0x8, addend: 0x0, symName: __ZN3ada14character_setsL20QUERY_PERCENT_ENCODEE, symObjAddr: 0x4D7F0, symBinAddr: 0xCA1F60, symSize: 0x0 }
  - { offsetInCU: 0x8C1F, offset: 0x8C9B, size: 0x8, addend: 0x0, symName: __ZN3ada14character_setsL34WWW_FORM_URLENCODED_PERCENT_ENCODEE, symObjAddr: 0x600F0, symBinAddr: 0xCB4830, symSize: 0x0 }
  - { offsetInCU: 0x8C68, offset: 0x8CE4, size: 0x8, addend: 0x0, symName: __ZN3ada8checkersL20path_signature_tableE, symObjAddr: 0x5F950, symBinAddr: 0xCB40A0, symSize: 0x0 }
  - { offsetInCU: 0x8E4F, offset: 0x8ECB, size: 0x8, addend: 0x0, symName: __ZN3ada8checkers23is_windows_drive_letterENSt3__117basic_string_viewIcNS1_11char_traitsIcEEEE, symObjAddr: 0x10DC0, symBinAddr: 0x12260, symSize: 0x4E }
  - { offsetInCU: 0x8EC0, offset: 0x8F3C, size: 0x8, addend: 0x0, symName: __ZN3ada6scheme7detailsL15is_special_listE, symObjAddr: 0x60980, symBinAddr: 0xDD6430, symSize: 0x0 }
  - { offsetInCU: 0x8EDA, offset: 0x8F56, size: 0x8, addend: 0x0, symName: __ZN3ada6scheme7detailsL13special_portsE, symObjAddr: 0x5FEA0, symBinAddr: 0xCB45F0, symSize: 0x0 }
  - { offsetInCU: 0x8F20, offset: 0x8F9C, size: 0x8, addend: 0x0, symName: __ZN3ada6scheme15get_scheme_typeENSt3__117basic_string_viewIcNS1_11char_traitsIcEEEE, symObjAddr: 0x1EAC1, symBinAddr: 0x1EFC1, symSize: 0x7D }
  - { offsetInCU: 0x90A1, offset: 0x911D, size: 0x8, addend: 0x0, symName: __ZN3ada7helpersL27authority_delimiter_specialE, symObjAddr: 0x5FC68, symBinAddr: 0xCB43B8, symSize: 0x0 }
  - { offsetInCU: 0x90BB, offset: 0x9137, size: 0x8, addend: 0x0, symName: __ZN3ada7helpersL19authority_delimiterE, symObjAddr: 0x5FD68, symBinAddr: 0xCB44B8, symSize: 0x0 }
  - { offsetInCU: 0x90D6, offset: 0x9152, size: 0x8, addend: 0x0, symName: __ZZN3ada7helpers16fast_digit_countEjE5table, symObjAddr: 0x5FEB0, symBinAddr: 0xCB4600, symSize: 0x0 }
  - { offsetInCU: 0x96C7, offset: 0x9743, size: 0x8, addend: 0x0, symName: __ZN3ada7helpers6concatIJPKcNSt3__117basic_string_viewIcNS4_11char_traitsIcEEEEEEENS4_12basic_stringIcS7_NS4_9allocatorIcEEEEDpT_, symObjAddr: 0x1288B, symBinAddr: 0x13D2B, symSize: 0x5B }
  - { offsetInCU: 0x9907, offset: 0x9983, size: 0x8, addend: 0x0, symName: __ZN3ada7helpers9get_stateENS_5stateE, symObjAddr: 0xAC20, symBinAddr: 0xC120, symSize: 0x3A }
  - { offsetInCU: 0x9943, offset: 0x99BF, size: 0x8, addend: 0x0, symName: __ZN3ada7helpers8overlapsENSt3__117basic_string_viewIcNS1_11char_traitsIcEEEERKNS1_12basic_stringIcS4_NS1_9allocatorIcEEEE, symObjAddr: 0xAC5A, symBinAddr: 0xC15A, symSize: 0x48 }
  - { offsetInCU: 0x9A2A, offset: 0x9AA6, size: 0x8, addend: 0x0, symName: __ZN3ada7helpers11encode_jsonINSt3__120back_insert_iteratorINS2_12basic_stringIcNS2_11char_traitsIcEENS2_9allocatorIcEEEEEEEEvNS2_17basic_string_viewIcS6_EET_, symObjAddr: 0xB8D0, symBinAddr: 0xCDD0, symSize: 0xDA }
  - { offsetInCU: 0x9B6D, offset: 0x9BE9, size: 0x8, addend: 0x0, symName: __ZN3ada7helpers6concatIJNSt3__117basic_string_viewIcNS2_11char_traitsIcEEEEPKcEEENS2_12basic_stringIcS5_NS2_9allocatorIcEEEEDpT_, symObjAddr: 0xBF78, symBinAddr: 0xD418, symSize: 0x4C }
  - { offsetInCU: 0x9DAB, offset: 0x9E27, size: 0x8, addend: 0x0, symName: __ZN3ada7helpers6concatIJNSt3__112basic_stringIcNS2_11char_traitsIcEENS2_9allocatorIcEEEEPKcEEES8_DpT_, symObjAddr: 0xBFC4, symBinAddr: 0xD464, symSize: 0xBC }
  - { offsetInCU: 0xA32D, offset: 0xA3A9, size: 0x8, addend: 0x0, symName: __ZN3ada7helpers6concatIJNSt3__112basic_stringIcNS2_11char_traitsIcEENS2_9allocatorIcEEEEPKcS8_EEES8_DpT_, symObjAddr: 0xBCCE, symBinAddr: 0xD1CE, symSize: 0xF4 }
  - { offsetInCU: 0xAAE7, offset: 0xAB63, size: 0x8, addend: 0x0, symName: __ZN3ada7helpers12inner_concatINSt3__112basic_stringIcNS2_11char_traitsIcEENS2_9allocatorIcEEEEJPKcS8_EEEvRS8_T_DpT0_, symObjAddr: 0x1E866, symBinAddr: 0x1EE36, symSize: 0x10C }
  - { offsetInCU: 0xB373, offset: 0xB3EF, size: 0x8, addend: 0x0, symName: __ZN3ada7helpers6concatIJPKcNSt3__112basic_stringIcNS4_11char_traitsIcEENS4_9allocatorIcEEEEEEESA_DpT_, symObjAddr: 0x1AFB7, symBinAddr: 0x1C3C7, symSize: 0x10B }
  - { offsetInCU: 0xBCC4, offset: 0xBD40, size: 0x8, addend: 0x0, symName: __ZN3ada7helpers6concatIJNSt3__117basic_string_viewIcNS2_11char_traitsIcEEEEPKcS6_EEENS2_12basic_stringIcS5_NS2_9allocatorIcEEEEDpT_, symObjAddr: 0x16B02, symBinAddr: 0x17FA2, symSize: 0x68 }
  - { offsetInCU: 0xCCFD, offset: 0xCD79, size: 0x8, addend: 0x0, symName: __ZN3ada11serializers36find_longest_sequence_of_ipv6_piecesERKNSt3__15arrayItLm8EEERmS6_, symObjAddr: 0x36A8, symBinAddr: 0x4BA8, symSize: 0x62 }
  - { offsetInCU: 0xCDA7, offset: 0xCE23, size: 0x8, addend: 0x0, symName: __ZN3ada11serializers4ipv6ERKNSt3__15arrayItLm8EEE, symObjAddr: 0x370A, symBinAddr: 0x4C0A, symSize: 0x166 }
  - { offsetInCU: 0xD12A, offset: 0xD1A6, size: 0x8, addend: 0x0, symName: __ZN3ada11serializers4ipv4Ey, symObjAddr: 0x387B, symBinAddr: 0x4D7B, symSize: 0xD0 }
  - { offsetInCU: 0xDB49, offset: 0xDBC5, size: 0x8, addend: 0x0, symName: __ZN3ada5parseINS_3urlEEEN2tl8expectedIT_NS_6errorsEEENSt3__117basic_string_viewIcNS7_11char_traitsIcEEEEPKS4_, symObjAddr: 0x394B, symBinAddr: 0x4E4B, symSize: 0x63 }
  - { offsetInCU: 0xDE95, offset: 0xDF11, size: 0x8, addend: 0x0, symName: __ZN3ada6parser9parse_urlINS_3urlEEET_NSt3__117basic_string_viewIcNS4_11char_traitsIcEEEEPKS3_, symObjAddr: 0x39AE, symBinAddr: 0x4EAE, symSize: 0x35AA }
  - { offsetInCU: 0x15202, offset: 0x1527E, size: 0x8, addend: 0x0, symName: __ZN3ada6parser9parse_urlINS_14url_aggregatorEEET_NSt3__117basic_string_viewIcNS4_11char_traitsIcEEEEPKS3_, symObjAddr: 0x6FE9, symBinAddr: 0x84E9, symSize: 0x2DEF }
  - { offsetInCU: 0x1B252, offset: 0x1B2CE, size: 0x8, addend: 0x0, symName: __ZN3ada5parseINS_14url_aggregatorEEEN2tl8expectedIT_NS_6errorsEEENSt3__117basic_string_viewIcNS7_11char_traitsIcEEEEPKS4_, symObjAddr: 0x6F62, symBinAddr: 0x8462, symSize: 0x87 }
  - { offsetInCU: 0x1B72C, offset: 0x1B7A8, size: 0x8, addend: 0x0, symName: __ZN3ada14href_from_fileENSt3__117basic_string_viewIcNS0_11char_traitsIcEEEE, symObjAddr: 0x9DF8, symBinAddr: 0xB2F8, symSize: 0xC73 }
  - { offsetInCU: 0x1D470, offset: 0x1D4EC, size: 0x8, addend: 0x0, symName: __ZN3ada9can_parseENSt3__117basic_string_viewIcNS0_11char_traitsIcEEEEPKS4_, symObjAddr: 0xAA6B, symBinAddr: 0xBF6B, symSize: 0x141 }
  - { offsetInCU: 0x1DFE5, offset: 0x1E061, size: 0x8, addend: 0x0, symName: __ZN3ada9to_stringENS_13encoding_typeE, symObjAddr: 0xABF7, symBinAddr: 0xC0F7, symSize: 0x29 }
  - { offsetInCU: 0x1E021, offset: 0x1E09D, size: 0x8, addend: 0x0, symName: __ZN3ada9to_stringENS_5stateE, symObjAddr: 0xACA2, symBinAddr: 0xC1A2, symSize: 0x18 }
  - { offsetInCU: 0x278D0, offset: 0x2794C, size: 0x8, addend: 0x0, symName: __ZNSt3__16__itoa10__pow10_32E, symObjAddr: 0x5FE70, symBinAddr: 0xCB45C0, symSize: 0x0 }
  - { offsetInCU: 0x278EA, offset: 0x27966, size: 0x8, addend: 0x0, symName: __ZNSt3__16__itoa16__digits_base_10E, symObjAddr: 0x60110, symBinAddr: 0xCB4850, symSize: 0x0 }
  - { offsetInCU: 0x27904, offset: 0x27980, size: 0x8, addend: 0x0, symName: __ZNSt3__16__itoa13__base_16_lutE, symObjAddr: 0x601E0, symBinAddr: 0xCB4920, symSize: 0x0 }
  - { offsetInCU: 0x27B45, offset: 0x27BC1, size: 0x8, addend: 0x0, symName: __ZNSt3__16__itoa13__base_10_u32B8ue170006EPcj, symObjAddr: 0x1E366, symBinAddr: 0x1E936, symSize: 0x2F9 }
  - { offsetInCU: 0x298EA, offset: 0x29966, size: 0x8, addend: 0x0, symName: __ZNSt3__16__itoa10__append10B8ue170006IjEEPcS2_T_, symObjAddr: 0x1E65F, symBinAddr: 0x1EC2F, symSize: 0x8D }
  - { offsetInCU: 0x2B854, offset: 0x2B8D0, size: 0x8, addend: 0x0, symName: __ZNSt3__124__buffered_inplace_mergeB8ue170006INS_17_ClassicAlgPolicyERZN3ada17url_search_params4sortEvEUlRKNS_4pairINS_12basic_stringIcNS_11char_traitsIcEENS_9allocatorIcEEEESA_EESD_E_NS_11__wrap_iterIPSB_EEEEvT1_SJ_SJ_OT0_NS_15iterator_traitsISJ_E15difference_typeESO_PNSN_10value_typeE, symObjAddr: 0x1CBF1, symBinAddr: 0x1D581, symSize: 0x170 }
  - { offsetInCU: 0x2EF17, offset: 0x2EF93, size: 0x8, addend: 0x0, symName: __ZNSt3__19remove_ifB8ue170006INS_11__wrap_iterIPcEEZN3ada7helpers27remove_ascii_tab_or_newlineERNS_12basic_stringIcNS_11char_traitsIcEENS_9allocatorIcEEEEEUlcE_EET_SE_SE_T0_, symObjAddr: 0x1A911, symBinAddr: 0x1BD51, symSize: 0x59 }
  - { offsetInCU: 0x2FF58, offset: 0x2FFD4, size: 0x8, addend: 0x0, symName: __ZNSt3__120get_temporary_bufferB8ue170006INS_4pairINS_12basic_stringIcNS_11char_traitsIcEENS_9allocatorIcEEEES7_EEEENS1_IPT_lEEl, symObjAddr: 0x1BC84, symBinAddr: 0x1CA14, symSize: 0x57 }
  - { offsetInCU: 0x3017B, offset: 0x301F7, size: 0x8, addend: 0x0, symName: __ZNSt3__19remove_ifB8ue170006INS_11__wrap_iterIPNS_4pairINS_12basic_stringIcNS_11char_traitsIcEENS_9allocatorIcEEEES8_EEEEZN3ada17url_search_params3setENS_17basic_string_viewIcS5_EESF_EUlRT_E_EESG_SG_SG_T0_, symObjAddr: 0x1D55E, symBinAddr: 0x1DE0E, symSize: 0xC7 }
  - { offsetInCU: 0x305F8, offset: 0x30674, size: 0x8, addend: 0x0, symName: __ZNSt3__19remove_ifB8ue170006INS_11__wrap_iterIPNS_4pairINS_12basic_stringIcNS_11char_traitsIcEENS_9allocatorIcEEEES8_EEEEZN3ada17url_search_params6removeENS_17basic_string_viewIcS5_EESF_EUlRT_E_EESG_SG_SG_T0_, symObjAddr: 0x1D730, symBinAddr: 0x1DF20, symSize: 0x15C }
  - { offsetInCU: 0x3141D, offset: 0x31499, size: 0x8, addend: 0x0, symName: __ZNSt3__115__inplace_mergeINS_17_ClassicAlgPolicyERZN3ada17url_search_params4sortEvEUlRKNS_4pairINS_12basic_stringIcNS_11char_traitsIcEENS_9allocatorIcEEEESA_EESD_E_NS_11__wrap_iterIPSB_EEEEvT1_SJ_SJ_OT0_NS_15iterator_traitsISJ_E15difference_typeESO_PNSN_10value_typeEl, symObjAddr: 0x1C42E, symBinAddr: 0x1CF8E, symSize: 0x2E6 }
  - { offsetInCU: 0x31A89, offset: 0x31B05, size: 0x8, addend: 0x0, symName: __ZNSt3__116__insertion_sortB8ue170006INS_17_ClassicAlgPolicyERZN3ada17url_search_params4sortEvEUlRKNS_4pairINS_12basic_stringIcNS_11char_traitsIcEENS_9allocatorIcEEEESA_EESD_E_NS_11__wrap_iterIPSB_EEEEvT1_SJ_T0_, symObjAddr: 0x1BF12, symBinAddr: 0x1CA72, symSize: 0x1AA }
  - { offsetInCU: 0x321CA, offset: 0x32246, size: 0x8, addend: 0x0, symName: __ZNSt3__118__stable_sort_moveINS_17_ClassicAlgPolicyERZN3ada17url_search_params4sortEvEUlRKNS_4pairINS_12basic_stringIcNS_11char_traitsIcEENS_9allocatorIcEEEESA_EESD_E_NS_11__wrap_iterIPSB_EEEEvT1_SJ_T0_NS_15iterator_traitsISJ_E15difference_typeEPNSM_10value_typeE, symObjAddr: 0x1C0BC, symBinAddr: 0x1CC1C, symSize: 0x266 }
  - { offsetInCU: 0x329B0, offset: 0x32A2C, size: 0x8, addend: 0x0, symName: __ZNSt3__119__merge_move_assignB8ue170006INS_17_ClassicAlgPolicyERZN3ada17url_search_params4sortEvEUlRKNS_4pairINS_12basic_stringIcNS_11char_traitsIcEENS_9allocatorIcEEEESA_EESD_E_PSB_SG_NS_11__wrap_iterISG_EEEEvT1_SJ_T2_SK_T3_T0_, symObjAddr: 0x1C322, symBinAddr: 0x1CE82, symSize: 0x10C }
  - { offsetInCU: 0x32C10, offset: 0x32C8C, size: 0x8, addend: 0x0, symName: __ZNSt3__121__insertion_sort_moveB8ue170006INS_17_ClassicAlgPolicyERZN3ada17url_search_params4sortEvEUlRKNS_4pairINS_12basic_stringIcNS_11char_traitsIcEENS_9allocatorIcEEEESA_EESD_E_NS_11__wrap_iterIPSB_EEEEvT1_SJ_PNS_15iterator_traitsISJ_E10value_typeET0_, symObjAddr: 0x1C780, symBinAddr: 0x1D2E0, symSize: 0x24B }
  - { offsetInCU: 0x338BB, offset: 0x33937, size: 0x8, addend: 0x0, symName: __ZNSt3__113__upper_boundB8ue170006INS_17_ClassicAlgPolicyERZN3ada17url_search_params4sortEvEUlRKNS_4pairINS_12basic_stringIcNS_11char_traitsIcEENS_9allocatorIcEEEESA_EESD_E_NS_11__wrap_iterIPSB_EESI_SB_NS_10__identityEEET1_SK_T2_RKT3_OT0_OT4_, symObjAddr: 0x1CD61, symBinAddr: 0x1D6F1, symSize: 0xF1 }
  - { offsetInCU: 0x33BA2, offset: 0x33C1E, size: 0x8, addend: 0x0, symName: __ZNSt3__113__lower_boundB8ue170006INS_17_ClassicAlgPolicyENS_11__wrap_iterIPNS_4pairINS_12basic_stringIcNS_11char_traitsIcEENS_9allocatorIcEEEES9_EEEESC_SA_NS_10__identityEZN3ada17url_search_params4sortEvEUlRKSA_SH_E_EET0_SJ_T1_RKT2_RT4_RT3_, symObjAddr: 0x1D0A8, symBinAddr: 0x1D958, symSize: 0xF5 }
  - { offsetInCU: 0x33E34, offset: 0x33EB0, size: 0x8, addend: 0x0, symName: __ZNSt3__116__rotate_forwardB8ue170006INS_17_ClassicAlgPolicyENS_11__wrap_iterIPNS_4pairINS_12basic_stringIcNS_11char_traitsIcEENS_9allocatorIcEEEES9_EEEEEET0_SD_SD_SD_, symObjAddr: 0x1D19D, symBinAddr: 0x1DA4D, symSize: 0x10F }
  - { offsetInCU: 0x341EC, offset: 0x34268, size: 0x8, addend: 0x0, symName: __ZNSt3__120__half_inplace_mergeB8ue170006INS_17_ClassicAlgPolicyENS_8__invertIRZN3ada17url_search_params4sortEvEUlRKNS_4pairINS_12basic_stringIcNS_11char_traitsIcEENS_9allocatorIcEEEESB_EESE_E_EENS_16reverse_iteratorIPSC_EESK_NSI_INS_11__wrap_iterISJ_EEEESN_SN_EEvT1_T2_T3_T4_T5_OT0_, symObjAddr: 0x1CF3F, symBinAddr: 0x1D7EF, symSize: 0xC0 }
  - { offsetInCU: 0x34897, offset: 0x34913, size: 0x8, addend: 0x0, symName: __ZNSt3__121__unwrap_and_dispatchB8ue170006INS_10__overloadINS_11__move_loopINS_17_ClassicAlgPolicyEEENS_14__move_trivialEEEPNS_4pairINS_12basic_stringIcNS_11char_traitsIcEENS_9allocatorIcEEEESD_EESF_NS_11__wrap_iterISF_EELi0EEENS7_IT0_T2_EESI_T1_SJ_, symObjAddr: 0x1CFFF, symBinAddr: 0x1D8AF, symSize: 0x45 }
  - { offsetInCU: 0x34F02, offset: 0x34F7E, size: 0x8, addend: 0x0, symName: __ZNSt3__121__unwrap_and_dispatchB8ue170006INS_10__overloadINS_11__move_loopINS_17_ClassicAlgPolicyEEENS_14__move_trivialEEEPNS_4pairINS_12basic_stringIcNS_11char_traitsIcEENS_9allocatorIcEEEESD_EESF_SF_Li0EEENS7_IT0_T2_EESG_T1_SH_, symObjAddr: 0x1D625, symBinAddr: 0x1DED5, symSize: 0x44 }
  - { offsetInCU: 0x350CB, offset: 0x35147, size: 0x8, addend: 0x0, symName: __ZNSt3__119__allocate_at_leastB8ue170006INS_9allocatorINS_12basic_stringIcNS_11char_traitsIcEENS1_IcEEEEEEEENS_19__allocation_resultINS_16allocator_traitsIT_E7pointerEEERSA_m, symObjAddr: 0x1DAD0, symBinAddr: 0x1E280, symSize: 0x38 }
  - { offsetInCU: 0x35168, offset: 0x351E4, size: 0x8, addend: 0x0, symName: __ZNSt3__128__exception_guard_exceptionsINS_29_AllocatorDestroyRangeReverseINS_9allocatorINS_12basic_stringIcNS_11char_traitsIcEENS2_IcEEEEEENS_16reverse_iteratorIPS7_EEEEED2B8ue170006Ev, symObjAddr: 0x1DB08, symBinAddr: 0x1E2B8, symSize: 0x1A }
  - { offsetInCU: 0x35734, offset: 0x357B0, size: 0x8, addend: 0x0, symName: __ZNSt3__119__allocate_at_leastB8ue170006INS_9allocatorIDiEEEENS_19__allocation_resultINS_16allocator_traitsIT_E7pointerEEERS5_m, symObjAddr: 0x1DDF8, symBinAddr: 0x1E4B8, symSize: 0x2E }
  - { offsetInCU: 0x357D1, offset: 0x3584D, size: 0x8, addend: 0x0, symName: __ZNSt3__112basic_stringIDiNS_11char_traitsIDiEENS_9allocatorIDiEEE18__shrink_or_extendEm, symObjAddr: 0x1DE26, symBinAddr: 0x1E4E6, symSize: 0x12C }
  - { offsetInCU: 0x3986A, offset: 0x398E6, size: 0x8, addend: 0x0, symName: __ZN2tl6detail15throw_exceptionINS_19bad_expected_accessIN3ada6errorsEEEEEvOT_, symObjAddr: 0x1A8A1, symBinAddr: 0x1BCE1, symSize: 0x3D }
  - { offsetInCU: 0x3BDBB, offset: 0x3BE37, size: 0x8, addend: 0x0, symName: __ZNSt3__16vectorINS_12basic_stringIcNS_11char_traitsIcEENS_9allocatorIcEEEENS4_IS6_EEE26__swap_out_circular_bufferERNS_14__split_bufferIS6_RS7_EE, symObjAddr: 0x1D9EE, symBinAddr: 0x1E19E, symSize: 0xD2 }
  - { offsetInCU: 0x3E78D, offset: 0x3E809, size: 0x8, addend: 0x0, symName: __ZNSt3__112basic_stringIDiNS_11char_traitsIDiEENS_9allocatorIDiEEE7reserveEm, symObjAddr: 0x7A6, symBinAddr: 0x1CA6, symSize: 0x74 }
  - { offsetInCU: 0x3E8A9, offset: 0x3E925, size: 0x8, addend: 0x0, symName: __ZNSt3__112basic_stringIDiNS_11char_traitsIDiEENS_9allocatorIDiEEE9push_backEDi, symObjAddr: 0x81A, symBinAddr: 0x1D1A, symSize: 0x92 }
  - { offsetInCU: 0x3EA67, offset: 0x3EAE3, size: 0x8, addend: 0x0, symName: __ZNSt3__112basic_stringIDiNS_11char_traitsIDiEENS_9allocatorIDiEEE25__init_copy_ctor_externalEPKDim, symObjAddr: 0x1E062, symBinAddr: 0x1E722, symSize: 0x7E }
  - { offsetInCU: 0x3ED9B, offset: 0x3EE17, size: 0x8, addend: 0x0, symName: __ZNSt3__112basic_stringIDiNS_11char_traitsIDiEENS_9allocatorIDiEEE6resizeEmDi, symObjAddr: 0x1E0E0, symBinAddr: 0x1E7A0, symSize: 0x44 }
  - { offsetInCU: 0x3EDA6, offset: 0x3EE22, size: 0x8, addend: 0x0, symName: __ZNSt3__112basic_stringIDiNS_11char_traitsIDiEENS_9allocatorIDiEEEC2B8ue170006ILi0EEEPKDi, symObjAddr: 0x1DD3A, symBinAddr: 0x1E3FA, symSize: 0xAE }
  - { offsetInCU: 0x3F114, offset: 0x3F190, size: 0x8, addend: 0x0, symName: __ZNSt3__112basic_stringIDiNS_11char_traitsIDiEENS_9allocatorIDiEEED1Ev, symObjAddr: 0x790, symBinAddr: 0x1C90, symSize: 0x16 }
  - { offsetInCU: 0x3F295, offset: 0x3F311, size: 0x8, addend: 0x0, symName: __ZNSt3__112basic_stringIDiNS_11char_traitsIDiEENS_9allocatorIDiEEE18__shrink_or_extendEm, symObjAddr: 0x1DE26, symBinAddr: 0x1E4E6, symSize: 0x12C }
  - { offsetInCU: 0x3F83B, offset: 0x3F8B7, size: 0x8, addend: 0x0, symName: __ZNKSt3__112basic_stringIDiNS_11char_traitsIDiEENS_9allocatorIDiEEE20__throw_length_errorB8ue170006Ev, symObjAddr: 0x1DDE8, symBinAddr: 0x1E4A8, symSize: 0x10 }
  - { offsetInCU: 0x3F864, offset: 0x3F8E0, size: 0x8, addend: 0x0, symName: __ZNSt3__119__allocate_at_leastB8ue170006INS_9allocatorIDiEEEENS_19__allocation_resultINS_16allocator_traitsIT_E7pointerEEERS5_m, symObjAddr: 0x1DDF8, symBinAddr: 0x1E4B8, symSize: 0x2E }
  - { offsetInCU: 0x3F949, offset: 0x3F9C5, size: 0x8, addend: 0x0, symName: __ZNSt3__112basic_stringIDiNS_11char_traitsIDiEENS_9allocatorIDiEEE9__grow_byEmmmmmm, symObjAddr: 0x1DF52, symBinAddr: 0x1E612, symSize: 0x110 }
  - { offsetInCU: 0x3FFC9, offset: 0x40045, size: 0x8, addend: 0x0, symName: __ZNSt3__112basic_stringIDiNS_11char_traitsIDiEENS_9allocatorIDiEEE6resizeEmDi, symObjAddr: 0x1E0E0, symBinAddr: 0x1E7A0, symSize: 0x44 }
  - { offsetInCU: 0x40336, offset: 0x403B2, size: 0x8, addend: 0x0, symName: __ZNSt3__112basic_stringIDiNS_11char_traitsIDiEENS_9allocatorIDiEEE6insertENS_11__wrap_iterIPKDiEEDi, symObjAddr: 0x1462, symBinAddr: 0x2962, symSize: 0x102 }
  - { offsetInCU: 0x41196, offset: 0x41212, size: 0x8, addend: 0x0, symName: __ZNSt3__112basic_stringIDiNS_11char_traitsIDiEENS_9allocatorIDiEEEC2B8ue170006EmDi, symObjAddr: 0x1E268, symBinAddr: 0x1E8A8, symSize: 0x86 }
  - { offsetInCU: 0x413AA, offset: 0x41426, size: 0x8, addend: 0x0, symName: __ZNKSt3__112basic_stringIDiNS_11char_traitsIDiEENS_9allocatorIDiEEE4findEDim, symObjAddr: 0x2DC2, symBinAddr: 0x42C2, symSize: 0x5B }
  - { offsetInCU: 0x41AD9, offset: 0x41B55, size: 0x8, addend: 0x0, symName: __ZNSt3__16__itoa13__base_10_u32B8ue170006EPcj, symObjAddr: 0x1E366, symBinAddr: 0x1E936, symSize: 0x2F9 }
  - { offsetInCU: 0x41AE4, offset: 0x41B60, size: 0x8, addend: 0x0, symName: __ZNSt3__112basic_stringIcNS_11char_traitsIcEENS_9allocatorIcEEEC1INS_17basic_string_viewIcS2_EELi0EEERKT_, symObjAddr: 0x3240, symBinAddr: 0x4740, symSize: 0x78 }
  - { offsetInCU: 0x41E88, offset: 0x41F04, size: 0x8, addend: 0x0, symName: __ZN3ada7unicode14percent_encodeENSt3__117basic_string_viewIcNS1_11char_traitsIcEEEEPKh, symObjAddr: 0x32B8, symBinAddr: 0x47B8, symSize: 0x165 }
  - { offsetInCU: 0x41F4B, offset: 0x41FC7, size: 0x8, addend: 0x0, symName: __ZNSt3__18optionalINS_12basic_stringIcNS_11char_traitsIcEENS_9allocatorIcEEEEEaSB8ue170006IS6_vEERS7_OT_, symObjAddr: 0x3580, symBinAddr: 0x4A80, symSize: 0x62 }
  - { offsetInCU: 0x422B7, offset: 0x42333, size: 0x8, addend: 0x0, symName: __ZNSt3__16__itoa10__integralILj16EE10__to_charsB8ue170006IjEENS_15to_chars_resultEPcS5_T_, symObjAddr: 0x1E6EC, symBinAddr: 0x1ECBC, symSize: 0x96 }
  - { offsetInCU: 0x42A29, offset: 0x42AA5, size: 0x8, addend: 0x0, symName: __ZN3ada3urlC2EOS0_, symObjAddr: 0x1A53E, symBinAddr: 0x1B97E, symSize: 0x176 }
  - { offsetInCU: 0x4317E, offset: 0x431FA, size: 0x8, addend: 0x0, symName: __ZN3ada3urlD2Ev, symObjAddr: 0x1A6D0, symBinAddr: 0x1BB10, symSize: 0xB4 }
  - { offsetInCU: 0x446A4, offset: 0x44720, size: 0x8, addend: 0x0, symName: __ZNSt3__18optionalINS_12basic_stringIcNS_11char_traitsIcEENS_9allocatorIcEEEEEaSB8ue170006IRA1_KcvEERS7_OT_, symObjAddr: 0x10E0E, symBinAddr: 0x122AE, symSize: 0x30 }
  - { offsetInCU: 0x44780, offset: 0x447FC, size: 0x8, addend: 0x0, symName: __ZNSt3__123__optional_storage_baseINS_12basic_stringIcNS_11char_traitsIcEENS_9allocatorIcEEEELb0EE13__assign_fromB8ue170006IRKNS_27__optional_copy_assign_baseIS6_Lb0EEEEEvOT_, symObjAddr: 0x1AB48, symBinAddr: 0x1BF58, symSize: 0x6B }
  - { offsetInCU: 0x449AE, offset: 0x44A2A, size: 0x8, addend: 0x0, symName: __ZNKSt3__117basic_string_viewIcNS_11char_traitsIcEEE13find_first_ofB8ue170006EPKcm, symObjAddr: 0xE8F8, symBinAddr: 0xFD98, symSize: 0x74 }
  - { offsetInCU: 0x44B1C, offset: 0x44B98, size: 0x8, addend: 0x0, symName: __ZN3ada3url10parse_ipv6ENSt3__117basic_string_viewIcNS1_11char_traitsIcEEEE, symObjAddr: 0xB21E, symBinAddr: 0xC71E, symSize: 0x2D8 }
  - { offsetInCU: 0x44E89, offset: 0x44F05, size: 0x8, addend: 0x0, symName: __ZN3ada3url17parse_opaque_hostENSt3__117basic_string_viewIcNS1_11char_traitsIcEEEE, symObjAddr: 0xACBA, symBinAddr: 0xC1BA, symSize: 0x72 }
  - { offsetInCU: 0x45034, offset: 0x450B0, size: 0x8, addend: 0x0, symName: __ZNSt3__16__itoa8__traitsItE6__readB8ue170006EPKcS4_RjS5_, symObjAddr: 0x1AD7E, symBinAddr: 0x1C18E, symSize: 0xE4 }
  - { offsetInCU: 0x45109, offset: 0x45185, size: 0x8, addend: 0x0, symName: __ZNKSt3__117basic_string_viewIcNS_11char_traitsIcEEE4findB8ue170006EPKcm, symObjAddr: 0x1A96A, symBinAddr: 0x1BDAA, symSize: 0xCB }
  - { offsetInCU: 0x452CF, offset: 0x4534B, size: 0x8, addend: 0x0, symName: __ZNSt3__18optionalINS_12basic_stringIcNS_11char_traitsIcEENS_9allocatorIcEEEEEaSB8ue170006IRNS_17basic_string_viewIcS3_EEvEERS7_OT_, symObjAddr: 0xB1E8, symBinAddr: 0xC6E8, symSize: 0x36 }
  - { offsetInCU: 0x45390, offset: 0x4540C, size: 0x8, addend: 0x0, symName: __ZNKSt3__112basic_stringIcNS_11char_traitsIcEENS_9allocatorIcEEE4findB8ue170006EPKcm, symObjAddr: 0x1ACAC, symBinAddr: 0x1C0BC, symSize: 0xD2 }
  - { offsetInCU: 0x455CC, offset: 0x45648, size: 0x8, addend: 0x0, symName: __ZNSt3__18optionalINS_12basic_stringIcNS_11char_traitsIcEENS_9allocatorIcEEEEEaSB8ue170006ENS_9nullopt_tE, symObjAddr: 0xEBDC, symBinAddr: 0x1007C, symSize: 0x2C }
  - { offsetInCU: 0x4572A, offset: 0x457A6, size: 0x8, addend: 0x0, symName: __ZN3ada3url10parse_ipv4ENSt3__117basic_string_viewIcNS1_11char_traitsIcEEEE, symObjAddr: 0xAD2C, symBinAddr: 0xC22C, symSize: 0x4BC }
  - { offsetInCU: 0x45EF5, offset: 0x45F71, size: 0x8, addend: 0x0, symName: __ZN3ada3url26update_unencoded_base_hashENSt3__117basic_string_viewIcNS1_11char_traitsIcEEEE, symObjAddr: 0x10BDA, symBinAddr: 0x1207A, symSize: 0x4C }
  - { offsetInCU: 0x4605E, offset: 0x460DA, size: 0x8, addend: 0x0, symName: __ZN3ada3urlD1Ev, symObjAddr: 0x6F58, symBinAddr: 0x8458, symSize: 0xA }
  - { offsetInCU: 0x46A4A, offset: 0x46AC6, size: 0x8, addend: 0x0, symName: __ZN3ada14url_aggregator20append_base_usernameENSt3__117basic_string_viewIcNS1_11char_traitsIcEEEE, symObjAddr: 0x114FA, symBinAddr: 0x1299A, symSize: 0x122 }
  - { offsetInCU: 0x46CCE, offset: 0x46D4A, size: 0x8, addend: 0x0, symName: __ZN3ada14url_aggregator20append_base_passwordENSt3__117basic_string_viewIcNS1_11char_traitsIcEEEE, symObjAddr: 0x11398, symBinAddr: 0x12838, symSize: 0x162 }
  - { offsetInCU: 0x46FA4, offset: 0x47020, size: 0x8, addend: 0x0, symName: __ZNK3ada14url_aggregator8get_hostEv, symObjAddr: 0x127D0, symBinAddr: 0x13C70, symSize: 0x54 }
  - { offsetInCU: 0x47155, offset: 0x471D1, size: 0x8, addend: 0x0, symName: __ZN3ada14url_aggregator20set_host_or_hostnameILb0EEEbNSt3__117basic_string_viewIcNS2_11char_traitsIcEEEE, symObjAddr: 0x142D4, symBinAddr: 0x15774, symSize: 0x13C2 }
  - { offsetInCU: 0x4A389, offset: 0x4A405, size: 0x8, addend: 0x0, symName: __ZNK3ada14url_aggregator12get_pathnameEv, symObjAddr: 0x11162, symBinAddr: 0x12602, symSize: 0x4C }
  - { offsetInCU: 0x4A4CA, offset: 0x4A546, size: 0x8, addend: 0x0, symName: __ZN3ada14url_aggregator10parse_ipv6ENSt3__117basic_string_viewIcNS1_11char_traitsIcEEEE, symObjAddr: 0x178A2, symBinAddr: 0x18D42, symSize: 0x304 }
  - { offsetInCU: 0x4A9E1, offset: 0x4AA5D, size: 0x8, addend: 0x0, symName: __ZN3ada14url_aggregator20update_base_hostnameENSt3__117basic_string_viewIcNS1_11char_traitsIcEEEE, symObjAddr: 0x11C00, symBinAddr: 0x130A0, symSize: 0x1CE }
  - { offsetInCU: 0x4ACD4, offset: 0x4AD50, size: 0x8, addend: 0x0, symName: __ZNK3ada14url_aggregator12get_hostnameEv, symObjAddr: 0x1181E, symBinAddr: 0x12CBE, symSize: 0x4C }
  - { offsetInCU: 0x4AE8B, offset: 0x4AF07, size: 0x8, addend: 0x0, symName: __ZN3ada14url_aggregator20set_host_or_hostnameILb1EEEbNSt3__117basic_string_viewIcNS2_11char_traitsIcEEEE, symObjAddr: 0x15696, symBinAddr: 0x16B36, symSize: 0x131C }
  - { offsetInCU: 0x4DE44, offset: 0x4DEC0, size: 0x8, addend: 0x0, symName: __ZN3ada14url_aggregator20update_base_pathnameENSt3__117basic_string_viewIcNS1_11char_traitsIcEEEE, symObjAddr: 0x10F16, symBinAddr: 0x123B6, symSize: 0x24C }
  - { offsetInCU: 0x4E346, offset: 0x4E3C2, size: 0x8, addend: 0x0, symName: __ZNK3ada14url_aggregator10get_searchEv, symObjAddr: 0x112A2, symBinAddr: 0x12742, symSize: 0x64 }
  - { offsetInCU: 0x4E445, offset: 0x4E4C1, size: 0x8, addend: 0x0, symName: __ZN3ada14url_aggregator18update_base_searchENSt3__117basic_string_viewIcNS1_11char_traitsIcEEEE, symObjAddr: 0x111AE, symBinAddr: 0x1264E, symSize: 0xF4 }
  - { offsetInCU: 0x4E5B4, offset: 0x4E630, size: 0x8, addend: 0x0, symName: __ZN3ada14url_aggregator21consume_prepared_pathENSt3__117basic_string_viewIcNS1_11char_traitsIcEEEE, symObjAddr: 0x11F60, symBinAddr: 0x13400, symSize: 0x866 }
  - { offsetInCU: 0x4FECF, offset: 0x4FF4B, size: 0x8, addend: 0x0, symName: __ZN3ada14url_aggregator17parse_opaque_hostENSt3__117basic_string_viewIcNS1_11char_traitsIcEEEE, symObjAddr: 0x17BA6, symBinAddr: 0x19046, symSize: 0xEC }
  - { offsetInCU: 0x502EC, offset: 0x50368, size: 0x8, addend: 0x0, symName: __ZN3ada14url_aggregator21update_base_authorityENSt3__117basic_string_viewIcNS1_11char_traitsIcEEEERKNS_14url_componentsE, symObjAddr: 0x1161C, symBinAddr: 0x12ABC, symSize: 0x1F8 }
  - { offsetInCU: 0x506BE, offset: 0x5073A, size: 0x8, addend: 0x0, symName: __ZN3ada14url_aggregator16update_base_portEj, symObjAddr: 0x1186A, symBinAddr: 0x12D0A, symSize: 0x16A }
  - { offsetInCU: 0x50B05, offset: 0x50B81, size: 0x8, addend: 0x0, symName: __ZN3ada14url_aggregator10set_schemeENSt3__117basic_string_viewIcNS1_11char_traitsIcEEEE, symObjAddr: 0x1EC4A, symBinAddr: 0x1F14A, symSize: 0x136 }
  - { offsetInCU: 0x50CE5, offset: 0x50D61, size: 0x8, addend: 0x0, symName: __ZN3ada14url_aggregator14clear_pathnameEv, symObjAddr: 0x128E6, symBinAddr: 0x13D86, symSize: 0xBA }
  - { offsetInCU: 0x50DE7, offset: 0x50E63, size: 0x8, addend: 0x0, symName: __ZN3ada14url_aggregator10parse_ipv4ENSt3__117basic_string_viewIcNS1_11char_traitsIcEEEE, symObjAddr: 0x173C6, symBinAddr: 0x18866, symSize: 0x4DC }
  - { offsetInCU: 0x51737, offset: 0x517B3, size: 0x8, addend: 0x0, symName: __ZN3ada14url_aggregator20append_base_pathnameENSt3__117basic_string_viewIcNS1_11char_traitsIcEEEE, symObjAddr: 0x12824, symBinAddr: 0x13CC4, symSize: 0x67 }
  - { offsetInCU: 0x51802, offset: 0x5187E, size: 0x8, addend: 0x0, symName: __ZN3ada14url_aggregator18update_base_searchENSt3__117basic_string_viewIcNS1_11char_traitsIcEEEEPKh, symObjAddr: 0x11A1A, symBinAddr: 0x12EBA, symSize: 0x1E6 }
  - { offsetInCU: 0x51E19, offset: 0x51E95, size: 0x8, addend: 0x0, symName: __ZN3ada14url_aggregator26update_unencoded_base_hashENSt3__117basic_string_viewIcNS1_11char_traitsIcEEEE, symObjAddr: 0x11306, symBinAddr: 0x127A6, symSize: 0x92 }
  - { offsetInCU: 0x51F40, offset: 0x51FBC, size: 0x8, addend: 0x0, symName: __ZN3ada14url_aggregator11copy_schemeERKS0_, symObjAddr: 0x10E62, symBinAddr: 0x12302, symSize: 0xB4 }
  - { offsetInCU: 0x5201A, offset: 0x52096, size: 0x8, addend: 0x0, symName: __ZN3ada14url_aggregatorD1Ev, symObjAddr: 0x9DD8, symBinAddr: 0xB2D8, symSize: 0x20 }
  - { offsetInCU: 0x523A1, offset: 0x5241D, size: 0x8, addend: 0x0, symName: __ZN2tl6detail24expected_operations_baseIN3ada14url_aggregatorENS2_6errorsEE6assignIS3_LPv0EEEvOS5_, symObjAddr: 0x1A784, symBinAddr: 0x1BBC4, symSize: 0x72 }
  - { offsetInCU: 0x524F4, offset: 0x52570, size: 0x8, addend: 0x0, symName: __ZNR2tl8expectedIN3ada14url_aggregatorENS1_6errorsEE5valueIS2_LPv0EEERT_v, symObjAddr: 0xABAC, symBinAddr: 0xC0AC, symSize: 0x4B }
  - { offsetInCU: 0x5280A, offset: 0x52886, size: 0x8, addend: 0x0, symName: __ZNSt3__16__itoa8__traitsIjE6__readB8ue170006EPKcS4_RjS5_, symObjAddr: 0x1E782, symBinAddr: 0x1ED52, symSize: 0xE4 }
  - { offsetInCU: 0x528DF, offset: 0x5295B, size: 0x8, addend: 0x0, symName: __ZNSt3__123__optional_storage_baseINS_12basic_stringIcNS_11char_traitsIcEENS_9allocatorIcEEEELb0EE11__constructB8ue170006IJRNS_17basic_string_viewIcS3_EEEEEvDpOT_, symObjAddr: 0x1DBBE, symBinAddr: 0x1E36E, symSize: 0x86 }
  - { offsetInCU: 0x52DA5, offset: 0x52E21, size: 0x8, addend: 0x0, symName: __ZNK3ada3url9to_stringEv, symObjAddr: 0xB4F6, symBinAddr: 0xC9F6, symSize: 0x3DA }
  - { offsetInCU: 0x53BFD, offset: 0x53C79, size: 0x8, addend: 0x0, symName: __ZNK3ada3url12get_protocolEv, symObjAddr: 0xB9AA, symBinAddr: 0xCEAA, symSize: 0xA8 }
  - { offsetInCU: 0x53E41, offset: 0x53EBD, size: 0x8, addend: 0x0, symName: __ZNK3ada3url16has_valid_domainEv, symObjAddr: 0xBA52, symBinAddr: 0xCF52, symSize: 0xA0 }
  - { offsetInCU: 0x541C1, offset: 0x5423D, size: 0x8, addend: 0x0, symName: __ZNK3ada3url10get_originEv, symObjAddr: 0xBAF2, symBinAddr: 0xCFF2, symSize: 0x1DC }
  - { offsetInCU: 0x54AF4, offset: 0x54B70, size: 0x8, addend: 0x0, symName: __ZNK3ada3url8get_hostEv, symObjAddr: 0xBDC2, symBinAddr: 0xD2C2, symSize: 0x148 }
  - { offsetInCU: 0x5539C, offset: 0x55418, size: 0x8, addend: 0x0, symName: __ZNSt3__120__optional_copy_baseINS_12basic_stringIcNS_11char_traitsIcEENS_9allocatorIcEEEELb0EEC2B8ue170006ERKS7_, symObjAddr: 0x1E9D6, symBinAddr: 0x1EF46, symSize: 0x34 }
  - { offsetInCU: 0x553A7, offset: 0x55423, size: 0x8, addend: 0x0, symName: __ZNK3ada3url8get_portEv, symObjAddr: 0xC080, symBinAddr: 0xD520, symSize: 0x3E }
  - { offsetInCU: 0x5545B, offset: 0x554D7, size: 0x8, addend: 0x0, symName: __ZN2tl6detail18expected_copy_baseIN3ada14url_aggregatorENS2_6errorsELb0EEC2ERKS5_, symObjAddr: 0x1B0D2, symBinAddr: 0x1C4D2, symSize: 0x3C }
  - { offsetInCU: 0x55466, offset: 0x554E2, size: 0x8, addend: 0x0, symName: __ZNK3ada3url12get_hostnameEv, symObjAddr: 0xC0BE, symBinAddr: 0xD55E, symSize: 0x2C }
  - { offsetInCU: 0x5549D, offset: 0x55519, size: 0x8, addend: 0x0, symName: __ZNKRSt3__18optionalINS_12basic_stringIcNS_11char_traitsIcEENS_9allocatorIcEEEEE8value_orB8ue170006IRA1_KcEES6_OT_, symObjAddr: 0xC0EA, symBinAddr: 0xD58A, symSize: 0x4C }
  - { offsetInCU: 0x555B4, offset: 0x55630, size: 0x8, addend: 0x0, symName: __ZNK3ada3url12get_pathnameEv, symObjAddr: 0xC136, symBinAddr: 0xD5D6, symSize: 0x24 }
  - { offsetInCU: 0x556C7, offset: 0x55743, size: 0x8, addend: 0x0, symName: __ZNK3ada3url10get_searchEv, symObjAddr: 0xC15A, symBinAddr: 0xD5FA, symSize: 0x64 }
  - { offsetInCU: 0x557D7, offset: 0x55853, size: 0x8, addend: 0x0, symName: __ZNK3ada3url12get_usernameEv, symObjAddr: 0xC1BE, symBinAddr: 0xD65E, symSize: 0xA }
  - { offsetInCU: 0x557FF, offset: 0x5587B, size: 0x8, addend: 0x0, symName: __ZNK3ada3url12get_passwordEv, symObjAddr: 0xC1C8, symBinAddr: 0xD668, symSize: 0xA }
  - { offsetInCU: 0x55827, offset: 0x558A3, size: 0x8, addend: 0x0, symName: __ZNK3ada3url8get_hashEv, symObjAddr: 0xC1D2, symBinAddr: 0xD672, symSize: 0x64 }
  - { offsetInCU: 0x55937, offset: 0x559B3, size: 0x8, addend: 0x0, symName: __ZN3ada3url8set_hostENSt3__117basic_string_viewIcNS1_11char_traitsIcEEEE, symObjAddr: 0xC236, symBinAddr: 0xD6D6, symSize: 0xA }
  - { offsetInCU: 0x5597C, offset: 0x559F8, size: 0x8, addend: 0x0, symName: __ZN3ada3url20set_host_or_hostnameILb0EEEbNSt3__117basic_string_viewIcNS2_11char_traitsIcEEEE, symObjAddr: 0xC240, symBinAddr: 0xD6E0, symSize: 0x1240 }
  - { offsetInCU: 0x5866A, offset: 0x586E6, size: 0x8, addend: 0x0, symName: __ZNSt3__120__optional_copy_baseINS_12basic_stringIcNS_11char_traitsIcEENS_9allocatorIcEEEELb0EEC2B8ue170006ERKS7_, symObjAddr: 0x1E9D6, symBinAddr: 0x1EF46, symSize: 0x34 }
  - { offsetInCU: 0x5896E, offset: 0x589EA, size: 0x8, addend: 0x0, symName: __ZN3ada6scheme15get_scheme_typeENSt3__117basic_string_viewIcNS1_11char_traitsIcEEEE, symObjAddr: 0x1EAC1, symBinAddr: 0x1EFC1, symSize: 0x7D }
  - { offsetInCU: 0x58979, offset: 0x589F5, size: 0x8, addend: 0x0, symName: __ZN3ada3url8set_portENSt3__117basic_string_viewIcNS1_11char_traitsIcEEEE, symObjAddr: 0xE72C, symBinAddr: 0xFBCC, symSize: 0x1CC }
  - { offsetInCU: 0x59257, offset: 0x592D3, size: 0x8, addend: 0x0, symName: __ZN3ada3url12set_hostnameENSt3__117basic_string_viewIcNS1_11char_traitsIcEEEE, symObjAddr: 0xD480, symBinAddr: 0xE920, symSize: 0xA }
  - { offsetInCU: 0x5929C, offset: 0x59318, size: 0x8, addend: 0x0, symName: __ZN3ada3url20set_host_or_hostnameILb1EEEbNSt3__117basic_string_viewIcNS2_11char_traitsIcEEEE, symObjAddr: 0xD48A, symBinAddr: 0xE92A, symSize: 0x11BE }
  - { offsetInCU: 0x5BDA0, offset: 0x5BE1C, size: 0x8, addend: 0x0, symName: __ZN3ada3url12set_usernameENSt3__117basic_string_viewIcNS1_11char_traitsIcEEEE, symObjAddr: 0xE648, symBinAddr: 0xFAE8, symSize: 0x72 }
  - { offsetInCU: 0x5BFF0, offset: 0x5C06C, size: 0x8, addend: 0x0, symName: __ZN3ada3url12set_passwordENSt3__117basic_string_viewIcNS1_11char_traitsIcEEEE, symObjAddr: 0xE6BA, symBinAddr: 0xFB5A, symSize: 0x72 }
  - { offsetInCU: 0x5C2A2, offset: 0x5C31E, size: 0x8, addend: 0x0, symName: __ZN3ada3url8set_hashENSt3__117basic_string_viewIcNS1_11char_traitsIcEEEE, symObjAddr: 0xE96C, symBinAddr: 0xFE0C, symSize: 0x270 }
  - { offsetInCU: 0x5CF2E, offset: 0x5CFAA, size: 0x8, addend: 0x0, symName: __ZN3ada3url10set_searchENSt3__117basic_string_viewIcNS1_11char_traitsIcEEEE, symObjAddr: 0xEC08, symBinAddr: 0x100A8, symSize: 0x27C }
  - { offsetInCU: 0x5DC24, offset: 0x5DCA0, size: 0x8, addend: 0x0, symName: __ZN3ada3url12set_pathnameENSt3__117basic_string_viewIcNS1_11char_traitsIcEEEE, symObjAddr: 0xEE84, symBinAddr: 0x10324, symSize: 0x178C }
  - { offsetInCU: 0x60F02, offset: 0x60F7E, size: 0x8, addend: 0x0, symName: __ZN3ada3url12set_protocolENSt3__117basic_string_viewIcNS1_11char_traitsIcEEEE, symObjAddr: 0x10610, symBinAddr: 0x11AB0, symSize: 0x472 }
  - { offsetInCU: 0x623D7, offset: 0x62453, size: 0x8, addend: 0x0, symName: __ZN3ada3url10set_schemeEONSt3__112basic_stringIcNS1_11char_traitsIcEENS1_9allocatorIcEEEE, symObjAddr: 0x1EB3E, symBinAddr: 0x1F03E, symSize: 0x54 }
  - { offsetInCU: 0x624A8, offset: 0x62524, size: 0x8, addend: 0x0, symName: __ZN3ada3url8set_hrefENSt3__117basic_string_viewIcNS1_11char_traitsIcEEEE, symObjAddr: 0x10A82, symBinAddr: 0x11F22, symSize: 0x158 }
  - { offsetInCU: 0x62AA4, offset: 0x62B20, size: 0x8, addend: 0x0, symName: __ZN3ada3url12clear_searchEv, symObjAddr: 0x10C26, symBinAddr: 0x120C6, symSize: 0x36 }
  - { offsetInCU: 0x62C2E, offset: 0x62CAA, size: 0x8, addend: 0x0, symName: __ZN3ada3url10parse_portENSt3__117basic_string_viewIcNS1_11char_traitsIcEEEEb, symObjAddr: 0x10C5C, symBinAddr: 0x120FC, symSize: 0x164 }
  - { offsetInCU: 0x62E44, offset: 0x62EC0, size: 0x8, addend: 0x0, symName: __ZN3ada3url14clear_pathnameEv, symObjAddr: 0x10E3E, symBinAddr: 0x122DE, symSize: 0x24 }
  - { offsetInCU: 0x63047, offset: 0x630C3, size: 0x8, addend: 0x0, symName: __ZN3ada14url_aggregator15delete_dash_dotEv, symObjAddr: 0x18D78, symBinAddr: 0x1A218, symSize: 0x41 }
  - { offsetInCU: 0x630A1, offset: 0x6311D, size: 0x8, addend: 0x0, symName: __ZN3ada14url_aggregator12set_hostnameENSt3__117basic_string_viewIcNS1_11char_traitsIcEEEE, symObjAddr: 0x11814, symBinAddr: 0x12CB4, symSize: 0xA }
  - { offsetInCU: 0x63105, offset: 0x63181, size: 0x8, addend: 0x0, symName: __ZN3ada14url_aggregator12clear_searchEv, symObjAddr: 0x119D4, symBinAddr: 0x12E74, symSize: 0x46 }
  - { offsetInCU: 0x631F1, offset: 0x6326D, size: 0x8, addend: 0x0, symName: __ZN3ada14url_aggregator10parse_portENSt3__117basic_string_viewIcNS1_11char_traitsIcEEEEb, symObjAddr: 0x11DCE, symBinAddr: 0x1326E, symSize: 0x192 }
  - { offsetInCU: 0x63425, offset: 0x634A1, size: 0x8, addend: 0x0, symName: __ZN3ada14url_aggregator8set_hostENSt3__117basic_string_viewIcNS1_11char_traitsIcEEEE, symObjAddr: 0x127C6, symBinAddr: 0x13C66, symSize: 0xA }
  - { offsetInCU: 0x63492, offset: 0x6350E, size: 0x8, addend: 0x0, symName: __ZNK3ada14url_components24check_offset_consistencyEv, symObjAddr: 0x129A0, symBinAddr: 0x13E40, symSize: 0x8E }
  - { offsetInCU: 0x6352D, offset: 0x635A9, size: 0x8, addend: 0x0, symName: __ZNK3ada14url_components9to_stringEv, symObjAddr: 0x12A2E, symBinAddr: 0x13ECE, symSize: 0x378 }
  - { offsetInCU: 0x64578, offset: 0x645F4, size: 0x8, addend: 0x0, symName: __ZN3ada14url_aggregator12set_protocolENSt3__117basic_string_viewIcNS1_11char_traitsIcEEEE, symObjAddr: 0x12DA6, symBinAddr: 0x14246, symSize: 0x41E }
  - { offsetInCU: 0x65718, offset: 0x65794, size: 0x8, addend: 0x0, symName: __ZN3ada14url_aggregator31set_scheme_from_view_with_colonENSt3__117basic_string_viewIcNS1_11char_traitsIcEEEE, symObjAddr: 0x1EB92, symBinAddr: 0x1F092, symSize: 0xB8 }
  - { offsetInCU: 0x6580A, offset: 0x65886, size: 0x8, addend: 0x0, symName: __ZN3ada14url_aggregator10clear_portEv, symObjAddr: 0x139EC, symBinAddr: 0x14E8C, symSize: 0x52 }
  - { offsetInCU: 0x6584D, offset: 0x658C9, size: 0x8, addend: 0x0, symName: __ZN3ada14url_aggregator12set_usernameENSt3__117basic_string_viewIcNS1_11char_traitsIcEEEE, symObjAddr: 0x131C4, symBinAddr: 0x14664, symSize: 0xDC }
  - { offsetInCU: 0x65C5F, offset: 0x65CDB, size: 0x8, addend: 0x0, symName: __ZN3ada14url_aggregator20update_base_usernameENSt3__117basic_string_viewIcNS1_11char_traitsIcEEEE, symObjAddr: 0x132A0, symBinAddr: 0x14740, symSize: 0x24A }
  - { offsetInCU: 0x6607A, offset: 0x660F6, size: 0x8, addend: 0x0, symName: __ZN3ada14url_aggregator12set_passwordENSt3__117basic_string_viewIcNS1_11char_traitsIcEEEE, symObjAddr: 0x134EA, symBinAddr: 0x1498A, symSize: 0xDC }
  - { offsetInCU: 0x6648C, offset: 0x66508, size: 0x8, addend: 0x0, symName: __ZN3ada14url_aggregator20update_base_passwordENSt3__117basic_string_viewIcNS1_11char_traitsIcEEEE, symObjAddr: 0x135C6, symBinAddr: 0x14A66, symSize: 0x210 }
  - { offsetInCU: 0x668BC, offset: 0x66938, size: 0x8, addend: 0x0, symName: __ZN3ada14url_aggregator8set_portENSt3__117basic_string_viewIcNS1_11char_traitsIcEEEE, symObjAddr: 0x137D6, symBinAddr: 0x14C76, symSize: 0x216 }
  - { offsetInCU: 0x6722C, offset: 0x672A8, size: 0x8, addend: 0x0, symName: __ZN3ada14url_aggregator12set_pathnameENSt3__117basic_string_viewIcNS1_11char_traitsIcEEEE, symObjAddr: 0x13A3E, symBinAddr: 0x14EDE, symSize: 0x2F0 }
  - { offsetInCU: 0x67B89, offset: 0x67C05, size: 0x8, addend: 0x0, symName: __ZNK3ada14url_aggregator12has_dash_dotEv, symObjAddr: 0x13D2E, symBinAddr: 0x151CE, symSize: 0x42 }
  - { offsetInCU: 0x67C0E, offset: 0x67C8A, size: 0x8, addend: 0x0, symName: __ZN3ada14url_aggregator10set_searchENSt3__117basic_string_viewIcNS1_11char_traitsIcEEEE, symObjAddr: 0x13D70, symBinAddr: 0x15210, symSize: 0x230 }
  - { offsetInCU: 0x685F3, offset: 0x6866F, size: 0x8, addend: 0x0, symName: __ZN3ada14url_aggregator8set_hashENSt3__117basic_string_viewIcNS1_11char_traitsIcEEEE, symObjAddr: 0x13FA0, symBinAddr: 0x15440, symSize: 0x294 }
  - { offsetInCU: 0x6910A, offset: 0x69186, size: 0x8, addend: 0x0, symName: __ZN3ada14url_aggregator8set_hrefENSt3__117basic_string_viewIcNS1_11char_traitsIcEEEE, symObjAddr: 0x14234, symBinAddr: 0x156D4, symSize: 0xA0 }
  - { offsetInCU: 0x6953C, offset: 0x695B8, size: 0x8, addend: 0x0, symName: __ZN3ada14url_aggregator8set_hrefENSt3__117basic_string_viewIcNS1_11char_traitsIcEEEE.cold.1, symObjAddr: 0x1EE40, symBinAddr: 0xC727A0, symSize: 0x1E }
  - { offsetInCU: 0x69765, offset: 0x697E1, size: 0x8, addend: 0x0, symName: __ZNK3ada14url_aggregator8has_portEv, symObjAddr: 0x19512, symBinAddr: 0x1A9B2, symSize: 0x44 }
  - { offsetInCU: 0x698EC, offset: 0x69968, size: 0x8, addend: 0x0, symName: __ZN3ada14url_aggregator31add_authority_slashes_if_neededEv, symObjAddr: 0x1AF28, symBinAddr: 0x1C338, symSize: 0x8F }
  - { offsetInCU: 0x69A5F, offset: 0x69ADB, size: 0x8, addend: 0x0, symName: __ZN3ada14url_aggregator14clear_hostnameEv, symObjAddr: 0x1ED80, symBinAddr: 0x1F280, symSize: 0xB0 }
  - { offsetInCU: 0x69C2C, offset: 0x69CA8, size: 0x8, addend: 0x0, symName: __ZN3ada14url_aggregator20set_host_or_hostnameILb0EEEbNSt3__117basic_string_viewIcNS2_11char_traitsIcEEEE.cold.2, symObjAddr: 0x1EE72, symBinAddr: 0xC727D2, symSize: 0x14 }
  - { offsetInCU: 0x69DF7, offset: 0x69E73, size: 0x8, addend: 0x0, symName: __ZN3ada14url_aggregator20set_host_or_hostnameILb0EEEbNSt3__117basic_string_viewIcNS2_11char_traitsIcEEEE.cold.1, symObjAddr: 0x1EE5E, symBinAddr: 0xC727BE, symSize: 0x14 }
  - { offsetInCU: 0x69FC2, offset: 0x6A03E, size: 0x8, addend: 0x0, symName: __ZNK3ada14url_aggregator12has_hostnameEv, symObjAddr: 0x19456, symBinAddr: 0x1A8F6, symSize: 0x3C }
  - { offsetInCU: 0x6A125, offset: 0x6A1A1, size: 0x8, addend: 0x0, symName: __ZN3ada14url_aggregator20set_host_or_hostnameILb1EEEbNSt3__117basic_string_viewIcNS2_11char_traitsIcEEEE.cold.2, symObjAddr: 0x1EE9A, symBinAddr: 0xC727FA, symSize: 0x14 }
  - { offsetInCU: 0x6A2F0, offset: 0x6A36C, size: 0x8, addend: 0x0, symName: __ZN3ada14url_aggregator20set_host_or_hostnameILb1EEEbNSt3__117basic_string_viewIcNS2_11char_traitsIcEEEE.cold.1, symObjAddr: 0x1EE86, symBinAddr: 0xC727E6, symSize: 0x14 }
  - { offsetInCU: 0x6A4BB, offset: 0x6A537, size: 0x8, addend: 0x0, symName: __ZNK3ada14url_aggregator10get_originEv, symObjAddr: 0x169B2, symBinAddr: 0x17E52, symSize: 0x150 }
  - { offsetInCU: 0x6ACD3, offset: 0x6AD4F, size: 0x8, addend: 0x0, symName: __ZNK3ada14url_aggregator12get_protocolEv, symObjAddr: 0x16B6A, symBinAddr: 0x1800A, symSize: 0x1C }
  - { offsetInCU: 0x6ADAF, offset: 0x6AE2B, size: 0x8, addend: 0x0, symName: __ZNK3ada14url_aggregator12get_usernameEv, symObjAddr: 0x16B86, symBinAddr: 0x18026, symSize: 0x3A }
  - { offsetInCU: 0x6AEB4, offset: 0x6AF30, size: 0x8, addend: 0x0, symName: __ZNK3ada14url_aggregator12get_passwordEv, symObjAddr: 0x16BC0, symBinAddr: 0x18060, symSize: 0x36 }
  - { offsetInCU: 0x6AFB5, offset: 0x6B031, size: 0x8, addend: 0x0, symName: __ZNK3ada14url_aggregator8get_portEv, symObjAddr: 0x16BF6, symBinAddr: 0x18096, symSize: 0x38 }
  - { offsetInCU: 0x6B09D, offset: 0x6B119, size: 0x8, addend: 0x0, symName: __ZNK3ada14url_aggregator8get_hashEv, symObjAddr: 0x16C2E, symBinAddr: 0x180CE, symSize: 0x72 }
  - { offsetInCU: 0x6B1FA, offset: 0x6B276, size: 0x8, addend: 0x0, symName: __ZNK3ada14url_aggregator9to_stringEv, symObjAddr: 0x16CA0, symBinAddr: 0x18140, symSize: 0x69A }
  - { offsetInCU: 0x6C915, offset: 0x6C991, size: 0x8, addend: 0x0, symName: __ZNK3ada14url_aggregator16has_valid_domainEv, symObjAddr: 0x1733A, symBinAddr: 0x187DA, symSize: 0x8C }
  - { offsetInCU: 0x6CA49, offset: 0x6CAC5, size: 0x8, addend: 0x0, symName: __ZNK3ada14url_aggregator10to_diagramEv, symObjAddr: 0x17C92, symBinAddr: 0x19132, symSize: 0xDF4 }
  - { offsetInCU: 0x703A6, offset: 0x70422, size: 0x8, addend: 0x0, symName: __ZNK3ada14url_aggregator8validateEv, symObjAddr: 0x18A86, symBinAddr: 0x19F26, symSize: 0x2F2 }
  - { offsetInCU: 0x7099E, offset: 0x70A1A, size: 0x8, addend: 0x0, symName: __Z12get_instancePv, symObjAddr: 0x18DB9, symBinAddr: 0x1A259, symSize: 0x9 }
  - { offsetInCU: 0x709CC, offset: 0x70A48, size: 0x8, addend: 0x0, symName: _ada_string_create, symObjAddr: 0x18DC2, symBinAddr: 0x1A262, symSize: 0xC }
  - { offsetInCU: 0x70A14, offset: 0x70A90, size: 0x8, addend: 0x0, symName: _ada_parse, symObjAddr: 0x18DCE, symBinAddr: 0x1A26E, symSize: 0x43 }
  - { offsetInCU: 0x70B1B, offset: 0x70B97, size: 0x8, addend: 0x0, symName: _ada_parse_with_base, symObjAddr: 0x18E11, symBinAddr: 0x1A2B1, symSize: 0xA2 }
  - { offsetInCU: 0x70ED4, offset: 0x70F50, size: 0x8, addend: 0x0, symName: __ZN2tl6detail18expected_copy_baseIN3ada14url_aggregatorENS2_6errorsELb0EEC2ERKS5_, symObjAddr: 0x1B0D2, symBinAddr: 0x1C4D2, symSize: 0x3C }
  - { offsetInCU: 0x70FDD, offset: 0x71059, size: 0x8, addend: 0x0, symName: _ada_can_parse, symObjAddr: 0x18EB3, symBinAddr: 0x1A353, symSize: 0x15 }
  - { offsetInCU: 0x7108A, offset: 0x71106, size: 0x8, addend: 0x0, symName: _ada_can_parse_with_base, symObjAddr: 0x18EC8, symBinAddr: 0x1A368, symSize: 0x29 }
  - { offsetInCU: 0x7115C, offset: 0x711D8, size: 0x8, addend: 0x0, symName: _ada_free, symObjAddr: 0x18EF1, symBinAddr: 0x1A391, symSize: 0x3C }
  - { offsetInCU: 0x713C8, offset: 0x71444, size: 0x8, addend: 0x0, symName: _ada_copy, symObjAddr: 0x18F2D, symBinAddr: 0x1A3CD, symSize: 0x32 }
  - { offsetInCU: 0x714C5, offset: 0x71541, size: 0x8, addend: 0x0, symName: _ada_is_valid, symObjAddr: 0x18F5F, symBinAddr: 0x1A3FF, symSize: 0x9 }
  - { offsetInCU: 0x7151A, offset: 0x71596, size: 0x8, addend: 0x0, symName: _ada_get_origin, symObjAddr: 0x18F68, symBinAddr: 0x1A408, symSize: 0x95 }
  - { offsetInCU: 0x7172E, offset: 0x717AA, size: 0x8, addend: 0x0, symName: _ada_free_owned_string, symObjAddr: 0x18FFD, symBinAddr: 0x1A49D, symSize: 0x11 }
  - { offsetInCU: 0x71756, offset: 0x717D2, size: 0x8, addend: 0x0, symName: _ada_get_href, symObjAddr: 0x1900E, symBinAddr: 0x1A4AE, symSize: 0x2F }
  - { offsetInCU: 0x718C9, offset: 0x71945, size: 0x8, addend: 0x0, symName: _ada_get_username, symObjAddr: 0x1903D, symBinAddr: 0x1A4DD, symSize: 0x43 }
  - { offsetInCU: 0x71A2E, offset: 0x71AAA, size: 0x8, addend: 0x0, symName: _ada_get_password, symObjAddr: 0x19080, symBinAddr: 0x1A520, symSize: 0x40 }
  - { offsetInCU: 0x71BA8, offset: 0x71C24, size: 0x8, addend: 0x0, symName: _ada_get_port, symObjAddr: 0x190C0, symBinAddr: 0x1A560, symSize: 0x42 }
  - { offsetInCU: 0x71CF0, offset: 0x71D6C, size: 0x8, addend: 0x0, symName: _ada_get_hash, symObjAddr: 0x19102, symBinAddr: 0x1A5A2, symSize: 0x16 }
  - { offsetInCU: 0x71D5E, offset: 0x71DDA, size: 0x8, addend: 0x0, symName: _ada_get_host, symObjAddr: 0x19118, symBinAddr: 0x1A5B8, symSize: 0x16 }
  - { offsetInCU: 0x71DCC, offset: 0x71E48, size: 0x8, addend: 0x0, symName: _ada_get_hostname, symObjAddr: 0x1912E, symBinAddr: 0x1A5CE, symSize: 0x16 }
  - { offsetInCU: 0x71E3A, offset: 0x71EB6, size: 0x8, addend: 0x0, symName: _ada_get_pathname, symObjAddr: 0x19144, symBinAddr: 0x1A5E4, symSize: 0x16 }
  - { offsetInCU: 0x71EA8, offset: 0x71F24, size: 0x8, addend: 0x0, symName: _ada_get_search, symObjAddr: 0x1915A, symBinAddr: 0x1A5FA, symSize: 0x16 }
  - { offsetInCU: 0x71F16, offset: 0x71F92, size: 0x8, addend: 0x0, symName: _ada_get_protocol, symObjAddr: 0x19170, symBinAddr: 0x1A610, symSize: 0x28 }
  - { offsetInCU: 0x72062, offset: 0x720DE, size: 0x8, addend: 0x0, symName: _ada_get_host_type, symObjAddr: 0x19198, symBinAddr: 0x1A638, symSize: 0x16 }
  - { offsetInCU: 0x720B7, offset: 0x72133, size: 0x8, addend: 0x0, symName: _ada_get_scheme_type, symObjAddr: 0x191AE, symBinAddr: 0x1A64E, symSize: 0x16 }
  - { offsetInCU: 0x7210C, offset: 0x72188, size: 0x8, addend: 0x0, symName: _ada_set_href, symObjAddr: 0x191C4, symBinAddr: 0x1A664, symSize: 0x1D }
  - { offsetInCU: 0x72192, offset: 0x7220E, size: 0x8, addend: 0x0, symName: _ada_set_host, symObjAddr: 0x191E1, symBinAddr: 0x1A681, symSize: 0x1D }
  - { offsetInCU: 0x72240, offset: 0x722BC, size: 0x8, addend: 0x0, symName: _ada_set_hostname, symObjAddr: 0x191FE, symBinAddr: 0x1A69E, symSize: 0x1D }
  - { offsetInCU: 0x722EE, offset: 0x7236A, size: 0x8, addend: 0x0, symName: _ada_set_protocol, symObjAddr: 0x1921B, symBinAddr: 0x1A6BB, symSize: 0x1D }
  - { offsetInCU: 0x72374, offset: 0x723F0, size: 0x8, addend: 0x0, symName: _ada_set_username, symObjAddr: 0x19238, symBinAddr: 0x1A6D8, symSize: 0x1D }
  - { offsetInCU: 0x723FA, offset: 0x72476, size: 0x8, addend: 0x0, symName: _ada_set_password, symObjAddr: 0x19255, symBinAddr: 0x1A6F5, symSize: 0x1D }
  - { offsetInCU: 0x72480, offset: 0x724FC, size: 0x8, addend: 0x0, symName: _ada_set_port, symObjAddr: 0x19272, symBinAddr: 0x1A712, symSize: 0x1D }
  - { offsetInCU: 0x72506, offset: 0x72582, size: 0x8, addend: 0x0, symName: _ada_set_pathname, symObjAddr: 0x1928F, symBinAddr: 0x1A72F, symSize: 0x1D }
  - { offsetInCU: 0x7258C, offset: 0x72608, size: 0x8, addend: 0x0, symName: _ada_set_search, symObjAddr: 0x192AC, symBinAddr: 0x1A74C, symSize: 0x19 }
  - { offsetInCU: 0x7260E, offset: 0x7268A, size: 0x8, addend: 0x0, symName: _ada_set_hash, symObjAddr: 0x192C5, symBinAddr: 0x1A765, symSize: 0x19 }
  - { offsetInCU: 0x72690, offset: 0x7270C, size: 0x8, addend: 0x0, symName: _ada_clear_port, symObjAddr: 0x192DE, symBinAddr: 0x1A77E, symSize: 0x60 }
  - { offsetInCU: 0x72723, offset: 0x7279F, size: 0x8, addend: 0x0, symName: _ada_clear_hash, symObjAddr: 0x1933E, symBinAddr: 0x1A7DE, symSize: 0x3D }
  - { offsetInCU: 0x727B9, offset: 0x72835, size: 0x8, addend: 0x0, symName: _ada_clear_search, symObjAddr: 0x1937B, symBinAddr: 0x1A81B, symSize: 0x1A }
  - { offsetInCU: 0x7281A, offset: 0x72896, size: 0x8, addend: 0x0, symName: _ada_has_credentials, symObjAddr: 0x19395, symBinAddr: 0x1A835, symSize: 0x25 }
  - { offsetInCU: 0x728DE, offset: 0x7295A, size: 0x8, addend: 0x0, symName: _ada_has_empty_hostname, symObjAddr: 0x193BA, symBinAddr: 0x1A85A, symSize: 0x59 }
  - { offsetInCU: 0x72AB1, offset: 0x72B2D, size: 0x8, addend: 0x0, symName: _ada_has_hostname, symObjAddr: 0x19413, symBinAddr: 0x1A8B3, symSize: 0x43 }
  - { offsetInCU: 0x72C6A, offset: 0x72CE6, size: 0x8, addend: 0x0, symName: _ada_has_non_empty_username, symObjAddr: 0x19492, symBinAddr: 0x1A932, symSize: 0x1C }
  - { offsetInCU: 0x72CDC, offset: 0x72D58, size: 0x8, addend: 0x0, symName: _ada_has_non_empty_password, symObjAddr: 0x194AE, symBinAddr: 0x1A94E, symSize: 0x19 }
  - { offsetInCU: 0x72D66, offset: 0x72DE2, size: 0x8, addend: 0x0, symName: _ada_has_port, symObjAddr: 0x194C7, symBinAddr: 0x1A967, symSize: 0x4B }
  - { offsetInCU: 0x72F39, offset: 0x72FB5, size: 0x8, addend: 0x0, symName: _ada_has_password, symObjAddr: 0x19556, symBinAddr: 0x1A9F6, symSize: 0x2F }
  - { offsetInCU: 0x73060, offset: 0x730DC, size: 0x8, addend: 0x0, symName: _ada_has_hash, symObjAddr: 0x19585, symBinAddr: 0x1AA25, symSize: 0x15 }
  - { offsetInCU: 0x730C1, offset: 0x7313D, size: 0x8, addend: 0x0, symName: _ada_has_search, symObjAddr: 0x1959A, symBinAddr: 0x1AA3A, symSize: 0x15 }
  - { offsetInCU: 0x73122, offset: 0x7319E, size: 0x8, addend: 0x0, symName: _ada_get_components, symObjAddr: 0x195AF, symBinAddr: 0x1AA4F, symSize: 0x14 }
  - { offsetInCU: 0x7318D, offset: 0x73209, size: 0x8, addend: 0x0, symName: _ada_idna_to_unicode, symObjAddr: 0x195C3, symBinAddr: 0x1AA63, symSize: 0x9C }
  - { offsetInCU: 0x73491, offset: 0x7350D, size: 0x8, addend: 0x0, symName: _ada_idna_to_ascii, symObjAddr: 0x1965F, symBinAddr: 0x1AAFF, symSize: 0x9C }
  - { offsetInCU: 0x73AED, offset: 0x73B69, size: 0x8, addend: 0x0, symName: _ada_parse_search_params, symObjAddr: 0x196FB, symBinAddr: 0x1AB9B, symSize: 0x85 }
  - { offsetInCU: 0x73E27, offset: 0x73EA3, size: 0x8, addend: 0x0, symName: __ZN3ada17url_search_paramsC2ENSt3__117basic_string_viewIcNS1_11char_traitsIcEEEE, symObjAddr: 0x1B17C, symBinAddr: 0x1C57C, symSize: 0xD6 }
  - { offsetInCU: 0x740A0, offset: 0x7411C, size: 0x8, addend: 0x0, symName: __ZNSt3__16vectorINS_4pairINS_12basic_stringIcNS_11char_traitsIcEENS_9allocatorIcEEEES7_EENS5_IS8_EEE16__destroy_vectorclB8ue170006Ev, symObjAddr: 0x1BC14, symBinAddr: 0x1C9A4, symSize: 0x70 }
  - { offsetInCU: 0x741E2, offset: 0x7425E, size: 0x8, addend: 0x0, symName: __ZN3ada17url_search_paramsD1Ev, symObjAddr: 0x19780, symBinAddr: 0x1AC20, symSize: 0x1D }
  - { offsetInCU: 0x7439F, offset: 0x7441B, size: 0x8, addend: 0x0, symName: _ada_free_search_params, symObjAddr: 0x1979D, symBinAddr: 0x1AC3D, symSize: 0x2F }
  - { offsetInCU: 0x745A8, offset: 0x74624, size: 0x8, addend: 0x0, symName: _ada_search_params_to_string, symObjAddr: 0x197CC, symBinAddr: 0x1AC6C, symSize: 0xA6 }
  - { offsetInCU: 0x748B2, offset: 0x7492E, size: 0x8, addend: 0x0, symName: __ZN3ada17url_search_params9to_stringEv, symObjAddr: 0x19872, symBinAddr: 0x1AD12, symSize: 0x207 }
  - { offsetInCU: 0x75477, offset: 0x754F3, size: 0x8, addend: 0x0, symName: _ada_search_params_size, symObjAddr: 0x19A79, symBinAddr: 0x1AF19, symSize: 0x29 }
  - { offsetInCU: 0x75682, offset: 0x756FE, size: 0x8, addend: 0x0, symName: _ada_search_params_sort, symObjAddr: 0x19AA2, symBinAddr: 0x1AF42, symSize: 0x98 }
  - { offsetInCU: 0x75980, offset: 0x759FC, size: 0x8, addend: 0x0, symName: _ada_search_params_append, symObjAddr: 0x19B3A, symBinAddr: 0x1AFDA, symSize: 0x32 }
  - { offsetInCU: 0x75A4F, offset: 0x75ACB, size: 0x8, addend: 0x0, symName: __ZNSt3__16vectorINS_4pairINS_12basic_stringIcNS_11char_traitsIcEENS_9allocatorIcEEEES7_EENS5_IS8_EEE12emplace_backIJRKNS_17basic_string_viewIcS4_EESF_EEERS8_DpOT_, symObjAddr: 0x1D2AC, symBinAddr: 0x1DB5C, symSize: 0x13C }
  - { offsetInCU: 0x75F9F, offset: 0x7601B, size: 0x8, addend: 0x0, symName: _ada_search_params_set, symObjAddr: 0x19B6C, symBinAddr: 0x1B00C, symSize: 0xE8 }
  - { offsetInCU: 0x76314, offset: 0x76390, size: 0x8, addend: 0x0, symName: __ZNSt3__16vectorINS_4pairINS_12basic_stringIcNS_11char_traitsIcEENS_9allocatorIcEEEES7_EENS5_IS8_EEE5eraseENS_11__wrap_iterIPKS8_EESE_, symObjAddr: 0x1D4F6, symBinAddr: 0x1DDA6, symSize: 0x68 }
  - { offsetInCU: 0x7650A, offset: 0x76586, size: 0x8, addend: 0x0, symName: _ada_search_params_remove, symObjAddr: 0x19C54, symBinAddr: 0x1B0F4, symSize: 0x42 }
  - { offsetInCU: 0x76645, offset: 0x766C1, size: 0x8, addend: 0x0, symName: _ada_search_params_remove_value, symObjAddr: 0x19C96, symBinAddr: 0x1B136, symSize: 0x50 }
  - { offsetInCU: 0x7681F, offset: 0x7689B, size: 0x8, addend: 0x0, symName: _ada_search_params_has, symObjAddr: 0x19CE6, symBinAddr: 0x1B186, symSize: 0x7C }
  - { offsetInCU: 0x76B01, offset: 0x76B7D, size: 0x8, addend: 0x0, symName: _ada_search_params_has_value, symObjAddr: 0x19D62, symBinAddr: 0x1B202, symSize: 0xD7 }
  - { offsetInCU: 0x77025, offset: 0x770A1, size: 0x8, addend: 0x0, symName: _ada_search_params_get, symObjAddr: 0x19E39, symBinAddr: 0x1B2D9, symSize: 0xAB }
  - { offsetInCU: 0x77737, offset: 0x777B3, size: 0x8, addend: 0x0, symName: _ada_search_params_get_all, symObjAddr: 0x19EE4, symBinAddr: 0x1B384, symSize: 0x13C }
  - { offsetInCU: 0x77F70, offset: 0x77FEC, size: 0x8, addend: 0x0, symName: __ZNSt3__16vectorINS_12basic_stringIcNS_11char_traitsIcEENS_9allocatorIcEEEENS4_IS6_EEE24__emplace_back_slow_pathIJRS6_EEEvDpOT_, symObjAddr: 0x1D8DA, symBinAddr: 0x1E08A, symSize: 0x114 }
  - { offsetInCU: 0x78331, offset: 0x783AD, size: 0x8, addend: 0x0, symName: _ada_search_params_get_keys, symObjAddr: 0x1A020, symBinAddr: 0x1B4C0, symSize: 0x36 }
  - { offsetInCU: 0x7838A, offset: 0x78406, size: 0x8, addend: 0x0, symName: _ada_search_params_get_values, symObjAddr: 0x1A056, symBinAddr: 0x1B4F6, symSize: 0x36 }
  - { offsetInCU: 0x783E3, offset: 0x7845F, size: 0x8, addend: 0x0, symName: _ada_search_params_get_entries, symObjAddr: 0x1A08C, symBinAddr: 0x1B52C, symSize: 0x36 }
  - { offsetInCU: 0x78521, offset: 0x7859D, size: 0x8, addend: 0x0, symName: _ada_free_strings, symObjAddr: 0x1A0C2, symBinAddr: 0x1B562, symSize: 0x2F }
  - { offsetInCU: 0x7871C, offset: 0x78798, size: 0x8, addend: 0x0, symName: _ada_strings_size, symObjAddr: 0x1A0F1, symBinAddr: 0x1B591, symSize: 0x33 }
  - { offsetInCU: 0x787B4, offset: 0x78830, size: 0x8, addend: 0x0, symName: _ada_strings_size.cold.1, symObjAddr: 0x1EEAE, symBinAddr: 0xC7280E, symSize: 0x23 }
  - { offsetInCU: 0x78806, offset: 0x78882, size: 0x8, addend: 0x0, symName: _ada_strings_get, symObjAddr: 0x1A124, symBinAddr: 0x1B5C4, symSize: 0x62 }
  - { offsetInCU: 0x789D9, offset: 0x78A55, size: 0x8, addend: 0x0, symName: _ada_free_search_params_keys_iter, symObjAddr: 0x1A186, symBinAddr: 0x1B626, symSize: 0x11 }
  - { offsetInCU: 0x789E4, offset: 0x78A60, size: 0x8, addend: 0x0, symName: _ada_strings_get.cold.1, symObjAddr: 0x1EED1, symBinAddr: 0xC72831, symSize: 0x23 }
  - { offsetInCU: 0x78A12, offset: 0x78A8E, size: 0x8, addend: 0x0, symName: __ZNKSt3__16vectorINS_12basic_stringIcNS_11char_traitsIcEENS_9allocatorIcEEEENS4_IS6_EEE20__throw_out_of_rangeB8ue170006Ev, symObjAddr: 0x1EE30, symBinAddr: 0x1F330, symSize: 0x10 }
  - { offsetInCU: 0x78A3B, offset: 0x78AB7, size: 0x8, addend: 0x0, symName: __ZN3ada14url_aggregator8set_hrefENSt3__117basic_string_viewIcNS1_11char_traitsIcEEEE.cold.1, symObjAddr: 0x1EE40, symBinAddr: 0xC727A0, symSize: 0x1E }
  - { offsetInCU: 0x78A46, offset: 0x78AC2, size: 0x8, addend: 0x0, symName: _ada_free_search_params_keys_iter, symObjAddr: 0x1A186, symBinAddr: 0x1B626, symSize: 0x11 }
  - { offsetInCU: 0x78AE0, offset: 0x78B5C, size: 0x8, addend: 0x0, symName: _ada_search_params_keys_iter_next, symObjAddr: 0x1A197, symBinAddr: 0x1B637, symSize: 0x7A }
  - { offsetInCU: 0x78CE6, offset: 0x78D62, size: 0x8, addend: 0x0, symName: _ada_search_params_keys_iter_next.cold.1, symObjAddr: 0x1EEF4, symBinAddr: 0xC72854, symSize: 0x23 }
  - { offsetInCU: 0x78D14, offset: 0x78D90, size: 0x8, addend: 0x0, symName: _ada_search_params_keys_iter_has_next, symObjAddr: 0x1A211, symBinAddr: 0x1B6B1, symSize: 0x41 }
  - { offsetInCU: 0x78DCD, offset: 0x78E49, size: 0x8, addend: 0x0, symName: _ada_search_params_keys_iter_has_next.cold.1, symObjAddr: 0x1EF17, symBinAddr: 0xC72877, symSize: 0x23 }
  - { offsetInCU: 0x78DFB, offset: 0x78E77, size: 0x8, addend: 0x0, symName: _ada_free_search_params_values_iter, symObjAddr: 0x1A252, symBinAddr: 0x1B6F2, symSize: 0x11 }
  - { offsetInCU: 0x78E95, offset: 0x78F11, size: 0x8, addend: 0x0, symName: _ada_search_params_values_iter_next, symObjAddr: 0x1A263, symBinAddr: 0x1B703, symSize: 0x7C }
  - { offsetInCU: 0x7907C, offset: 0x790F8, size: 0x8, addend: 0x0, symName: _ada_search_params_values_iter_next.cold.1, symObjAddr: 0x1EF3A, symBinAddr: 0xC7289A, symSize: 0x23 }
  - { offsetInCU: 0x790AA, offset: 0x79126, size: 0x8, addend: 0x0, symName: _ada_search_params_values_iter_has_next, symObjAddr: 0x1A2DF, symBinAddr: 0x1B77F, symSize: 0x41 }
  - { offsetInCU: 0x79163, offset: 0x791DF, size: 0x8, addend: 0x0, symName: _ada_search_params_values_iter_has_next.cold.1, symObjAddr: 0x1EF5D, symBinAddr: 0xC728BD, symSize: 0x23 }
  - { offsetInCU: 0x79191, offset: 0x7920D, size: 0x8, addend: 0x0, symName: _ada_free_search_params_entries_iter, symObjAddr: 0x1A320, symBinAddr: 0x1B7C0, symSize: 0x11 }
  - { offsetInCU: 0x79444, offset: 0x794C0, size: 0x8, addend: 0x0, symName: _ada_search_params_entries_iter_next, symObjAddr: 0x1A331, symBinAddr: 0x1B7D1, symSize: 0xBD }
  - { offsetInCU: 0x7967B, offset: 0x796F7, size: 0x8, addend: 0x0, symName: _ada_search_params_entries_iter_next.cold.1, symObjAddr: 0x1EF80, symBinAddr: 0xC728E0, symSize: 0x23 }
  - { offsetInCU: 0x796A9, offset: 0x79725, size: 0x8, addend: 0x0, symName: _ada_search_params_entries_iter_has_next, symObjAddr: 0x1A3EE, symBinAddr: 0x1B88E, symSize: 0x42 }
  - { offsetInCU: 0x79762, offset: 0x797DE, size: 0x8, addend: 0x0, symName: _ada_search_params_entries_iter_has_next.cold.1, symObjAddr: 0x1EFA3, symBinAddr: 0xC72903, symSize: 0x23 }
  - { offsetInCU: 0x79790, offset: 0x7980C, size: 0x8, addend: 0x0, symName: __ZN3ada3urlD0Ev, symObjAddr: 0x1A430, symBinAddr: 0x1B8D0, symSize: 0x1C }
  - { offsetInCU: 0x797E5, offset: 0x79861, size: 0x8, addend: 0x0, symName: __ZN3ada3url10parse_portENSt3__117basic_string_viewIcNS1_11char_traitsIcEEEE, symObjAddr: 0x1A44C, symBinAddr: 0x1B8EC, symSize: 0x10 }
  - { offsetInCU: 0x79826, offset: 0x798A2, size: 0x8, addend: 0x0, symName: __ZNK3ada3url8has_hashEv, symObjAddr: 0x1A45C, symBinAddr: 0x1B8FC, symSize: 0xC }
  - { offsetInCU: 0x7986D, offset: 0x798E9, size: 0x8, addend: 0x0, symName: __ZNK3ada3url10has_searchEv, symObjAddr: 0x1A468, symBinAddr: 0x1B908, symSize: 0xC }
  - { offsetInCU: 0x798B4, offset: 0x79930, size: 0x8, addend: 0x0, symName: __ZN3ada14url_aggregatorD0Ev, symObjAddr: 0x1A474, symBinAddr: 0x1B914, symSize: 0x30 }
  - { offsetInCU: 0x79A2F, offset: 0x79AAB, size: 0x8, addend: 0x0, symName: __ZN3ada14url_aggregator10parse_portENSt3__117basic_string_viewIcNS1_11char_traitsIcEEEE, symObjAddr: 0x1A4A4, symBinAddr: 0x1B944, symSize: 0x10 }
  - { offsetInCU: 0x79A70, offset: 0x79AEC, size: 0x8, addend: 0x0, symName: __ZNK3ada14url_aggregator8has_hashEv, symObjAddr: 0x1A4B4, symBinAddr: 0x1B954, symSize: 0xE }
  - { offsetInCU: 0x79A97, offset: 0x79B13, size: 0x8, addend: 0x0, symName: __ZNK3ada14url_aggregator10has_searchEv, symObjAddr: 0x1A4C2, symBinAddr: 0x1B962, symSize: 0xD }
  - { offsetInCU: 0x79B26, offset: 0x79BA2, size: 0x8, addend: 0x0, symName: ___cxx_global_var_init, symObjAddr: 0x20870, symBinAddr: 0x1F340, symSize: 0x44 }
  - { offsetInCU: 0x79BB7, offset: 0x79C33, size: 0x8, addend: 0x0, symName: ___cxx_global_var_init.93, symObjAddr: 0x208B4, symBinAddr: 0x1F384, symSize: 0x44 }
  - { offsetInCU: 0x79C48, offset: 0x79CC4, size: 0x8, addend: 0x0, symName: ___cxx_global_var_init.94, symObjAddr: 0x208F8, symBinAddr: 0x1F3C8, symSize: 0x44 }
  - { offsetInCU: 0x79E19, offset: 0x79E95, size: 0x8, addend: 0x0, symName: __ZN3ada8url_baseD1Ev, symObjAddr: 0x1A6B4, symBinAddr: 0xC72794, symSize: 0x6 }
  - { offsetInCU: 0x79E42, offset: 0x79EBE, size: 0x8, addend: 0x0, symName: __ZN3ada8url_baseD0Ev, symObjAddr: 0x1A6BA, symBinAddr: 0xC7279A, symSize: 0x6 }
  - { offsetInCU: 0x79E6B, offset: 0x79EE7, size: 0x8, addend: 0x0, symName: __ZN3ada8url_base10parse_portENSt3__117basic_string_viewIcNS1_11char_traitsIcEEEE, symObjAddr: 0x1A6C0, symBinAddr: 0x1BB00, symSize: 0x10 }
  - { offsetInCU: 0x79ED9, offset: 0x79F55, size: 0x8, addend: 0x0, symName: __ZN2tl6detail24expected_operations_baseIN3ada14url_aggregatorENS2_6errorsEE13assign_commonIS5_EEvOT_, symObjAddr: 0x1A7F6, symBinAddr: 0x1BC36, symSize: 0x4A }
  - { offsetInCU: 0x79FB6, offset: 0x7A032, size: 0x8, addend: 0x0, symName: __ZN3ada14url_aggregatoraSEOS0_, symObjAddr: 0x1A840, symBinAddr: 0x1BC80, symSize: 0x61 }
  - { offsetInCU: 0x7A1AA, offset: 0x7A226, size: 0x8, addend: 0x0, symName: __ZN2tl19bad_expected_accessIN3ada6errorsEED1Ev, symObjAddr: 0x1A8DE, symBinAddr: 0x1BD1E, symSize: 0xA }
  - { offsetInCU: 0x7A1E7, offset: 0x7A263, size: 0x8, addend: 0x0, symName: __ZN2tl19bad_expected_accessIN3ada6errorsEED0Ev, symObjAddr: 0x1A8E8, symBinAddr: 0x1BD28, symSize: 0x1C }
  - { offsetInCU: 0x7A24F, offset: 0x7A2CB, size: 0x8, addend: 0x0, symName: __ZNK2tl19bad_expected_accessIN3ada6errorsEE4whatEv, symObjAddr: 0x1A904, symBinAddr: 0x1BD44, symSize: 0xD }
  - { offsetInCU: 0x7A498, offset: 0x7A514, size: 0x8, addend: 0x0, symName: __ZN3ada14url_aggregatorC2ERKS0_, symObjAddr: 0x1B10E, symBinAddr: 0x1C50E, symSize: 0x6E }
  - { offsetInCU: 0x7B195, offset: 0x7B211, size: 0x8, addend: 0x0, symName: __ZNSt3__16vectorINS_4pairINS_12basic_stringIcNS_11char_traitsIcEENS_9allocatorIcEEEES7_EENS5_IS8_EEE12emplace_backIJS7_RA1_KcEEERS8_DpOT_, symObjAddr: 0x1B648, symBinAddr: 0x1C658, symSize: 0x13C }
  - { offsetInCU: 0x7B5E3, offset: 0x7B65F, size: 0x8, addend: 0x0, symName: __ZNSt3__16vectorINS_4pairINS_12basic_stringIcNS_11char_traitsIcEENS_9allocatorIcEEEES7_EENS5_IS8_EEE12emplace_backIJS7_S7_EEERS8_DpOT_, symObjAddr: 0x1B784, symBinAddr: 0x1C794, symSize: 0x186 }
  - { offsetInCU: 0x7C562, offset: 0x7C5DE, size: 0x8, addend: 0x0, symName: __ZNKSt3__129_AllocatorDestroyRangeReverseINS_9allocatorINS_4pairINS_12basic_stringIcNS_11char_traitsIcEENS1_IcEEEES7_EEEENS_16reverse_iteratorIPS8_EEEclB8ue170006Ev, symObjAddr: 0x1BB44, symBinAddr: 0x1C924, symSize: 0x42 }
  - { offsetInCU: 0x7C698, offset: 0x7C714, size: 0x8, addend: 0x0, symName: __ZNSt3__19allocatorINS_4pairINS_12basic_stringIcNS_11char_traitsIcEENS0_IcEEEES6_EEE7destroyB8ue170006EPS7_, symObjAddr: 0x1BB86, symBinAddr: 0x1C966, symSize: 0x34 }
  - { offsetInCU: 0x7CE4C, offset: 0x7CEC8, size: 0x8, addend: 0x0, symName: __ZNSt3__112__destruct_n9__processB8ue170006INS_4pairINS_12basic_stringIcNS_11char_traitsIcEENS_9allocatorIcEEEES8_EEEEvPT_NS_17integral_constantIbLb0EEE, symObjAddr: 0x1CBA0, symBinAddr: 0x1D530, symSize: 0x51 }
  - { offsetInCU: 0x7D132, offset: 0x7D1AE, size: 0x8, addend: 0x0, symName: __ZNSt3__14pairINS_12basic_stringIcNS_11char_traitsIcEENS_9allocatorIcEEEES6_EaSB8ue170006EOS7_, symObjAddr: 0x1C714, symBinAddr: 0x1D274, symSize: 0x6C }
  - { offsetInCU: 0x7D6B0, offset: 0x7D72C, size: 0x8, addend: 0x0, symName: __ZNSt3__18__invertIRZN3ada17url_search_params4sortEvEUlRKNS_4pairINS_12basic_stringIcNS_11char_traitsIcEENS_9allocatorIcEEEES9_EESC_E_EclB8ue170006ISA_SA_EEbRKT_RKT0_, symObjAddr: 0x1D044, symBinAddr: 0x1D8F4, symSize: 0x64 }
  - { offsetInCU: 0x7DA46, offset: 0x7DAC2, size: 0x8, addend: 0x0, symName: __ZNSt3__14pairINS_12basic_stringIcNS_11char_traitsIcEENS_9allocatorIcEEEES6_EC2B8ue170006IRKNS_17basic_string_viewIcS3_EESC_LPv0EEEOT_OT0_, symObjAddr: 0x1D3E8, symBinAddr: 0x1DC98, symSize: 0x10E }
  - { offsetInCU: 0x7E738, offset: 0x7E7B4, size: 0x8, addend: 0x0, symName: __ZNSt3__114__split_bufferINS_12basic_stringIcNS_11char_traitsIcEENS_9allocatorIcEEEERNS4_IS6_EEED2Ev, symObjAddr: 0x1DB58, symBinAddr: 0x1E308, symSize: 0x28 }
  - { offsetInCU: 0x7E811, offset: 0x7E88D, size: 0x8, addend: 0x0, symName: __ZNKSt3__16vectorINS_12basic_stringIcNS_11char_traitsIcEENS_9allocatorIcEEEENS4_IS6_EEE20__throw_length_errorB8ue170006Ev, symObjAddr: 0x1DAC0, symBinAddr: 0x1E270, symSize: 0x10 }
  - { offsetInCU: 0x7E83A, offset: 0x7E8B6, size: 0x8, addend: 0x0, symName: __ZNSt3__119__allocate_at_leastB8ue170006INS_9allocatorINS_12basic_stringIcNS_11char_traitsIcEENS1_IcEEEEEEEENS_19__allocation_resultINS_16allocator_traitsIT_E7pointerEEERSA_m, symObjAddr: 0x1DAD0, symBinAddr: 0x1E280, symSize: 0x38 }
  - { offsetInCU: 0x7E994, offset: 0x7EA10, size: 0x8, addend: 0x0, symName: __ZNSt3__128__exception_guard_exceptionsINS_29_AllocatorDestroyRangeReverseINS_9allocatorINS_12basic_stringIcNS_11char_traitsIcEENS2_IcEEEEEENS_16reverse_iteratorIPS7_EEEEED2B8ue170006Ev, symObjAddr: 0x1DB08, symBinAddr: 0x1E2B8, symSize: 0x1A }
  - { offsetInCU: 0x7E9ED, offset: 0x7EA69, size: 0x8, addend: 0x0, symName: __ZNKSt3__129_AllocatorDestroyRangeReverseINS_9allocatorINS_12basic_stringIcNS_11char_traitsIcEENS1_IcEEEEEENS_16reverse_iteratorIPS6_EEEclB8ue170006Ev, symObjAddr: 0x1DB22, symBinAddr: 0x1E2D2, symSize: 0x36 }
  - { offsetInCU: 0x7ECD0, offset: 0x7ED4C, size: 0x8, addend: 0x0, symName: __ZNSt3__114__split_bufferINS_12basic_stringIcNS_11char_traitsIcEENS_9allocatorIcEEEERNS4_IS6_EEE17__destruct_at_endB8ue170006EPS6_, symObjAddr: 0x1DB80, symBinAddr: 0x1E330, symSize: 0x3E }
  - { offsetInCU: 0x7F19E, offset: 0x7F21A, size: 0x8, addend: 0x0, symName: __ZNSt3__112basic_stringIDiNS_11char_traitsIDiEENS_9allocatorIDiEEE6appendEmDi, symObjAddr: 0x1E124, symBinAddr: 0x1E7E4, symSize: 0xC4 }
  - { offsetInCU: 0x7F5E2, offset: 0x7F65E, size: 0x8, addend: 0x0, symName: __ZNSt3__123__optional_storage_baseINS_12basic_stringIcNS_11char_traitsIcEENS_9allocatorIcEEEELb0EE16__construct_fromB8ue170006IRKNS_20__optional_copy_baseIS6_Lb0EEEEEvOT_, symObjAddr: 0x1EA0A, symBinAddr: 0x1EF7A, symSize: 0x40 }
  - { offsetInCU: 0x7F6F8, offset: 0x7F774, size: 0x8, addend: 0x0, symName: __ZNSt3__120__optional_copy_baseINS_12basic_stringIcNS_11char_traitsIcEENS_9allocatorIcEEEELb0EEC2B8ue170006ERKS7_.cold.1, symObjAddr: 0x1EFC6, symBinAddr: 0xC72926, symSize: 0x15 }
  - { offsetInCU: 0x26, offset: 0x7FA1D, size: 0x8, addend: 0x0, symName: __ZN3tns21OneByteStringResourceC2EPKcm, symObjAddr: 0x0, symBinAddr: 0x1F40C, symSize: 0x20 }
  - { offsetInCU: 0xD01F, offset: 0x8CA16, size: 0x8, addend: 0x0, symName: __ZN3tns21OneByteStringResourceC2EPKcm, symObjAddr: 0x0, symBinAddr: 0x1F40C, symSize: 0x20 }
  - { offsetInCU: 0xD0A1, offset: 0x8CA98, size: 0x8, addend: 0x0, symName: __ZN3tns21OneByteStringResourceC1EPKcm, symObjAddr: 0x20, symBinAddr: 0x1F42C, symSize: 0x20 }
  - { offsetInCU: 0xD12C, offset: 0x8CB23, size: 0x8, addend: 0x0, symName: __ZN3tns21OneByteStringResourceD2Ev, symObjAddr: 0x40, symBinAddr: 0x1F44C, symSize: 0x20 }
  - { offsetInCU: 0xD169, offset: 0x8CB60, size: 0x8, addend: 0x0, symName: __ZN3tns21OneByteStringResourceD1Ev, symObjAddr: 0x60, symBinAddr: 0x1F46C, symSize: 0x20 }
  - { offsetInCU: 0xD1C5, offset: 0x8CBBC, size: 0x8, addend: 0x0, symName: __ZN3tns21OneByteStringResourceD0Ev, symObjAddr: 0x80, symBinAddr: 0x1F48C, symSize: 0x30 }
  - { offsetInCU: 0xD22D, offset: 0x8CC24, size: 0x8, addend: 0x0, symName: __ZNK3tns21OneByteStringResource4dataEv, symObjAddr: 0xB0, symBinAddr: 0x1F4BC, symSize: 0xA }
  - { offsetInCU: 0xD254, offset: 0x8CC4B, size: 0x8, addend: 0x0, symName: __ZNK3tns21OneByteStringResource6lengthEv, symObjAddr: 0xBA, symBinAddr: 0x1F4C6, symSize: 0xA }
  - { offsetInCU: 0xD27B, offset: 0x8CC72, size: 0x8, addend: 0x0, symName: __ZNK2v86String26ExternalStringResourceBase11IsCacheableEv, symObjAddr: 0xC4, symBinAddr: 0x1F4D0, symSize: 0x8 }
  - { offsetInCU: 0xD2A0, offset: 0x8CC97, size: 0x8, addend: 0x0, symName: __ZN2v86String26ExternalStringResourceBase7DisposeEv, symObjAddr: 0xCC, symBinAddr: 0x1F4D8, symSize: 0x12 }
  - { offsetInCU: 0xD2D1, offset: 0x8CCC8, size: 0x8, addend: 0x0, symName: __ZNK2v86String26ExternalStringResourceBase4LockEv, symObjAddr: 0xDE, symBinAddr: 0x1F4EA, symSize: 0x6 }
  - { offsetInCU: 0xD2F6, offset: 0x8CCED, size: 0x8, addend: 0x0, symName: __ZNK2v86String26ExternalStringResourceBase6UnlockEv, symObjAddr: 0xE4, symBinAddr: 0x1F4F0, symSize: 0x6 }
  - { offsetInCU: 0xF72F, offset: 0x9C44C, size: 0x8, addend: 0x0, symName: __ZN4rnv819JSIV8ValueConverter10ToJSIValueEPN2v87IsolateERKNS1_5LocalINS1_5ValueEEE, symObjAddr: 0x0, symBinAddr: 0x1F500, symSize: 0x206 }
  - { offsetInCU: 0xFFA7, offset: 0x9CCC4, size: 0x8, addend: 0x0, symName: __ZN4rnv819JSIV8ValueConverter9ToV8ValueERKNS_9V8RuntimeERKN8facebook3jsi5ValueE, symObjAddr: 0x206, symBinAddr: 0x1F706, symSize: 0x1F2 }
  - { offsetInCU: 0x10463, offset: 0x9D180, size: 0x8, addend: 0x0, symName: __ZNKR8facebook3jsi5Value9getBigIntERNS0_7RuntimeE, symObjAddr: 0x648, symBinAddr: 0x1FB48, symSize: 0x30 }
  - { offsetInCU: 0x1053C, offset: 0x9D259, size: 0x8, addend: 0x0, symName: __ZN4rnv819JSIV8ValueConverter10ToV8BigIntERKNS_9V8RuntimeERKN8facebook3jsi6BigIntE, symObjAddr: 0x5A8, symBinAddr: 0x1FAA8, symSize: 0xA0 }
  - { offsetInCU: 0x10654, offset: 0x9D371, size: 0x8, addend: 0x0, symName: __ZNKR8facebook3jsi5Value9getStringERNS0_7RuntimeE, symObjAddr: 0x4A8, symBinAddr: 0x1F9A8, symSize: 0x30 }
  - { offsetInCU: 0x1072D, offset: 0x9D44A, size: 0x8, addend: 0x0, symName: __ZN4rnv819JSIV8ValueConverter10ToV8StringERKNS_9V8RuntimeERKN8facebook3jsi6StringE, symObjAddr: 0x3F8, symBinAddr: 0x1F8F8, symSize: 0xB0 }
  - { offsetInCU: 0x1094B, offset: 0x9D668, size: 0x8, addend: 0x0, symName: __ZNKR8facebook3jsi5Value9getObjectERNS0_7RuntimeE, symObjAddr: 0x578, symBinAddr: 0x1FA78, symSize: 0x30 }
  - { offsetInCU: 0x10A24, offset: 0x9D741, size: 0x8, addend: 0x0, symName: __ZN4rnv819JSIV8ValueConverter10ToV8ObjectERKNS_9V8RuntimeERKN8facebook3jsi6ObjectE, symObjAddr: 0x4D8, symBinAddr: 0x1F9D8, symSize: 0xA0 }
  - { offsetInCU: 0x10BD1, offset: 0x9D8EE, size: 0x8, addend: 0x0, symName: __ZNKR8facebook3jsi5Value9getStringERNS0_7RuntimeE.cold.1, symObjAddr: 0xC23, symBinAddr: 0xC72943, symSize: 0x23 }
  - { offsetInCU: 0x10C43, offset: 0x9D960, size: 0x8, addend: 0x0, symName: __ZNKR8facebook3jsi5Value9getObjectERNS0_7RuntimeE.cold.1, symObjAddr: 0xC46, symBinAddr: 0xC72966, symSize: 0x23 }
  - { offsetInCU: 0x10CB5, offset: 0x9D9D2, size: 0x8, addend: 0x0, symName: __ZNKR8facebook3jsi5Value9getBigIntERNS0_7RuntimeE.cold.1, symObjAddr: 0xC69, symBinAddr: 0xC72989, symSize: 0x23 }
  - { offsetInCU: 0x10CCD, offset: 0x9D9EA, size: 0x8, addend: 0x0, symName: __ZN4rnv819JSIV8ValueConverter10ToV8StringERKNS_9V8RuntimeERKN8facebook3jsi10PropNameIDE, symObjAddr: 0x678, symBinAddr: 0x1FB78, symSize: 0xB0 }
  - { offsetInCU: 0x10F32, offset: 0x9DC4F, size: 0x8, addend: 0x0, symName: __ZN4rnv819JSIV8ValueConverter10ToV8StringERKNS_9V8RuntimeERKNSt3__110shared_ptrIKN8facebook3jsi6BufferEEE, symObjAddr: 0x728, symBinAddr: 0x1FC28, symSize: 0x82 }
  - { offsetInCU: 0x110DD, offset: 0x9DDFA, size: 0x8, addend: 0x0, symName: __ZN4rnv819JSIV8ValueConverter10ToV8SymbolERKNS_9V8RuntimeERKN8facebook3jsi6SymbolE, symObjAddr: 0x7AA, symBinAddr: 0x1FCAA, symSize: 0xA0 }
  - { offsetInCU: 0x1122C, offset: 0x9DF49, size: 0x8, addend: 0x0, symName: __ZN4rnv819JSIV8ValueConverter9ToV8ArrayERKNS_9V8RuntimeERKN8facebook3jsi5ArrayE, symObjAddr: 0x84A, symBinAddr: 0x1FD4A, symSize: 0xA0 }
  - { offsetInCU: 0x1137B, offset: 0x9E098, size: 0x8, addend: 0x0, symName: __ZN4rnv819JSIV8ValueConverter12ToV8FunctionERKNS_9V8RuntimeERKN8facebook3jsi8FunctionE, symObjAddr: 0x8EA, symBinAddr: 0x1FDEA, symSize: 0xA0 }
  - { offsetInCU: 0x1154F, offset: 0x9E26C, size: 0x8, addend: 0x0, symName: __ZN4rnv819JSIV8ValueConverter15ToJSIPropNameIDERKNS_9V8RuntimeERKN2v85LocalINS4_4NameEEE, symObjAddr: 0x98A, symBinAddr: 0x1FE8A, symSize: 0x86 }
  - { offsetInCU: 0x11717, offset: 0x9E434, size: 0x8, addend: 0x0, symName: __ZN4rnv819JSIV8ValueConverter11ToSTLStringERKN2v86String9Utf8ValueE, symObjAddr: 0xA10, symBinAddr: 0x1FF10, symSize: 0x3A }
  - { offsetInCU: 0x11A43, offset: 0x9E760, size: 0x8, addend: 0x0, symName: __ZN4rnv819JSIV8ValueConverter11ToSTLStringEPN2v87IsolateERKNS1_5LocalINS1_5ValueEEE, symObjAddr: 0xA4A, symBinAddr: 0x1FF4A, symSize: 0xD6 }
  - { offsetInCU: 0x11EA8, offset: 0x9EBC5, size: 0x8, addend: 0x0, symName: __ZNSt12length_errorC1B8ue170006EPKc, symObjAddr: 0xC00, symBinAddr: 0x20020, symSize: 0x23 }
  - { offsetInCU: 0x26, offset: 0x9EC7C, size: 0x8, addend: 0x0, symName: __ZN3tns7WeakRef4InitEN2v85LocalINS1_7ContextEEE, symObjAddr: 0x0, symBinAddr: 0x20044, symSize: 0x132 }
  - { offsetInCU: 0xD4CC, offset: 0xAC122, size: 0x8, addend: 0x0, symName: __ZN3tns7WeakRef4InitEN2v85LocalINS1_7ContextEEE, symObjAddr: 0x0, symBinAddr: 0x20044, symSize: 0x132 }
  - { offsetInCU: 0x26, offset: 0xACD15, size: 0x8, addend: 0x0, symName: __ZN3tns9ExtVector11NewInstanceEPN2v87IsolateEPvP9_ffi_typePKNS_12TypeEncodingES9_, symObjAddr: 0x0, symBinAddr: 0x20176, symSize: 0x1F2 }
  - { offsetInCU: 0x6473, offset: 0xB3162, size: 0x8, addend: 0x0, symName: __ZN3tns9ExtVector11NewInstanceEPN2v87IsolateEPvP9_ffi_typePKNS_12TypeEncodingES9_, symObjAddr: 0x0, symBinAddr: 0x20176, symSize: 0x1F2 }
  - { offsetInCU: 0x6C7B, offset: 0xB396A, size: 0x8, addend: 0x0, symName: __ZN3tns9ExtVector22RegisterToStringMethodEPN2v87IsolateENS1_5LocalINS1_14ObjectTemplateEEE, symObjAddr: 0x40E, symBinAddr: 0x20584, symSize: 0xDA }
  - { offsetInCU: 0x7205, offset: 0xB3EF4, size: 0x8, addend: 0x0, symName: __ZN3tns9ExtVector26IndexedPropertyGetCallbackEjRKN2v820PropertyCallbackInfoINS1_5ValueEEE, symObjAddr: 0x1F2, symBinAddr: 0x20368, symSize: 0x124 }
  - { offsetInCU: 0x777C, offset: 0xB446B, size: 0x8, addend: 0x0, symName: __ZN3tns9ExtVector26IndexedPropertySetCallbackEjN2v85LocalINS1_5ValueEEERKNS1_20PropertyCallbackInfoIS3_EE, symObjAddr: 0x316, symBinAddr: 0x2048C, symSize: 0xF8 }
  - { offsetInCU: 0x7BD4, offset: 0xB48C3, size: 0x8, addend: 0x0, symName: __ZN3tns16ExtVectorWrapperD1Ev, symObjAddr: 0x4E8, symBinAddr: 0x2065E, symSize: 0x6 }
  - { offsetInCU: 0x7C00, offset: 0xB48EF, size: 0x8, addend: 0x0, symName: __ZN3tns16ExtVectorWrapperD0Ev, symObjAddr: 0x4EE, symBinAddr: 0x20664, symSize: 0xA }
  - { offsetInCU: 0x7C2C, offset: 0xB491B, size: 0x8, addend: 0x0, symName: __ZN3tns16ExtVectorWrapper4TypeEv, symObjAddr: 0x4F8, symBinAddr: 0x2066E, symSize: 0xC }
  - { offsetInCU: 0x7E6C, offset: 0xB4B5B, size: 0x8, addend: 0x0, symName: '__ZZN3tns9ExtVector22RegisterToStringMethodEPN2v87IsolateENS1_5LocalINS1_14ObjectTemplateEEEEN3$_08__invokeERKNS1_20FunctionCallbackInfoINS1_5ValueEEE', symObjAddr: 0x504, symBinAddr: 0x2067A, symSize: 0x150 }
  - { offsetInCU: 0x59, offset: 0xB53A3, size: 0x8, addend: 0x0, symName: __ZN3tnsL12NSTimerClassE, symObjAddr: 0x1F2028, symBinAddr: 0x16ACDF0, symSize: 0x0 }
  - { offsetInCU: 0x156E4, offset: 0xCAA2E, size: 0x8, addend: 0x0, symName: __ZNSt3__115allocate_sharedB8ue170006IN2v810PersistentINS1_5ValueENS1_27NonCopyablePersistentTraitsIS3_EEEENS_9allocatorIS6_EEJRPNS1_7IsolateERKNS1_5LocalIS3_EEEvEENS_10shared_ptrIT_EERKT0_DpOT1_, symObjAddr: 0x1D09, symBinAddr: 0x21809, symSize: 0x5D }
  - { offsetInCU: 0x16127, offset: 0xCB471, size: 0x8, addend: 0x0, symName: __ZNSt3__135__uninitialized_allocator_copy_implB8ue170006INS_9allocatorIN3tns11StructFieldEEEPS3_S5_S5_EET2_RT_T0_T1_S6_, symObjAddr: 0x14CB, symBinAddr: 0x2167B, symSize: 0x93 }
  - { offsetInCU: 0x1633A, offset: 0xCB684, size: 0x8, addend: 0x0, symName: __ZNSt3__135__uninitialized_allocator_copy_implB8ue170006INS_9allocatorIN3tns11StructFieldEEEPS3_S5_S5_EET2_RT_T0_T1_S6_, symObjAddr: 0x14CB, symBinAddr: 0x2167B, symSize: 0x93 }
  - { offsetInCU: 0x21F6D, offset: 0xD72B7, size: 0x8, addend: 0x0, symName: __ZN3tns13ObjectManager4InitEPN2v87IsolateENS1_5LocalINS1_14ObjectTemplateEEE, symObjAddr: 0x0, symBinAddr: 0x207D0, symSize: 0xD6 }
  - { offsetInCU: 0x224FB, offset: 0xD7845, size: 0x8, addend: 0x0, symName: __ZNSt3__115allocate_sharedB8ue170006IN2v810PersistentINS1_5ValueENS1_27NonCopyablePersistentTraitsIS3_EEEENS_9allocatorIS6_EEJRPNS1_7IsolateERKNS1_5LocalIS3_EEEvEENS_10shared_ptrIT_EERKT0_DpOT1_, symObjAddr: 0x1D09, symBinAddr: 0x21809, symSize: 0x5D }
  - { offsetInCU: 0x22923, offset: 0xD7C6D, size: 0x8, addend: 0x0, symName: __ZN3tns13ObjectManager32ReleaseNativeCounterpartCallbackERKN2v820FunctionCallbackInfoINS1_5ValueEEE, symObjAddr: 0xD6, symBinAddr: 0x208A6, symSize: 0x4AA }
  - { offsetInCU: 0x23F16, offset: 0xD9260, size: 0x8, addend: 0x0, symName: __ZN10robin_hood6detail5TableILb1ELm80EP11objc_objectNSt3__110shared_ptrIN2v810PersistentINS6_5ValueENS6_27NonCopyablePersistentTraitsIS8_EEEEEENS_4hashIS3_vEENS4_8equal_toIS3_EEE5eraseENSH_4IterILb0EEE, symObjAddr: 0x10C8, symBinAddr: 0x21548, symSize: 0x8C }
  - { offsetInCU: 0x24224, offset: 0xD956E, size: 0x8, addend: 0x0, symName: __ZN3tns13ObjectManager8RegisterEN2v85LocalINS1_7ContextEEENS2_INS1_5ValueEEE, symObjAddr: 0x580, symBinAddr: 0x20D50, symSize: 0xDE }
  - { offsetInCU: 0x2466F, offset: 0xD99B9, size: 0x8, addend: 0x0, symName: __ZN3tns13ObjectManager17FinalizerCallbackERKN2v816WeakCallbackInfoINS_23ObjectWeakCallbackStateEEE, symObjAddr: 0x65E, symBinAddr: 0x20E2E, symSize: 0x88 }
  - { offsetInCU: 0x248F9, offset: 0xD9C43, size: 0x8, addend: 0x0, symName: __ZN3tns13ObjectManager12DisposeValueEPN2v87IsolateENS1_5LocalINS1_5ValueEEEb, symObjAddr: 0x6E6, symBinAddr: 0x20EB6, symSize: 0x518 }
  - { offsetInCU: 0x26211, offset: 0xDB55B, size: 0x8, addend: 0x0, symName: __ZN10robin_hood6detail5TableILb1ELm80EPKvNSt3__110shared_ptrIN2v810PersistentINS6_6ObjectENS6_27NonCopyablePersistentTraitsIS8_EEEEEENS_4hashIS3_vEENS4_8equal_toIS3_EEE5eraseERKS3_, symObjAddr: 0xE2A, symBinAddr: 0x2148A, symSize: 0xB0 }
  - { offsetInCU: 0x267C3, offset: 0xDBB0D, size: 0x8, addend: 0x0, symName: __ZN10robin_hood6detail5TableILb1ELm80ENSt3__14pairIPvNS2_12basic_stringIcNS2_11char_traitsIcEENS2_9allocatorIcEEEEEENS2_10shared_ptrIN2v810PersistentINSD_5ValueENSD_27NonCopyablePersistentTraitsISF_EEEEEEN3tns9pair_hashENS2_8equal_toISB_EEE5eraseERKSB_, symObjAddr: 0xCC4, symBinAddr: 0x213D4, symSize: 0xB6 }
  - { offsetInCU: 0x26C8B, offset: 0xDBFD5, size: 0x8, addend: 0x0, symName: __ZNK3tns9pair_hashclIPvNSt3__112basic_stringIcNS3_11char_traitsIcEENS3_9allocatorIcEEEEEEmRKNS3_4pairIT_T0_EE, symObjAddr: 0x1F86, symBinAddr: 0x21A76, symSize: 0x5C }
  - { offsetInCU: 0x26DBA, offset: 0xDC104, size: 0x8, addend: 0x0, symName: __ZNKSt3__18equal_toINS_4pairIPvNS_12basic_stringIcNS_11char_traitsIcEENS_9allocatorIcEEEEEEEclB8ue170006ERKS9_SC_, symObjAddr: 0x1E0A, symBinAddr: 0x218FA, symSize: 0x98 }
  - { offsetInCU: 0x26F3A, offset: 0xDC284, size: 0x8, addend: 0x0, symName: __ZN10robin_hood6detail5TableILb1ELm80ENSt3__14pairIPvNS2_12basic_stringIcNS2_11char_traitsIcEENS2_9allocatorIcEEEEEENS2_10shared_ptrIN2v810PersistentINSD_5ValueENSD_27NonCopyablePersistentTraitsISF_EEEEEEN3tns9pair_hashENS2_8equal_toISB_EEE9shiftDownEm, symObjAddr: 0x1EA2, symBinAddr: 0x21992, symSize: 0xE4 }
  - { offsetInCU: 0x27341, offset: 0xDC68B, size: 0x8, addend: 0x0, symName: __ZN10robin_hood6detail5TableILb1ELm80EP11objc_objectNSt3__110shared_ptrIN2v810PersistentINS6_5ValueENS6_27NonCopyablePersistentTraitsIS8_EEEEEENS_4hashIS3_vEENS4_8equal_toIS3_EEE9shiftDownEm, symObjAddr: 0x2534, symBinAddr: 0x21F04, symSize: 0x8E }
  - { offsetInCU: 0x27525, offset: 0xDC86F, size: 0x8, addend: 0x0, symName: __ZN10robin_hood6detail5TableILb1ELm80EPKvNSt3__110shared_ptrIN2v810PersistentINS6_6ObjectENS6_27NonCopyablePersistentTraitsIS8_EEEEEENS_4hashIS3_vEENS4_8equal_toIS3_EEE9shiftDownEm, symObjAddr: 0x25C2, symBinAddr: 0x21F92, symSize: 0x8E }
  - { offsetInCU: 0x27A6E, offset: 0xDCDB8, size: 0x8, addend: 0x0, symName: __ZN3tns13ObjectManager12IsInstanceOfEP11objc_objectP10objc_class, symObjAddr: 0x1154, symBinAddr: 0x215D4, symSize: 0xE }
  - { offsetInCU: 0x27AB4, offset: 0xDCDFE, size: 0x8, addend: 0x0, symName: __ZN3tns13ObjectManager14GetRetainCountEP11objc_object, symObjAddr: 0x1162, symBinAddr: 0x215E2, symSize: 0x35 }
  - { offsetInCU: 0x27D7E, offset: 0xDD0C8, size: 0x8, addend: 0x0, symName: __ZNSt3__120__shared_ptr_emplaceIN3tns6CachesENS_9allocatorIS2_EEEC2B8ue170006IJRPN2v87IsolateEEEES4_DpOT_, symObjAddr: 0x1220, symBinAddr: 0x21620, symSize: 0x56 }
  - { offsetInCU: 0x28743, offset: 0xDDA8D, size: 0x8, addend: 0x0, symName: __ZNSt3__16vectorIN3tns11StructFieldENS_9allocatorIS2_EEE22__base_destruct_at_endB8ue170006EPS2_, symObjAddr: 0x1630, symBinAddr: 0x21710, symSize: 0x44 }
  - { offsetInCU: 0x28931, offset: 0xDDC7B, size: 0x8, addend: 0x0, symName: __ZTv0_n24_NSt3__119basic_ostringstreamIcNS_11char_traitsIcEENS_9allocatorIcEEED1Ev, symObjAddr: 0x1674, symBinAddr: 0x21754, symSize: 0x86 }
  - { offsetInCU: 0x28B32, offset: 0xDDE7C, size: 0x8, addend: 0x0, symName: __ZNSt3__115basic_stringbufIcNS_11char_traitsIcEENS_9allocatorIcEEE7seekposENS_4fposI11__mbstate_tEEj, symObjAddr: 0x1980, symBinAddr: 0x217E0, symSize: 0x26 }
  - { offsetInCU: 0x28ED9, offset: 0xDE223, size: 0x8, addend: 0x0, symName: __ZNSt3__120__shared_ptr_emplaceIN2v810PersistentINS1_5ValueENS1_27NonCopyablePersistentTraitsIS3_EEEENS_9allocatorIS6_EEEC2B8ue170006IJRPNS1_7IsolateERKNS1_5LocalIS3_EEEEES8_DpOT_, symObjAddr: 0x1D66, symBinAddr: 0x21866, symSize: 0x52 }
  - { offsetInCU: 0x29134, offset: 0xDE47E, size: 0x8, addend: 0x0, symName: __ZNSt3__120__shared_ptr_emplaceIN2v810PersistentINS1_5ValueENS1_27NonCopyablePersistentTraitsIS3_EEEENS_9allocatorIS6_EEED0Ev, symObjAddr: 0x1DD0, symBinAddr: 0x218C0, symSize: 0x2A }
  - { offsetInCU: 0x2919C, offset: 0xDE4E6, size: 0x8, addend: 0x0, symName: __ZNSt3__120__shared_ptr_emplaceIN2v810PersistentINS1_5ValueENS1_27NonCopyablePersistentTraitsIS3_EEEENS_9allocatorIS6_EEE21__on_zero_shared_weakEv, symObjAddr: 0x1E00, symBinAddr: 0x218F0, symSize: 0xA }
  - { offsetInCU: 0x2964D, offset: 0xDE997, size: 0x8, addend: 0x0, symName: __ZNKSt3__113__string_hashIcNS_9allocatorIcEEEclB8ue170006ERKNS_12basic_stringIcNS_11char_traitsIcEES2_EE, symObjAddr: 0x1FE2, symBinAddr: 0x21AD2, symSize: 0x38 }
  - { offsetInCU: 0x2970C, offset: 0xDEA56, size: 0x8, addend: 0x0, symName: __ZNKSt3__121__murmur2_or_cityhashImLm64EEclB8ue170006EPKvm, symObjAddr: 0x201A, symBinAddr: 0x21B0A, symSize: 0x282 }
  - { offsetInCU: 0x29EF1, offset: 0xDF23B, size: 0x8, addend: 0x0, symName: __ZNSt3__121__murmur2_or_cityhashImLm64EE19__hash_len_17_to_32B8ue170006EPKcm, symObjAddr: 0x237E, symBinAddr: 0x21D8E, symSize: 0x94 }
  - { offsetInCU: 0x2A035, offset: 0xDF37F, size: 0x8, addend: 0x0, symName: __ZNSt3__121__murmur2_or_cityhashImLm64EE19__hash_len_33_to_64B8ue170006EPKcm, symObjAddr: 0x2412, symBinAddr: 0x21E22, symSize: 0xD8 }
  - { offsetInCU: 0x2A48A, offset: 0xDF7D4, size: 0x8, addend: 0x0, symName: __ZNSt3__110shared_ptrIN2v810PersistentINS1_6ObjectENS1_27NonCopyablePersistentTraitsIS3_EEEEEaSB8ue170006EOS7_, symObjAddr: 0x2650, symBinAddr: 0x22020, symSize: 0x4A }
  - { offsetInCU: 0x2ADD5, offset: 0xE011F, size: 0x8, addend: 0x0, symName: __GLOBAL__sub_I_ObjectManager.mm, symObjAddr: 0x2D9C, symBinAddr: 0x2206A, symSize: 0x19 }
  - { offsetInCU: 0x53, offset: 0xE01EA, size: 0x8, addend: 0x0, symName: __ZN12v8_inspector19JsV8InspectorClient7DomainsE, symObjAddr: 0x880568, symBinAddr: 0x16C39B0, symSize: 0x0 }
  - { offsetInCU: 0x74714, offset: 0x1548AB, size: 0x8, addend: 0x0, symName: __ZNSt3__119__allocate_at_leastB8ue170006INS_9allocatorIPNS_12basic_stringIcNS_11char_traitsIcEENS1_IcEEEEEEEENS_19__allocation_resultINS_16allocator_traitsIT_E7pointerEEERSB_m, symObjAddr: 0x4388, symBinAddr: 0x26078, symSize: 0x2E }
  - { offsetInCU: 0x747B1, offset: 0x154948, size: 0x8, addend: 0x0, symName: '__ZNSt3__110__function6__funcIZN12v8_inspector19JsV8InspectorClient25onFrontendMessageReceivedENS_12basic_stringIcNS_11char_traitsIcEENS_9allocatorIcEEEEE3$_2NS7_ISA_EEFvvEED1Ev', symObjAddr: 0x43B6, symBinAddr: 0x260A6, symSize: 0x20 }
  - { offsetInCU: 0x7BEEA, offset: 0x15C081, size: 0x8, addend: 0x0, symName: __ZN3tns10ToV8StringEPN2v87IsolateERKNSt3__112basic_stringIcNS3_11char_traitsIcEENS3_9allocatorIcEEEE, symObjAddr: 0x1C70, symBinAddr: 0x23CF0, symSize: 0x42 }
  - { offsetInCU: 0x9016F, offset: 0x170306, size: 0x8, addend: 0x0, symName: ____ZN12v8_inspector19JsV8InspectorClient15enableInspectorEiPPc_block_invoke_4, symObjAddr: 0x509, symBinAddr: 0x22599, symSize: 0x1A5 }
  - { offsetInCU: 0x90C5C, offset: 0x170DF3, size: 0x8, addend: 0x0, symName: __ZN12v8_inspector19JsV8InspectorClient25onFrontendMessageReceivedENSt3__112basic_stringIcNS1_11char_traitsIcEENS1_9allocatorIcEEEE, symObjAddr: 0xA88, symBinAddr: 0x22B18, symSize: 0x1DC }
  - { offsetInCU: 0x93B66, offset: 0x173CFD, size: 0x8, addend: 0x0, symName: __ZN12v8_inspector19JsV8InspectorClientC2EPN3tns7RuntimeE, symObjAddr: 0x0, symBinAddr: 0x22090, symSize: 0xD6 }
  - { offsetInCU: 0x93E21, offset: 0x173FB8, size: 0x8, addend: 0x0, symName: __ZN12v8_inspector19JsV8InspectorClientC2EPN3tns7RuntimeE.cold.1, symObjAddr: 0x4CA4, symBinAddr: 0xC729B4, symSize: 0x1C }
  - { offsetInCU: 0x93EA7, offset: 0x17403E, size: 0x8, addend: 0x0, symName: __ZN12v8_inspector19JsV8InspectorClientC1EPN3tns7RuntimeE, symObjAddr: 0xD6, symBinAddr: 0x22166, symSize: 0xA }
  - { offsetInCU: 0x93EEC, offset: 0x174083, size: 0x8, addend: 0x0, symName: __ZN12v8_inspector19JsV8InspectorClient15enableInspectorEiPPc, symObjAddr: 0xE0, symBinAddr: 0x22170, symSize: 0x302 }
  - { offsetInCU: 0x94208, offset: 0x17439F, size: 0x8, addend: 0x0, symName: ____ZN12v8_inspector19JsV8InspectorClient15enableInspectorEiPPc_block_invoke, symObjAddr: 0x3E2, symBinAddr: 0x22472, symSize: 0xC9 }
  - { offsetInCU: 0x943D3, offset: 0x17456A, size: 0x8, addend: 0x0, symName: ____ZN12v8_inspector19JsV8InspectorClient15enableInspectorEiPPc_block_invoke_2, symObjAddr: 0x4AB, symBinAddr: 0x2253B, symSize: 0x28 }
  - { offsetInCU: 0x9440B, offset: 0x1745A2, size: 0x8, addend: 0x0, symName: ____ZN12v8_inspector19JsV8InspectorClient15enableInspectorEiPPc_block_invoke_3, symObjAddr: 0x4D3, symBinAddr: 0x22563, symSize: 0x36 }
  - { offsetInCU: 0x94BAD, offset: 0x174D44, size: 0x8, addend: 0x0, symName: ____ZN12v8_inspector19JsV8InspectorClient15enableInspectorEiPPc_block_invoke_4.cold.1, symObjAddr: 0x4CC0, symBinAddr: 0xC729D0, symSize: 0x27 }
  - { offsetInCU: 0x94C1C, offset: 0x174DB3, size: 0x8, addend: 0x0, symName: __ZN12v8_inspector19JsV8InspectorClient19onFrontendConnectedENSt3__18functionIFvNS1_12basic_stringIcNS1_11char_traitsIcEENS1_9allocatorIcEEEEEEE, symObjAddr: 0x6AE, symBinAddr: 0x2273E, symSize: 0x9C }
  - { offsetInCU: 0x94CB2, offset: 0x174E49, size: 0x8, addend: 0x0, symName: __ZNSt3__18functionIFvNS_12basic_stringIcNS_11char_traitsIcEENS_9allocatorIcEEEEEEaSERKS8_, symObjAddr: 0x952, symBinAddr: 0x229E2, symSize: 0x78 }
  - { offsetInCU: 0x94E2D, offset: 0x174FC4, size: 0x8, addend: 0x0, symName: __ZN12v8_inspector19JsV8InspectorClient10disconnectEv, symObjAddr: 0x9CA, symBinAddr: 0x22A5A, symSize: 0xBE }
  - { offsetInCU: 0x94FF9, offset: 0x175190, size: 0x8, addend: 0x0, symName: ____ZN12v8_inspector19JsV8InspectorClient19onFrontendConnectedENSt3__18functionIFvNS1_12basic_stringIcNS1_11char_traitsIcEENS1_9allocatorIcEEEEEEE_block_invoke, symObjAddr: 0x74A, symBinAddr: 0x227DA, symSize: 0x32 }
  - { offsetInCU: 0x9503E, offset: 0x1751D5, size: 0x8, addend: 0x0, symName: __ZN12v8_inspector19JsV8InspectorClient13scheduleBreakEv, symObjAddr: 0x77C, symBinAddr: 0x2280C, symSize: 0x1D6 }
  - { offsetInCU: 0x95A86, offset: 0x175C1D, size: 0x8, addend: 0x0, symName: __ZNSt3__112basic_stringIcNS_11char_traitsIcEENS_9allocatorIcEEEC2B8ue170006ILi0EEEPKc, symObjAddr: 0x46C0, symBinAddr: 0x26320, symSize: 0x80 }
  - { offsetInCU: 0x95EEF, offset: 0x176086, size: 0x8, addend: 0x0, symName: __ZNSt3__110__function12__value_funcIFvNS_12basic_stringIcNS_11char_traitsIcEENS_9allocatorIcEEEEEEC2B8ue170006ERKS9_, symObjAddr: 0x381E, symBinAddr: 0x2550E, symSize: 0x4C }
  - { offsetInCU: 0x95F32, offset: 0x1760C9, size: 0x8, addend: 0x0, symName: __ZNSt3__110__function12__value_funcIFvNS_12basic_stringIcNS_11char_traitsIcEENS_9allocatorIcEEEEEE4swapB8ue170006ERS9_, symObjAddr: 0x39DC, symBinAddr: 0x256CC, symSize: 0x114 }
  - { offsetInCU: 0x96035, offset: 0x1761CC, size: 0x8, addend: 0x0, symName: __ZN12v8_inspector19JsV8InspectorClient22createInspectorSessionEv, symObjAddr: 0xE4E, symBinAddr: 0x22EDE, symSize: 0x84 }
  - { offsetInCU: 0x96A25, offset: 0x176BBC, size: 0x8, addend: 0x0, symName: ____ZN12v8_inspector19JsV8InspectorClient25onFrontendMessageReceivedENSt3__112basic_stringIcNS1_11char_traitsIcEENS1_9allocatorIcEEEE_block_invoke, symObjAddr: 0xC64, symBinAddr: 0x22CF4, symSize: 0x2C }
  - { offsetInCU: 0x96A9C, offset: 0x176C33, size: 0x8, addend: 0x0, symName: __ZNSt3__15dequeINS_12basic_stringIcNS_11char_traitsIcEENS_9allocatorIcEEEENS4_IS6_EEE9push_backERKS6_, symObjAddr: 0x3AF0, symBinAddr: 0x257E0, symSize: 0xB8 }
  - { offsetInCU: 0x96CDA, offset: 0x176E71, size: 0x8, addend: 0x0, symName: ___copy_helper_block_e8_40c66_ZTSNSt3__112basic_stringIcNS_11char_traitsIcEENS_9allocatorIcEEEE, symObjAddr: 0xC90, symBinAddr: 0x22D20, symSize: 0x30 }
  - { offsetInCU: 0x96D75, offset: 0x176F0C, size: 0x8, addend: 0x0, symName: ___destroy_helper_block_e8_40c66_ZTSNSt3__112basic_stringIcNS_11char_traitsIcEENS_9allocatorIcEEEE, symObjAddr: 0xCC0, symBinAddr: 0x22D50, symSize: 0x16 }
  - { offsetInCU: 0x970D8, offset: 0x17726F, size: 0x8, addend: 0x0, symName: __ZN12v8_inspector19JsV8InspectorClient4initEv, symObjAddr: 0xCD6, symBinAddr: 0x22D66, symSize: 0x178 }
  - { offsetInCU: 0x974A1, offset: 0x177638, size: 0x8, addend: 0x0, symName: __ZNKSt3__114default_deleteIN3tns9inspector16TracingAgentImplEEclB8ue170006EPS3_, symObjAddr: 0x45FC, symBinAddr: 0x262EC, symSize: 0x2C }
  - { offsetInCU: 0x97663, offset: 0x1777FA, size: 0x8, addend: 0x0, symName: __ZN12v8_inspector19JsV8InspectorClient7connectEiPPc, symObjAddr: 0xED2, symBinAddr: 0x22F62, symSize: 0xE }
  - { offsetInCU: 0x977C8, offset: 0x17795F, size: 0x8, addend: 0x0, symName: __ZN12v8_inspector19JsV8InspectorClient21runMessageLoopOnPauseEi, symObjAddr: 0xEE0, symBinAddr: 0x22F70, symSize: 0x1F6 }
  - { offsetInCU: 0x97CDB, offset: 0x177E72, size: 0x8, addend: 0x0, symName: __ZN12v8_inspector19JsV8InspectorClient11PumpMessageEv, symObjAddr: 0x1126, symBinAddr: 0x231A6, symSize: 0x122 }
  - { offsetInCU: 0x9806C, offset: 0x178203, size: 0x8, addend: 0x0, symName: __ZN12v8_inspector19JsV8InspectorClient15dispatchMessageERKNSt3__112basic_stringIcNS1_11char_traitsIcEENS1_9allocatorIcEEEE, symObjAddr: 0x1248, symBinAddr: 0x232C8, symSize: 0x80C }
  - { offsetInCU: 0x99AF8, offset: 0x179C8F, size: 0x8, addend: 0x0, symName: ____ZN12v8_inspector19JsV8InspectorClient21runMessageLoopOnPauseEi_block_invoke, symObjAddr: 0x10D6, symBinAddr: 0x23166, symSize: 0x26 }
  - { offsetInCU: 0x99B38, offset: 0x179CCF, size: 0x8, addend: 0x0, symName: ___copy_helper_block_e8_32r, symObjAddr: 0x10FC, symBinAddr: 0x2318C, symSize: 0x17 }
  - { offsetInCU: 0x9A108, offset: 0x17A29F, size: 0x8, addend: 0x0, symName: __ZN12v8_inspector19JsV8InspectorClient25CallDomainHandlerFunctionEN2v85LocalINS1_7ContextEEENS2_INS1_8FunctionEEERKNS2_INS1_6ObjectEEERS8_RNS2_INS1_5ValueEEE, symObjAddr: 0x1CB2, symBinAddr: 0x23D32, symSize: 0x284 }
  - { offsetInCU: 0x9A82A, offset: 0x17A9C1, size: 0x8, addend: 0x0, symName: __ZN12v8_inspector19JsV8InspectorClient39GetReturnMessageFromDomainHandlerResultERKN2v85LocalINS1_5ValueEEES6_, symObjAddr: 0x1F36, symBinAddr: 0x23FB6, symSize: 0x4B6 }
  - { offsetInCU: 0x9BC99, offset: 0x17BE30, size: 0x8, addend: 0x0, symName: ____ZN12v8_inspector19JsV8InspectorClient21runMessageLoopOnPauseEi_block_invoke.24, symObjAddr: 0x1A54, symBinAddr: 0x23AD4, symSize: 0x12 }
  - { offsetInCU: 0x9BCC2, offset: 0x17BE59, size: 0x8, addend: 0x0, symName: __ZN12v8_inspector19JsV8InspectorClient22quitMessageLoopOnPauseEv, symObjAddr: 0x1A66, symBinAddr: 0x23AE6, symSize: 0x4E }
  - { offsetInCU: 0x9BCF8, offset: 0x17BE8F, size: 0x8, addend: 0x0, symName: ____ZN12v8_inspector19JsV8InspectorClient22quitMessageLoopOnPauseEv_block_invoke, symObjAddr: 0x1AB4, symBinAddr: 0x23B34, symSize: 0xE }
  - { offsetInCU: 0x9BD21, offset: 0x17BEB8, size: 0x8, addend: 0x0, symName: __ZN12v8_inspector19JsV8InspectorClient12sendResponseEiNSt3__110unique_ptrINS_12StringBufferENS1_14default_deleteIS3_EEEE, symObjAddr: 0x1AC2, symBinAddr: 0x23B42, symSize: 0x5A }
  - { offsetInCU: 0x9BF82, offset: 0x17C119, size: 0x8, addend: 0x0, symName: __ZN12v8_inspector19JsV8InspectorClient6notifyENSt3__110unique_ptrINS_12StringBufferENS1_14default_deleteIS3_EEEE, symObjAddr: 0x1B1C, symBinAddr: 0x23B9C, symSize: 0xD2 }
  - { offsetInCU: 0x9C663, offset: 0x17C7FA, size: 0x8, addend: 0x0, symName: __ZThn8_N12v8_inspector19JsV8InspectorClient12sendResponseEiNSt3__110unique_ptrINS_12StringBufferENS1_14default_deleteIS3_EEEE, symObjAddr: 0x1BEE, symBinAddr: 0x23C6E, symSize: 0xE }
  - { offsetInCU: 0x9C687, offset: 0x17C81E, size: 0x8, addend: 0x0, symName: __ZN12v8_inspector19JsV8InspectorClient16sendNotificationENSt3__110unique_ptrINS_12StringBufferENS1_14default_deleteIS3_EEEE, symObjAddr: 0x1BFC, symBinAddr: 0x23C7C, symSize: 0x5A }
  - { offsetInCU: 0x9C8D3, offset: 0x17CA6A, size: 0x8, addend: 0x0, symName: __ZThn8_N12v8_inspector19JsV8InspectorClient16sendNotificationENSt3__110unique_ptrINS_12StringBufferENS1_14default_deleteIS3_EEEE, symObjAddr: 0x1C56, symBinAddr: 0x23CD6, symSize: 0xE }
  - { offsetInCU: 0x9C8F7, offset: 0x17CA8E, size: 0x8, addend: 0x0, symName: __ZN12v8_inspector19JsV8InspectorClient26flushProtocolNotificationsEv, symObjAddr: 0x1C64, symBinAddr: 0x23CE4, symSize: 0x6 }
  - { offsetInCU: 0x9C91C, offset: 0x17CAB3, size: 0x8, addend: 0x0, symName: __ZThn8_N12v8_inspector19JsV8InspectorClient26flushProtocolNotificationsEv, symObjAddr: 0x1C6A, symBinAddr: 0x23CEA, symSize: 0x6 }
  - { offsetInCU: 0x9CC8A, offset: 0x17CE21, size: 0x8, addend: 0x0, symName: __ZN12v8_inspector19JsV8InspectorClient27ensureDefaultContextInGroupEi, symObjAddr: 0x23EC, symBinAddr: 0x2446C, symSize: 0x1E }
  - { offsetInCU: 0x9CD2F, offset: 0x17CEC6, size: 0x8, addend: 0x0, symName: ___Block_byref_object_copy_, symObjAddr: 0x240A, symBinAddr: 0x2448A, symSize: 0x25 }
  - { offsetInCU: 0x9CDC2, offset: 0x17CF59, size: 0x8, addend: 0x0, symName: ___Block_byref_object_dispose_, symObjAddr: 0x242F, symBinAddr: 0x244AF, symSize: 0x16 }
  - { offsetInCU: 0x9CF3E, offset: 0x17D0D5, size: 0x8, addend: 0x0, symName: ____ZN12v8_inspector19JsV8InspectorClient11PumpMessageEv_block_invoke, symObjAddr: 0x2445, symBinAddr: 0x244C5, symSize: 0x6D }
  - { offsetInCU: 0x9CFFD, offset: 0x17D194, size: 0x8, addend: 0x0, symName: __ZNSt3__15dequeINS_12basic_stringIcNS_11char_traitsIcEENS_9allocatorIcEEEENS4_IS6_EEE9pop_frontEv, symObjAddr: 0x4740, symBinAddr: 0x263A0, symSize: 0x70 }
  - { offsetInCU: 0x9D229, offset: 0x17D3C0, size: 0x8, addend: 0x0, symName: __ZN12v8_inspector19JsV8InspectorClient15registerModulesEv, symObjAddr: 0x24B2, symBinAddr: 0x24532, symSize: 0x448 }
  - { offsetInCU: 0x9E0A7, offset: 0x17E23E, size: 0x8, addend: 0x0, symName: __ZN12v8_inspector19JsV8InspectorClient32registerDomainDispatcherCallbackERKN2v820FunctionCallbackInfoINS1_5ValueEEE, symObjAddr: 0x28FA, symBinAddr: 0x2497A, symSize: 0x14A }
  - { offsetInCU: 0x9E64B, offset: 0x17E7E2, size: 0x8, addend: 0x0, symName: __ZNSt3__16__treeINS_12__value_typeINS_12basic_stringIcNS_11char_traitsIcEENS_9allocatorIcEEEEPN2v810PersistentINS8_6ObjectENS8_27NonCopyablePersistentTraitsISA_EEEEEENS_19__map_value_compareIS7_SF_NS_4lessIS7_EELb1EEENS5_ISF_EEE4findIS7_EENS_15__tree_iteratorISF_PNS_11__tree_nodeISF_PvEElEERKT_, symObjAddr: 0x4806, symBinAddr: 0x26466, symSize: 0x7A }
  - { offsetInCU: 0x9E7B6, offset: 0x17E94D, size: 0x8, addend: 0x0, symName: __ZNSt3__16__treeINS_12__value_typeINS_12basic_stringIcNS_11char_traitsIcEENS_9allocatorIcEEEEPN2v810PersistentINS8_6ObjectENS8_27NonCopyablePersistentTraitsISA_EEEEEENS_19__map_value_compareIS7_SF_NS_4lessIS7_EELb1EEENS5_ISF_EEE25__emplace_unique_key_argsIS7_JRS7_RSE_EEENS_4pairINS_15__tree_iteratorISF_PNS_11__tree_nodeISF_PvEElEEbEERKT_DpOT0_, symObjAddr: 0x48EA, symBinAddr: 0x2654A, symSize: 0x72 }
  - { offsetInCU: 0x9E90E, offset: 0x17EAA5, size: 0x8, addend: 0x0, symName: __ZN12v8_inspector19JsV8InspectorClient26inspectorSendEventCallbackERKN2v820FunctionCallbackInfoINS1_5ValueEEE, symObjAddr: 0x2A44, symBinAddr: 0x24AC4, symSize: 0x166 }
  - { offsetInCU: 0x9F3D9, offset: 0x17F570, size: 0x8, addend: 0x0, symName: __ZN12v8_inspector19JsV8InspectorClient26inspectorTimestampCallbackERKN2v820FunctionCallbackInfoINS1_5ValueEEE, symObjAddr: 0x2BAA, symBinAddr: 0x24C2A, symSize: 0x3A }
  - { offsetInCU: 0x9FB25, offset: 0x17FCBC, size: 0x8, addend: 0x0, symName: __ZN12v8_inspector19JsV8InspectorClient10consoleLogEPN2v87IsolateENS_14ConsoleAPITypeERKNSt3__16vectorINS1_5LocalINS1_5ValueEEENS5_9allocatorIS9_EEEE, symObjAddr: 0x2C98, symBinAddr: 0x24C68, symSize: 0x1CC }
  - { offsetInCU: 0xA037B, offset: 0x180512, size: 0x8, addend: 0x0, symName: __ZN12v8_inspector19JsV8InspectorClient10consoleLogEPN2v87IsolateENS_14ConsoleAPITypeERKNSt3__16vectorINS1_5LocalINS1_5ValueEEENS5_9allocatorIS9_EEEE.cold.1, symObjAddr: 0x4CE7, symBinAddr: 0xC729F7, symSize: 0x14 }
  - { offsetInCU: 0xA0503, offset: 0x18069A, size: 0x8, addend: 0x0, symName: __ZNSt3__13mapINS_12basic_stringIcNS_11char_traitsIcEENS_9allocatorIcEEEEPN2v810PersistentINS7_6ObjectENS7_27NonCopyablePersistentTraitsIS9_EEEENS_4lessIS6_EENS4_INS_4pairIKS6_SD_EEEEED1B8ue170006Ev, symObjAddr: 0x2E64, symBinAddr: 0x24E34, symSize: 0xE }
  - { offsetInCU: 0xA05AD, offset: 0x180744, size: 0x8, addend: 0x0, symName: __ZNSt3__16__treeINS_12__value_typeINS_12basic_stringIcNS_11char_traitsIcEENS_9allocatorIcEEEEPN2v810PersistentINS8_6ObjectENS8_27NonCopyablePersistentTraitsISA_EEEEEENS_19__map_value_compareIS7_SF_NS_4lessIS7_EELb1EEENS5_ISF_EEE7destroyEPNS_11__tree_nodeISF_PvEE, symObjAddr: 0x4C62, symBinAddr: 0x26762, symSize: 0x42 }
  - { offsetInCU: 0xA090A, offset: 0x180AA1, size: 0x8, addend: 0x0, symName: __ZN12v8_inspector19JsV8InspectorClientD1Ev, symObjAddr: 0x2E72, symBinAddr: 0x24E42, symSize: 0xB2 }
  - { offsetInCU: 0xA0BCA, offset: 0x180D61, size: 0x8, addend: 0x0, symName: __ZNSt3__15dequeINS_12basic_stringIcNS_11char_traitsIcEENS_9allocatorIcEEEENS4_IS6_EEED2B8ue170006Ev, symObjAddr: 0x344C, symBinAddr: 0x251EC, symSize: 0x156 }
  - { offsetInCU: 0xA10F4, offset: 0x18128B, size: 0x8, addend: 0x0, symName: __ZN12v8_inspector19JsV8InspectorClientD0Ev, symObjAddr: 0x2F24, symBinAddr: 0x24EF4, symSize: 0xB4 }
  - { offsetInCU: 0xA13CE, offset: 0x181565, size: 0x8, addend: 0x0, symName: __ZN12v8_inspector17V8InspectorClient23runIfWaitingForDebuggerEi, symObjAddr: 0x2FD8, symBinAddr: 0x24FA8, symSize: 0x6 }
  - { offsetInCU: 0xA1400, offset: 0x181597, size: 0x8, addend: 0x0, symName: __ZN12v8_inspector17V8InspectorClient11muteMetricsEi, symObjAddr: 0x2FDE, symBinAddr: 0x24FAE, symSize: 0x6 }
  - { offsetInCU: 0xA1432, offset: 0x1815C9, size: 0x8, addend: 0x0, symName: __ZN12v8_inspector17V8InspectorClient13unmuteMetricsEi, symObjAddr: 0x2FE4, symBinAddr: 0x24FB4, symSize: 0x6 }
  - { offsetInCU: 0xA1464, offset: 0x1815FB, size: 0x8, addend: 0x0, symName: __ZN12v8_inspector17V8InspectorClient16beginUserGestureEv, symObjAddr: 0x2FEA, symBinAddr: 0x24FBA, symSize: 0x6 }
  - { offsetInCU: 0xA1489, offset: 0x181620, size: 0x8, addend: 0x0, symName: __ZN12v8_inspector17V8InspectorClient14endUserGestureEv, symObjAddr: 0x2FF0, symBinAddr: 0x24FC0, symSize: 0x6 }
  - { offsetInCU: 0xA15B6, offset: 0x18174D, size: 0x8, addend: 0x0, symName: __ZN12v8_inspector17V8InspectorClient25serializeToWebDriverValueEN2v85LocalINS1_5ValueEEEi, symObjAddr: 0x2FF6, symBinAddr: 0x24FC6, symSize: 0x10 }
  - { offsetInCU: 0xA178F, offset: 0x181926, size: 0x8, addend: 0x0, symName: __ZN12v8_inspector17V8InspectorClient12valueSubtypeEN2v85LocalINS1_5ValueEEE, symObjAddr: 0x3006, symBinAddr: 0x24FD6, symSize: 0x10 }
  - { offsetInCU: 0xA1856, offset: 0x1819ED, size: 0x8, addend: 0x0, symName: __ZN12v8_inspector17V8InspectorClient26descriptionForValueSubtypeEN2v85LocalINS1_7ContextEEENS2_INS1_5ValueEEE, symObjAddr: 0x3016, symBinAddr: 0x24FE6, symSize: 0x10 }
  - { offsetInCU: 0xA1927, offset: 0x181ABE, size: 0x8, addend: 0x0, symName: __ZN12v8_inspector17V8InspectorClient23isInspectableHeapObjectEN2v85LocalINS1_6ObjectEEE, symObjAddr: 0x3026, symBinAddr: 0x24FF6, symSize: 0x8 }
  - { offsetInCU: 0xA1956, offset: 0x181AED, size: 0x8, addend: 0x0, symName: __ZN12v8_inspector17V8InspectorClient29beginEnsureAllContextsInGroupEi, symObjAddr: 0x302E, symBinAddr: 0x24FFE, symSize: 0x6 }
  - { offsetInCU: 0xA1988, offset: 0x181B1F, size: 0x8, addend: 0x0, symName: __ZN12v8_inspector17V8InspectorClient27endEnsureAllContextsInGroupEi, symObjAddr: 0x3034, symBinAddr: 0x25004, symSize: 0x6 }
  - { offsetInCU: 0xA19BA, offset: 0x181B51, size: 0x8, addend: 0x0, symName: __ZN12v8_inspector17V8InspectorClient31installAdditionalCommandLineAPIEN2v85LocalINS1_7ContextEEENS2_INS1_6ObjectEEE, symObjAddr: 0x303A, symBinAddr: 0x2500A, symSize: 0x6 }
  - { offsetInCU: 0xA19F3, offset: 0x181B8A, size: 0x8, addend: 0x0, symName: __ZN12v8_inspector17V8InspectorClient17consoleAPIMessageEiN2v87Isolate17MessageErrorLevelERKNS_10StringViewES6_jjPNS_12V8StackTraceE, symObjAddr: 0x3040, symBinAddr: 0x25010, symSize: 0x6 }
  - { offsetInCU: 0xA1A76, offset: 0x181C0D, size: 0x8, addend: 0x0, symName: __ZN12v8_inspector17V8InspectorClient10memoryInfoEPN2v87IsolateENS1_5LocalINS1_7ContextEEE, symObjAddr: 0x3046, symBinAddr: 0x25016, symSize: 0x8 }
  - { offsetInCU: 0xA1AB1, offset: 0x181C48, size: 0x8, addend: 0x0, symName: __ZN12v8_inspector17V8InspectorClient11consoleTimeERKNS_10StringViewE, symObjAddr: 0x304E, symBinAddr: 0x2501E, symSize: 0x6 }
  - { offsetInCU: 0xA1AE4, offset: 0x181C7B, size: 0x8, addend: 0x0, symName: __ZN12v8_inspector17V8InspectorClient14consoleTimeEndERKNS_10StringViewE, symObjAddr: 0x3054, symBinAddr: 0x25024, symSize: 0x6 }
  - { offsetInCU: 0xA1B17, offset: 0x181CAE, size: 0x8, addend: 0x0, symName: __ZN12v8_inspector17V8InspectorClient16consoleTimeStampERKNS_10StringViewE, symObjAddr: 0x305A, symBinAddr: 0x2502A, symSize: 0x6 }
  - { offsetInCU: 0xA1B4A, offset: 0x181CE1, size: 0x8, addend: 0x0, symName: __ZN12v8_inspector17V8InspectorClient12consoleClearEi, symObjAddr: 0x3060, symBinAddr: 0x25030, symSize: 0x6 }
  - { offsetInCU: 0xA1B7D, offset: 0x181D14, size: 0x8, addend: 0x0, symName: __ZN12v8_inspector17V8InspectorClient13currentTimeMSEv, symObjAddr: 0x3066, symBinAddr: 0x25036, symSize: 0xA }
  - { offsetInCU: 0xA1BA2, offset: 0x181D39, size: 0x8, addend: 0x0, symName: __ZN12v8_inspector17V8InspectorClient19startRepeatingTimerEdPFvPvES1_, symObjAddr: 0x3070, symBinAddr: 0x25040, symSize: 0x6 }
  - { offsetInCU: 0xA1BEB, offset: 0x181D82, size: 0x8, addend: 0x0, symName: __ZN12v8_inspector17V8InspectorClient11cancelTimerEPv, symObjAddr: 0x3076, symBinAddr: 0x25046, symSize: 0x6 }
  - { offsetInCU: 0xA1C1E, offset: 0x181DB5, size: 0x8, addend: 0x0, symName: __ZN12v8_inspector17V8InspectorClient17canExecuteScriptsEi, symObjAddr: 0x307C, symBinAddr: 0x2504C, symSize: 0x8 }
  - { offsetInCU: 0xA1C51, offset: 0x181DE8, size: 0x8, addend: 0x0, symName: __ZN12v8_inspector17V8InspectorClient29maxAsyncCallStackDepthChangedEi, symObjAddr: 0x3084, symBinAddr: 0x25054, symSize: 0x6 }
  - { offsetInCU: 0xA1C84, offset: 0x181E1B, size: 0x8, addend: 0x0, symName: __ZN12v8_inspector17V8InspectorClient17resourceNameToUrlERKNS_10StringViewE, symObjAddr: 0x308A, symBinAddr: 0x2505A, symSize: 0x10 }
  - { offsetInCU: 0xA1D50, offset: 0x181EE7, size: 0x8, addend: 0x0, symName: __ZN12v8_inspector17V8InspectorClient16generateUniqueIdEv, symObjAddr: 0x309A, symBinAddr: 0x2506A, symSize: 0x8 }
  - { offsetInCU: 0xA1D75, offset: 0x181F0C, size: 0x8, addend: 0x0, symName: __ZN12v8_inspector17V8InspectorClient13dispatchErrorEN2v85LocalINS1_7ContextEEENS2_INS1_7MessageEEENS2_INS1_5ValueEEE, symObjAddr: 0x30A2, symBinAddr: 0x25072, symSize: 0x6 }
  - { offsetInCU: 0xA1DBB, offset: 0x181F52, size: 0x8, addend: 0x0, symName: __ZThn8_N12v8_inspector19JsV8InspectorClientD1Ev, symObjAddr: 0x30A8, symBinAddr: 0x25078, symSize: 0xB2 }
  - { offsetInCU: 0xA20AA, offset: 0x182241, size: 0x8, addend: 0x0, symName: __ZThn8_N12v8_inspector19JsV8InspectorClientD0Ev, symObjAddr: 0x315A, symBinAddr: 0x2512A, symSize: 0xB6 }
  - { offsetInCU: 0xA2AD7, offset: 0x182C6E, size: 0x8, addend: 0x0, symName: __ZNSt3__114__split_bufferIPNS_12basic_stringIcNS_11char_traitsIcEENS_9allocatorIcEEEENS4_IS7_EEED2Ev, symObjAddr: 0x35A2, symBinAddr: 0x25342, symSize: 0x34 }
  - { offsetInCU: 0xA2CD5, offset: 0x182E6C, size: 0x8, addend: 0x0, symName: '__ZNSt3__110__function6__funcIZZN12v8_inspector19JsV8InspectorClient15enableInspectorEiPPcEUb_E3$_0NS_9allocatorIS6_EEFvNS_8functionIFvNS_12basic_stringIcNS_11char_traitsIcEENS7_IcEEEEEEEEED1Ev', symObjAddr: 0x3686, symBinAddr: 0x25376, symSize: 0x6 }
  - { offsetInCU: 0xA2CFF, offset: 0x182E96, size: 0x8, addend: 0x0, symName: '__ZNSt3__110__function6__funcIZZN12v8_inspector19JsV8InspectorClient15enableInspectorEiPPcEUb_E3$_0NS_9allocatorIS6_EEFvNS_8functionIFvNS_12basic_stringIcNS_11char_traitsIcEENS7_IcEEEEEEEEED0Ev', symObjAddr: 0x368C, symBinAddr: 0x2537C, symSize: 0xA }
  - { offsetInCU: 0xA2F05, offset: 0x18309C, size: 0x8, addend: 0x0, symName: '__ZNKSt3__110__function6__funcIZZN12v8_inspector19JsV8InspectorClient15enableInspectorEiPPcEUb_E3$_0NS_9allocatorIS6_EEFvNS_8functionIFvNS_12basic_stringIcNS_11char_traitsIcEENS7_IcEEEEEEEEE7__cloneEv', symObjAddr: 0x3696, symBinAddr: 0x25386, symSize: 0x2C }
  - { offsetInCU: 0xA3225, offset: 0x1833BC, size: 0x8, addend: 0x0, symName: '__ZNKSt3__110__function6__funcIZZN12v8_inspector19JsV8InspectorClient15enableInspectorEiPPcEUb_E3$_0NS_9allocatorIS6_EEFvNS_8functionIFvNS_12basic_stringIcNS_11char_traitsIcEENS7_IcEEEEEEEEE7__cloneEPNS0_6__baseISH_EE', symObjAddr: 0x36C2, symBinAddr: 0x253B2, symSize: 0x18 }
  - { offsetInCU: 0xA33A0, offset: 0x183537, size: 0x8, addend: 0x0, symName: '__ZNSt3__110__function6__funcIZZN12v8_inspector19JsV8InspectorClient15enableInspectorEiPPcEUb_E3$_0NS_9allocatorIS6_EEFvNS_8functionIFvNS_12basic_stringIcNS_11char_traitsIcEENS7_IcEEEEEEEEE7destroyEv', symObjAddr: 0x36DA, symBinAddr: 0x253CA, symSize: 0x6 }
  - { offsetInCU: 0xA33F1, offset: 0x183588, size: 0x8, addend: 0x0, symName: '__ZNSt3__110__function6__funcIZZN12v8_inspector19JsV8InspectorClient15enableInspectorEiPPcEUb_E3$_0NS_9allocatorIS6_EEFvNS_8functionIFvNS_12basic_stringIcNS_11char_traitsIcEENS7_IcEEEEEEEEE18destroy_deallocateEv', symObjAddr: 0x36E0, symBinAddr: 0x253D0, symSize: 0xA }
  - { offsetInCU: 0xA35D7, offset: 0x18376E, size: 0x8, addend: 0x0, symName: '__ZNSt3__110__function6__funcIZZN12v8_inspector19JsV8InspectorClient15enableInspectorEiPPcEUb_E3$_0NS_9allocatorIS6_EEFvNS_8functionIFvNS_12basic_stringIcNS_11char_traitsIcEENS7_IcEEEEEEEEEclEOSG_', symObjAddr: 0x36EA, symBinAddr: 0x253DA, symSize: 0x134 }
  - { offsetInCU: 0xA3A08, offset: 0x183B9F, size: 0x8, addend: 0x0, symName: __ZNSt3__110__function12__value_funcIFvNS_12basic_stringIcNS_11char_traitsIcEENS_9allocatorIcEEEEEEC2B8ue170006EOS9_, symObjAddr: 0x386A, symBinAddr: 0x2555A, symSize: 0x4A }
  - { offsetInCU: 0xA3A4F, offset: 0x183BE6, size: 0x8, addend: 0x0, symName: '__ZNSt3__110__function6__funcIZZN12v8_inspector19JsV8InspectorClient15enableInspectorEiPPcEUb_E3$_1NS_9allocatorIS6_EEFvNS_12basic_stringIcNS_11char_traitsIcEENS7_IcEEEEEED1Ev', symObjAddr: 0x38B4, symBinAddr: 0x255A4, symSize: 0x6 }
  - { offsetInCU: 0xA3A79, offset: 0x183C10, size: 0x8, addend: 0x0, symName: '__ZNSt3__110__function6__funcIZZN12v8_inspector19JsV8InspectorClient15enableInspectorEiPPcEUb_E3$_1NS_9allocatorIS6_EEFvNS_12basic_stringIcNS_11char_traitsIcEENS7_IcEEEEEED0Ev', symObjAddr: 0x38BA, symBinAddr: 0x255AA, symSize: 0xA }
  - { offsetInCU: 0xA3C7F, offset: 0x183E16, size: 0x8, addend: 0x0, symName: '__ZNKSt3__110__function6__funcIZZN12v8_inspector19JsV8InspectorClient15enableInspectorEiPPcEUb_E3$_1NS_9allocatorIS6_EEFvNS_12basic_stringIcNS_11char_traitsIcEENS7_IcEEEEEE7__cloneEv', symObjAddr: 0x38C4, symBinAddr: 0x255B4, symSize: 0x2C }
  - { offsetInCU: 0xA3F9F, offset: 0x184136, size: 0x8, addend: 0x0, symName: '__ZNKSt3__110__function6__funcIZZN12v8_inspector19JsV8InspectorClient15enableInspectorEiPPcEUb_E3$_1NS_9allocatorIS6_EEFvNS_12basic_stringIcNS_11char_traitsIcEENS7_IcEEEEEE7__cloneEPNS0_6__baseISE_EE', symObjAddr: 0x38F0, symBinAddr: 0x255E0, symSize: 0x18 }
  - { offsetInCU: 0xA411A, offset: 0x1842B1, size: 0x8, addend: 0x0, symName: '__ZNSt3__110__function6__funcIZZN12v8_inspector19JsV8InspectorClient15enableInspectorEiPPcEUb_E3$_1NS_9allocatorIS6_EEFvNS_12basic_stringIcNS_11char_traitsIcEENS7_IcEEEEEE7destroyEv', symObjAddr: 0x3908, symBinAddr: 0x255F8, symSize: 0x6 }
  - { offsetInCU: 0xA416B, offset: 0x184302, size: 0x8, addend: 0x0, symName: '__ZNSt3__110__function6__funcIZZN12v8_inspector19JsV8InspectorClient15enableInspectorEiPPcEUb_E3$_1NS_9allocatorIS6_EEFvNS_12basic_stringIcNS_11char_traitsIcEENS7_IcEEEEEE18destroy_deallocateEv', symObjAddr: 0x390E, symBinAddr: 0x255FE, symSize: 0xA }
  - { offsetInCU: 0xA42B5, offset: 0x18444C, size: 0x8, addend: 0x0, symName: '__ZNSt3__110__function6__funcIZZN12v8_inspector19JsV8InspectorClient15enableInspectorEiPPcEUb_E3$_1NS_9allocatorIS6_EEFvNS_12basic_stringIcNS_11char_traitsIcEENS7_IcEEEEEEclEOSD_', symObjAddr: 0x3918, symBinAddr: 0x25608, symSize: 0xC4 }
  - { offsetInCU: 0xA488D, offset: 0x184A24, size: 0x8, addend: 0x0, symName: __ZNSt3__15dequeINS_12basic_stringIcNS_11char_traitsIcEENS_9allocatorIcEEEENS4_IS6_EEE19__add_back_capacityEv, symObjAddr: 0x3BA8, symBinAddr: 0x25898, symSize: 0x360 }
  - { offsetInCU: 0xA59D3, offset: 0x185B6A, size: 0x8, addend: 0x0, symName: __ZNSt3__114__split_bufferIPNS_12basic_stringIcNS_11char_traitsIcEENS_9allocatorIcEEEENS4_IS7_EEE9push_backEOS7_, symObjAddr: 0x3F08, symBinAddr: 0x25BF8, symSize: 0x126 }
  - { offsetInCU: 0xA5E35, offset: 0x185FCC, size: 0x8, addend: 0x0, symName: __ZNSt3__114__split_bufferIPNS_12basic_stringIcNS_11char_traitsIcEENS_9allocatorIcEEEERNS4_IS7_EEE9push_backEOS7_, symObjAddr: 0x4148, symBinAddr: 0x25E38, symSize: 0x126 }
  - { offsetInCU: 0xA62DE, offset: 0x186475, size: 0x8, addend: 0x0, symName: __ZNSt3__114__split_bufferIPNS_12basic_stringIcNS_11char_traitsIcEENS_9allocatorIcEEEERNS4_IS7_EEE10push_frontERKS7_, symObjAddr: 0x426E, symBinAddr: 0x25F5E, symSize: 0x11A }
  - { offsetInCU: 0xA676E, offset: 0x186905, size: 0x8, addend: 0x0, symName: __ZNSt3__114__split_bufferIPNS_12basic_stringIcNS_11char_traitsIcEENS_9allocatorIcEEEENS4_IS7_EEE10push_frontEOS7_, symObjAddr: 0x402E, symBinAddr: 0x25D1E, symSize: 0x11A }
  - { offsetInCU: 0xA6E22, offset: 0x186FB9, size: 0x8, addend: 0x0, symName: '__ZNSt3__110__function6__funcIZN12v8_inspector19JsV8InspectorClient25onFrontendMessageReceivedENS_12basic_stringIcNS_11char_traitsIcEENS_9allocatorIcEEEEE3$_2NS7_ISA_EEFvvEED1Ev', symObjAddr: 0x43B6, symBinAddr: 0x260A6, symSize: 0x20 }
  - { offsetInCU: 0xA700A, offset: 0x1871A1, size: 0x8, addend: 0x0, symName: '__ZNSt3__110__function6__funcIZN12v8_inspector19JsV8InspectorClient25onFrontendMessageReceivedENS_12basic_stringIcNS_11char_traitsIcEENS_9allocatorIcEEEEE3$_2NS7_ISA_EEFvvEED0Ev', symObjAddr: 0x43D6, symBinAddr: 0x260C6, symSize: 0x30 }
  - { offsetInCU: 0xA74D5, offset: 0x18766C, size: 0x8, addend: 0x0, symName: '__ZNKSt3__110__function6__funcIZN12v8_inspector19JsV8InspectorClient25onFrontendMessageReceivedENS_12basic_stringIcNS_11char_traitsIcEENS_9allocatorIcEEEEE3$_2NS7_ISA_EEFvvEE7__cloneEv', symObjAddr: 0x4406, symBinAddr: 0x260F6, symSize: 0x4A }
  - { offsetInCU: 0xA7762, offset: 0x1878F9, size: 0x8, addend: 0x0, symName: '__ZNSt3__122__compressed_pair_elemIZN12v8_inspector19JsV8InspectorClient25onFrontendMessageReceivedENS_12basic_stringIcNS_11char_traitsIcEENS_9allocatorIcEEEEE3$_2Li0ELb0EEC2B8ue170006IJRKS9_EJLm0EEEENS_21piecewise_construct_tENS_5tupleIJDpT_EEENS_15__tuple_indicesIJXspT0_EEEE', symObjAddr: 0x44FC, symBinAddr: 0x261EC, symSize: 0x36 }
  - { offsetInCU: 0xA79DA, offset: 0x187B71, size: 0x8, addend: 0x0, symName: '__ZNKSt3__110__function6__funcIZN12v8_inspector19JsV8InspectorClient25onFrontendMessageReceivedENS_12basic_stringIcNS_11char_traitsIcEENS_9allocatorIcEEEEE3$_2NS7_ISA_EEFvvEE7__cloneEPNS0_6__baseISC_EE', symObjAddr: 0x4450, symBinAddr: 0x26140, symSize: 0x20 }
  - { offsetInCU: 0xA7B39, offset: 0x187CD0, size: 0x8, addend: 0x0, symName: '__ZNSt3__110__function6__funcIZN12v8_inspector19JsV8InspectorClient25onFrontendMessageReceivedENS_12basic_stringIcNS_11char_traitsIcEENS_9allocatorIcEEEEE3$_2NS7_ISA_EEFvvEE7destroyEv', symObjAddr: 0x4470, symBinAddr: 0x26160, symSize: 0x16 }
  - { offsetInCU: 0xA7CDE, offset: 0x187E75, size: 0x8, addend: 0x0, symName: '__ZNSt3__110__function6__funcIZN12v8_inspector19JsV8InspectorClient25onFrontendMessageReceivedENS_12basic_stringIcNS_11char_traitsIcEENS_9allocatorIcEEEEE3$_2NS7_ISA_EEFvvEE18destroy_deallocateEv', symObjAddr: 0x4486, symBinAddr: 0x26176, symSize: 0x26 }
  - { offsetInCU: 0xA7FD7, offset: 0x18816E, size: 0x8, addend: 0x0, symName: '__ZNSt3__110__function6__funcIZN12v8_inspector19JsV8InspectorClient25onFrontendMessageReceivedENS_12basic_stringIcNS_11char_traitsIcEENS_9allocatorIcEEEEE3$_2NS7_ISA_EEFvvEEclEv', symObjAddr: 0x44AC, symBinAddr: 0x2619C, symSize: 0x50 }
  - { offsetInCU: 0xA8119, offset: 0x1882B0, size: 0x8, addend: 0x0, symName: '____ZZN12v8_inspector19JsV8InspectorClient25onFrontendMessageReceivedENSt3__112basic_stringIcNS1_11char_traitsIcEENS1_9allocatorIcEEEEENK3$_2clEv_block_invoke', symObjAddr: 0x4532, symBinAddr: 0x26222, symSize: 0xCA }
  - { offsetInCU: 0xA8657, offset: 0x1887EE, size: 0x8, addend: 0x0, symName: __ZNSt3__15dequeINS_12basic_stringIcNS_11char_traitsIcEENS_9allocatorIcEEEENS4_IS6_EEE26__maybe_remove_front_spareB8ue170006Eb, symObjAddr: 0x47B0, symBinAddr: 0x26410, symSize: 0x56 }
  - { offsetInCU: 0xA88F7, offset: 0x188A8E, size: 0x8, addend: 0x0, symName: __ZNKSt3__14lessINS_12basic_stringIcNS_11char_traitsIcEENS_9allocatorIcEEEEEclB8ue170006ERKS6_S9_, symObjAddr: 0x4880, symBinAddr: 0x264E0, symSize: 0x6A }
  - { offsetInCU: 0xA8B3A, offset: 0x188CD1, size: 0x8, addend: 0x0, symName: __ZNSt3__16__treeINS_12__value_typeINS_12basic_stringIcNS_11char_traitsIcEENS_9allocatorIcEEEEPN2v810PersistentINS8_6ObjectENS8_27NonCopyablePersistentTraitsISA_EEEEEENS_19__map_value_compareIS7_SF_NS_4lessIS7_EELb1EEENS5_ISF_EEE12__find_equalIS7_EERPNS_16__tree_node_baseIPvEERPNS_15__tree_end_nodeISQ_EERKT_, symObjAddr: 0x495C, symBinAddr: 0x265BC, symSize: 0x88 }
  - { offsetInCU: 0xA8C56, offset: 0x188DED, size: 0x8, addend: 0x0, symName: __ZNSt3__16__treeINS_12__value_typeINS_12basic_stringIcNS_11char_traitsIcEENS_9allocatorIcEEEEPN2v810PersistentINS8_6ObjectENS8_27NonCopyablePersistentTraitsISA_EEEEEENS_19__map_value_compareIS7_SF_NS_4lessIS7_EELb1EEENS5_ISF_EEE16__construct_nodeIJRS7_RSE_EEENS_10unique_ptrINS_11__tree_nodeISF_PvEENS_22__tree_node_destructorINS5_ISS_EEEEEEDpOT_, symObjAddr: 0x49E4, symBinAddr: 0x26644, symSize: 0xA4 }
  - { offsetInCU: 0xA8F95, offset: 0x18912C, size: 0x8, addend: 0x0, symName: __ZNSt3__16__treeINS_12__value_typeINS_12basic_stringIcNS_11char_traitsIcEENS_9allocatorIcEEEEPN2v810PersistentINS8_6ObjectENS8_27NonCopyablePersistentTraitsISA_EEEEEENS_19__map_value_compareIS7_SF_NS_4lessIS7_EELb1EEENS5_ISF_EEE16__insert_node_atEPNS_15__tree_end_nodeIPNS_16__tree_node_baseIPvEEEERSQ_SQ_, symObjAddr: 0x4A88, symBinAddr: 0x266E8, symSize: 0x3E }
  - { offsetInCU: 0xA9351, offset: 0x1894E8, size: 0x8, addend: 0x0, symName: __ZNSt3__122__tree_node_destructorINS_9allocatorINS_11__tree_nodeINS_12__value_typeINS_12basic_stringIcNS_11char_traitsIcEENS1_IcEEEEPN2v810PersistentINS9_6ObjectENS9_27NonCopyablePersistentTraitsISB_EEEEEEPvEEEEEclB8ue170006EPSI_, symObjAddr: 0x4C28, symBinAddr: 0x26728, symSize: 0x3A }
  - { offsetInCU: 0xA9804, offset: 0x18999B, size: 0x8, addend: 0x0, symName: __GLOBAL__sub_I_JsV8InspectorClient.mm, symObjAddr: 0x5240, symBinAddr: 0x267A4, symSize: 0x37 }
  - { offsetInCU: 0x26, offset: 0x18A207, size: 0x8, addend: 0x0, symName: __ZN3tns12ClassBuilder16GetExtendedClassENSt3__112basic_stringIcNS1_11char_traitsIcEENS1_9allocatorIcEEEES7_, symObjAddr: 0x0, symBinAddr: 0x267DC, symSize: 0x382 }
  - { offsetInCU: 0x7543, offset: 0x191724, size: 0x8, addend: 0x0, symName: __ZN3tns12ClassBuilder16GetExtendedClassENSt3__112basic_stringIcNS1_11char_traitsIcEENS1_9allocatorIcEEEES7_, symObjAddr: 0x0, symBinAddr: 0x267DC, symSize: 0x382 }
  - { offsetInCU: 0x6D4C, offset: 0x199E8A, size: 0x8, addend: 0x0, symName: __ZNSt3__115allocate_sharedB8ue170006IN2v810PersistentINS1_6ObjectENS1_27NonCopyablePersistentTraitsIS3_EEEENS_9allocatorIS6_EEJRPNS1_7IsolateENS1_5LocalIS3_EEEvEENS_10shared_ptrIT_EERKT0_DpOT1_, symObjAddr: 0x1FEE, symBinAddr: 0x2892E, symSize: 0x5C }
  - { offsetInCU: 0x10455, offset: 0x1A3593, size: 0x8, addend: 0x0, symName: __ZN3tns7Pointer8RegisterEN2v85LocalINS1_7ContextEEENS2_INS1_6ObjectEEE, symObjAddr: 0x0, symBinAddr: 0x26B60, symSize: 0x100 }
  - { offsetInCU: 0x10866, offset: 0x1A39A4, size: 0x8, addend: 0x0, symName: __ZN3tns7Pointer18GetPointerCtorFuncEN2v85LocalINS1_7ContextEEE, symObjAddr: 0x100, symBinAddr: 0x26C60, symSize: 0x38A }
  - { offsetInCU: 0x11D5F, offset: 0x1A4E9D, size: 0x8, addend: 0x0, symName: __ZN3tns7Pointer17RegisterAddMethodEN2v85LocalINS1_7ContextEEENS2_INS1_6ObjectEEE, symObjAddr: 0x906, symBinAddr: 0x27466, symSize: 0x16A }
  - { offsetInCU: 0x1234F, offset: 0x1A548D, size: 0x8, addend: 0x0, symName: __ZN3tns7Pointer22RegisterSubtractMethodEN2v85LocalINS1_7ContextEEENS2_INS1_6ObjectEEE, symObjAddr: 0xA70, symBinAddr: 0x275D0, symSize: 0x16A }
  - { offsetInCU: 0x1293F, offset: 0x1A5A7D, size: 0x8, addend: 0x0, symName: __ZN3tns7Pointer22RegisterToStringMethodEN2v85LocalINS1_7ContextEEENS2_INS1_6ObjectEEE, symObjAddr: 0xBDA, symBinAddr: 0x2773A, symSize: 0x16A }
  - { offsetInCU: 0x12F2F, offset: 0x1A606D, size: 0x8, addend: 0x0, symName: __ZN3tns7Pointer25RegisterToHexStringMethodEN2v85LocalINS1_7ContextEEENS2_INS1_6ObjectEEE, symObjAddr: 0xD44, symBinAddr: 0x278A4, symSize: 0x16A }
  - { offsetInCU: 0x1351F, offset: 0x1A665D, size: 0x8, addend: 0x0, symName: __ZN3tns7Pointer29RegisterToDecimalStringMethodEN2v85LocalINS1_7ContextEEENS2_INS1_6ObjectEEE, symObjAddr: 0xEAE, symBinAddr: 0x27A0E, symSize: 0x16A }
  - { offsetInCU: 0x13B0F, offset: 0x1A6C4D, size: 0x8, addend: 0x0, symName: __ZN3tns7Pointer22RegisterToNumberMethodEN2v85LocalINS1_7ContextEEENS2_INS1_6ObjectEEE, symObjAddr: 0x1018, symBinAddr: 0x27B78, symSize: 0x16A }
  - { offsetInCU: 0x14110, offset: 0x1A724E, size: 0x8, addend: 0x0, symName: __ZN3tns7Pointer22RegisterToBigIntMethodEN2v85LocalINS1_7ContextEEENS2_INS1_6ObjectEEE, symObjAddr: 0x1182, symBinAddr: 0x27CE2, symSize: 0x16A }
  - { offsetInCU: 0x147A2, offset: 0x1A78E0, size: 0x8, addend: 0x0, symName: __ZN3tns7Pointer11NewInstanceEN2v85LocalINS1_7ContextEEEPv, symObjAddr: 0x48A, symBinAddr: 0x26FEA, symSize: 0x92 }
  - { offsetInCU: 0x14BA5, offset: 0x1A7CE3, size: 0x8, addend: 0x0, symName: __ZN3tns7Pointer26PointerConstructorCallbackERKN2v820FunctionCallbackInfoINS1_5ValueEEE, symObjAddr: 0x51C, symBinAddr: 0x2707C, symSize: 0x3EA }
  - { offsetInCU: 0x158DC, offset: 0x1A8A1A, size: 0x8, addend: 0x0, symName: __ZNK10robin_hood6detail5TableILb1ELm80EPKvNSt3__110shared_ptrIN2v810PersistentINS6_6ObjectENS6_27NonCopyablePersistentTraitsIS8_EEEEEENS_4hashIS3_vEENS4_8equal_toIS3_EEE7findIdxIS3_EEmRKT_, symObjAddr: 0x1F0E, symBinAddr: 0x2884E, symSize: 0xE0 }
  - { offsetInCU: 0x15A56, offset: 0x1A8B94, size: 0x8, addend: 0x0, symName: __ZN10robin_hood6detail5TableILb1ELm80EPKvNSt3__110shared_ptrIN2v810PersistentINS6_6ObjectENS6_27NonCopyablePersistentTraitsIS8_EEEEEENS_4hashIS3_vEENS4_8equal_toIS3_EEE7emplaceIJRPvSC_EEENS4_4pairINSH_4IterILb0EEEbEEDpOT_, symObjAddr: 0x12EC, symBinAddr: 0x27E4C, symSize: 0x114 }
  - { offsetInCU: 0x162DA, offset: 0x1A9418, size: 0x8, addend: 0x0, symName: __ZN10robin_hood6detail5TableILb1ELm80EPKvNSt3__110shared_ptrIN2v810PersistentINS6_6ObjectENS6_27NonCopyablePersistentTraitsIS8_EEEEEENS_4hashIS3_vEENS4_8equal_toIS3_EEE25insertKeyPrepareEmptySpotIRKS3_EENS4_4pairImNSH_14InsertionStateEEEOT_, symObjAddr: 0x212E, symBinAddr: 0x28A2E, symSize: 0x160 }
  - { offsetInCU: 0x16535, offset: 0x1A9673, size: 0x8, addend: 0x0, symName: __ZNK10robin_hood6detail5TableILb1ELm80EPKvNSt3__110shared_ptrIN2v810PersistentINS6_6ObjectENS6_27NonCopyablePersistentTraitsIS8_EEEEEENS_4hashIS3_vEENS4_8equal_toIS3_EEE18throwOverflowErrorEv, symObjAddr: 0x228E, symBinAddr: 0x28B8E, symSize: 0x4C }
  - { offsetInCU: 0x1685C, offset: 0x1A999A, size: 0x8, addend: 0x0, symName: __ZNSt3__120__shared_ptr_emplaceIN3tns6CachesENS_9allocatorIS2_EEED0Ev, symObjAddr: 0x14D0, symBinAddr: 0x27F60, symSize: 0x2A }
  - { offsetInCU: 0x168C4, offset: 0x1A9A02, size: 0x8, addend: 0x0, symName: __ZN3tns18PointerTypeWrapperD1Ev, symObjAddr: 0x1512, symBinAddr: 0x27F92, symSize: 0x6 }
  - { offsetInCU: 0x168EF, offset: 0x1A9A2D, size: 0x8, addend: 0x0, symName: __ZN3tns18PointerTypeWrapperD0Ev, symObjAddr: 0x1518, symBinAddr: 0x27F98, symSize: 0xA }
  - { offsetInCU: 0x1691A, offset: 0x1A9A58, size: 0x8, addend: 0x0, symName: __ZN3tns18PointerTypeWrapper4TypeEv, symObjAddr: 0x1522, symBinAddr: 0x27FA2, symSize: 0xC }
  - { offsetInCU: 0x1693F, offset: 0x1A9A7D, size: 0x8, addend: 0x0, symName: __ZN3tns14PointerWrapperD1Ev, symObjAddr: 0x152E, symBinAddr: 0x27FAE, symSize: 0x6 }
  - { offsetInCU: 0x1696A, offset: 0x1A9AA8, size: 0x8, addend: 0x0, symName: __ZN3tns14PointerWrapperD0Ev, symObjAddr: 0x1534, symBinAddr: 0x27FB4, symSize: 0xA }
  - { offsetInCU: 0x16995, offset: 0x1A9AD3, size: 0x8, addend: 0x0, symName: __ZN3tns14PointerWrapper4TypeEv, symObjAddr: 0x153E, symBinAddr: 0x27FBE, symSize: 0xC }
  - { offsetInCU: 0x16BCC, offset: 0x1A9D0A, size: 0x8, addend: 0x0, symName: '__ZZN3tns7Pointer17RegisterAddMethodEN2v85LocalINS1_7ContextEEENS2_INS1_6ObjectEEEEN3$_08__invokeERKNS1_20FunctionCallbackInfoINS1_5ValueEEE', symObjAddr: 0x154A, symBinAddr: 0x27FCA, symSize: 0x174 }
  - { offsetInCU: 0x172F5, offset: 0x1AA433, size: 0x8, addend: 0x0, symName: '__ZZN3tns7Pointer22RegisterSubtractMethodEN2v85LocalINS1_7ContextEEENS2_INS1_6ObjectEEEEN3$_18__invokeERKNS1_20FunctionCallbackInfoINS1_5ValueEEE', symObjAddr: 0x16BE, symBinAddr: 0x2813E, symSize: 0x1F8 }
  - { offsetInCU: 0x17C1F, offset: 0x1AAD5D, size: 0x8, addend: 0x0, symName: '__ZZN3tns7Pointer22RegisterToStringMethodEN2v85LocalINS1_7ContextEEENS2_INS1_6ObjectEEEEN3$_28__invokeERKNS1_20FunctionCallbackInfoINS1_5ValueEEE', symObjAddr: 0x18B6, symBinAddr: 0x28336, symSize: 0x150 }
  - { offsetInCU: 0x18206, offset: 0x1AB344, size: 0x8, addend: 0x0, symName: '__ZZN3tns7Pointer25RegisterToHexStringMethodEN2v85LocalINS1_7ContextEEENS2_INS1_6ObjectEEEEN3$_38__invokeERKNS1_20FunctionCallbackInfoINS1_5ValueEEE', symObjAddr: 0x1A06, symBinAddr: 0x28486, symSize: 0x150 }
  - { offsetInCU: 0x187F8, offset: 0x1AB936, size: 0x8, addend: 0x0, symName: '__ZZN3tns7Pointer29RegisterToDecimalStringMethodEN2v85LocalINS1_7ContextEEENS2_INS1_6ObjectEEEEN3$_48__invokeERKNS1_20FunctionCallbackInfoINS1_5ValueEEE', symObjAddr: 0x1B56, symBinAddr: 0x285D6, symSize: 0x150 }
  - { offsetInCU: 0x18E36, offset: 0x1ABF74, size: 0x8, addend: 0x0, symName: '__ZZN3tns7Pointer22RegisterToNumberMethodEN2v85LocalINS1_7ContextEEENS2_INS1_6ObjectEEEEN3$_58__invokeERKNS1_20FunctionCallbackInfoINS1_5ValueEEE', symObjAddr: 0x1CA6, symBinAddr: 0x28726, symSize: 0x9E }
  - { offsetInCU: 0x19122, offset: 0x1AC260, size: 0x8, addend: 0x0, symName: '__ZZN3tns7Pointer22RegisterToBigIntMethodEN2v85LocalINS1_7ContextEEENS2_INS1_6ObjectEEEEN3$_68__invokeERKNS1_20FunctionCallbackInfoINS1_5ValueEEE', symObjAddr: 0x1D44, symBinAddr: 0x287C4, symSize: 0x8A }
  - { offsetInCU: 0x19931, offset: 0x1ACA6F, size: 0x8, addend: 0x0, symName: __ZNSt3__120__shared_ptr_emplaceIN2v810PersistentINS1_6ObjectENS1_27NonCopyablePersistentTraitsIS3_EEEENS_9allocatorIS6_EEEC2B8ue170006IJRPNS1_7IsolateENS1_5LocalIS3_EEEEES8_DpOT_, symObjAddr: 0x204A, symBinAddr: 0x2898A, symSize: 0x52 }
  - { offsetInCU: 0x19B75, offset: 0x1ACCB3, size: 0x8, addend: 0x0, symName: __ZNSt3__120__shared_ptr_emplaceIN2v810PersistentINS1_6ObjectENS1_27NonCopyablePersistentTraitsIS3_EEEENS_9allocatorIS6_EEED1Ev, symObjAddr: 0x209C, symBinAddr: 0x289DC, symSize: 0x18 }
  - { offsetInCU: 0x19BCF, offset: 0x1ACD0D, size: 0x8, addend: 0x0, symName: __ZNSt3__120__shared_ptr_emplaceIN2v810PersistentINS1_6ObjectENS1_27NonCopyablePersistentTraitsIS3_EEEENS_9allocatorIS6_EEED0Ev, symObjAddr: 0x20B4, symBinAddr: 0x289F4, symSize: 0x2A }
  - { offsetInCU: 0x19C37, offset: 0x1ACD75, size: 0x8, addend: 0x0, symName: __ZNSt3__120__shared_ptr_emplaceIN2v810PersistentINS1_6ObjectENS1_27NonCopyablePersistentTraitsIS3_EEEENS_9allocatorIS6_EEE21__on_zero_shared_weakEv, symObjAddr: 0x20E4, symBinAddr: 0x28A24, symSize: 0xA }
  - { offsetInCU: 0x19D58, offset: 0x1ACE96, size: 0x8, addend: 0x0, symName: __ZN10robin_hood6detail5TableILb1ELm80EPKvNSt3__110shared_ptrIN2v810PersistentINS6_6ObjectENS6_27NonCopyablePersistentTraitsIS8_EEEEEENS_4hashIS3_vEENS4_8equal_toIS3_EEE13increase_sizeEv, symObjAddr: 0x22DA, symBinAddr: 0x28BDA, symSize: 0x108 }
  - { offsetInCU: 0x19E13, offset: 0x1ACF51, size: 0x8, addend: 0x0, symName: __ZN10robin_hood6detail5TableILb1ELm80EPKvNSt3__110shared_ptrIN2v810PersistentINS6_6ObjectENS6_27NonCopyablePersistentTraitsIS8_EEEEEENS_4hashIS3_vEENS4_8equal_toIS3_EEE7shiftUpEmm, symObjAddr: 0x23E2, symBinAddr: 0x28CE2, symSize: 0xCE }
  - { offsetInCU: 0x19F25, offset: 0x1AD063, size: 0x8, addend: 0x0, symName: __ZNSt14overflow_errorC1B8ue170006EPKc, symObjAddr: 0x2930, symBinAddr: 0x291C0, symSize: 0x23 }
  - { offsetInCU: 0x19FBE, offset: 0x1AD0FC, size: 0x8, addend: 0x0, symName: __ZN10robin_hood6detail5TableILb1ELm80EPKvNSt3__110shared_ptrIN2v810PersistentINS6_6ObjectENS6_27NonCopyablePersistentTraitsIS8_EEEEEENS_4hashIS3_vEENS4_8equal_toIS3_EEE17try_increase_infoEv, symObjAddr: 0x2596, symBinAddr: 0x28E96, symSize: 0xE8 }
  - { offsetInCU: 0x1A0AD, offset: 0x1AD1EB, size: 0x8, addend: 0x0, symName: __ZN10robin_hood6detail5TableILb1ELm80EPKvNSt3__110shared_ptrIN2v810PersistentINS6_6ObjectENS6_27NonCopyablePersistentTraitsIS8_EEEEEENS_4hashIS3_vEENS4_8equal_toIS3_EEE8initDataEm, symObjAddr: 0x24B0, symBinAddr: 0x28DB0, symSize: 0xE6 }
  - { offsetInCU: 0x1A185, offset: 0x1AD2C3, size: 0x8, addend: 0x0, symName: __ZN10robin_hood6detail5TableILb1ELm80EPKvNSt3__110shared_ptrIN2v810PersistentINS6_6ObjectENS6_27NonCopyablePersistentTraitsIS8_EEEEEENS_4hashIS3_vEENS4_8equal_toIS3_EEE17try_increase_infoEv, symObjAddr: 0x2596, symBinAddr: 0x28E96, symSize: 0xE8 }
  - { offsetInCU: 0x1A18F, offset: 0x1AD2CD, size: 0x8, addend: 0x0, symName: __ZN10robin_hood6detail5TableILb1ELm80EPKvNSt3__110shared_ptrIN2v810PersistentINS6_6ObjectENS6_27NonCopyablePersistentTraitsIS8_EEEEEENS_4hashIS3_vEENS4_8equal_toIS3_EEE16rehashPowerOfTwoEmb, symObjAddr: 0x267E, symBinAddr: 0x28F7E, symSize: 0xFB }
  - { offsetInCU: 0x1A3F2, offset: 0x1AD530, size: 0x8, addend: 0x0, symName: __ZN10robin_hood6detail5TableILb1ELm80EPKvNSt3__110shared_ptrIN2v810PersistentINS6_6ObjectENS6_27NonCopyablePersistentTraitsIS8_EEEEEENS_4hashIS3_vEENS4_8equal_toIS3_EEE11insert_moveEONSH_8DataNodeISH_Lb1EEE, symObjAddr: 0x27AA, symBinAddr: 0x2907A, symSize: 0x13C }
  - { offsetInCU: 0x21BD, offset: 0x1AFA0A, size: 0x8, addend: 0x0, symName: __ZN3tns10ToNSStringEPN2v87IsolateERKNS0_5LocalINS0_5ValueEEE, symObjAddr: 0x2AB8, symBinAddr: 0x2BA78, symSize: 0xC6 }
  - { offsetInCU: 0xCF45, offset: 0x1BA792, size: 0x8, addend: 0x0, symName: __ZNSt3__124__put_character_sequenceB8ue170006IcNS_11char_traitsIcEEEERNS_13basic_ostreamIT_T0_EES7_PKS4_m, symObjAddr: 0x7B7C, symBinAddr: 0x2F07C, symSize: 0x150 }
  - { offsetInCU: 0xF0F7, offset: 0x1BC944, size: 0x8, addend: 0x0, symName: __ZNSt3__119__allocate_at_leastB8ue170006INS_9allocatorIPKN3tns10MethodMetaEEEEENS_19__allocation_resultINS_16allocator_traitsIT_E7pointerEEERS9_m, symObjAddr: 0x87EC, symBinAddr: 0x2F84C, symSize: 0x2E }
  - { offsetInCU: 0xF194, offset: 0x1BC9E1, size: 0x8, addend: 0x0, symName: __ZNSt3__16vectorIN2v85LocalINS1_5ValueEEENS_9allocatorIS4_EEE18__assign_with_sizeB8ue170006IPS4_S9_EEvT_T0_l, symObjAddr: 0x881A, symBinAddr: 0x2F87A, symSize: 0x108 }
  - { offsetInCU: 0xF588, offset: 0x1BCDD5, size: 0x8, addend: 0x0, symName: __ZNK10robin_hood6detail5TableILb1ELm80EP11objc_objectNSt3__110shared_ptrIN2v810PersistentINS6_5ValueENS6_27NonCopyablePersistentTraitsIS8_EEEEEENS_4hashIS3_vEENS4_8equal_toIS3_EEE7findIdxIS3_EEmRKT_, symObjAddr: 0x7F74, symBinAddr: 0x2F354, symSize: 0xE0 }
  - { offsetInCU: 0xFEB4, offset: 0x1BD701, size: 0x8, addend: 0x0, symName: __ZNSt3__115allocate_sharedB8ue170006IN2v810PersistentINS1_5ValueENS1_27NonCopyablePersistentTraitsIS3_EEEENS_9allocatorIS6_EEJRPNS1_7IsolateERNS1_5LocalINS1_6ObjectEEEEvEENS_10shared_ptrIT_EERKT0_DpOT1_, symObjAddr: 0x9838, symBinAddr: 0x30808, symSize: 0x5C }
  - { offsetInCU: 0x10A2A, offset: 0x1BE277, size: 0x8, addend: 0x0, symName: __ZNSt3__116__pad_and_outputB8ue170006IcNS_11char_traitsIcEEEENS_19ostreambuf_iteratorIT_T0_EES6_PKS4_S8_S8_RNS_8ios_baseES4_, symObjAddr: 0x7CCC, symBinAddr: 0x2F1CC, symSize: 0x10C }
  - { offsetInCU: 0x11CF0, offset: 0x1BF53D, size: 0x8, addend: 0x0, symName: __ZNK3tns10MethodMeta8selectorEv, symObjAddr: 0x60F0, symBinAddr: 0x2E800, symSize: 0x208 }
  - { offsetInCU: 0x11D15, offset: 0x1BF562, size: 0x8, addend: 0x0, symName: __ZZNK3tns10MethodMeta8selectorEvE23methodMetaSelectorCache, symObjAddr: 0xB4E0, symBinAddr: 0xE38148, symSize: 0x0 }
  - { offsetInCU: 0x11D2B, offset: 0x1BF578, size: 0x8, addend: 0x0, symName: __ZZNK3tns10MethodMeta8selectorEvE1p, symObjAddr: 0xB520, symBinAddr: 0xE38188, symSize: 0x0 }
  - { offsetInCU: 0x1D5AB, offset: 0x1CADF8, size: 0x8, addend: 0x0, symName: __ZN3tns12ArgConverter4InitEN2v85LocalINS1_7ContextEEEPFvNS2_INS1_4NameEEERKNS1_20PropertyCallbackInfoINS1_5ValueEEEEPFvS6_NS2_IS8_EESB_E, symObjAddr: 0x0, symBinAddr: 0x291F0, symSize: 0x168 }
  - { offsetInCU: 0x1DAD9, offset: 0x1CB326, size: 0x8, addend: 0x0, symName: __ZN3tns12ArgConverter27CreateEmptyInstanceFunctionEN2v85LocalINS1_7ContextEEEPFvNS2_INS1_4NameEEERKNS1_20PropertyCallbackInfoINS1_5ValueEEEEPFvS6_NS2_IS8_EESB_E, symObjAddr: 0x168, symBinAddr: 0x29358, symSize: 0x148 }
  - { offsetInCU: 0x1EA07, offset: 0x1CC254, size: 0x8, addend: 0x0, symName: __ZN3tns12ArgConverter6InvokeEN2v85LocalINS1_7ContextEEEP10objc_classNS2_INS1_6ObjectEEERNS_6V8ArgsEPKNS_10MethodMetaEb, symObjAddr: 0x2B0, symBinAddr: 0x294A0, symSize: 0x6F2 }
  - { offsetInCU: 0x21039, offset: 0x1CE886, size: 0x8, addend: 0x0, symName: __ZN3tns12ArgConverter19FindMethodOverloadsEP10objc_classNSt3__112basic_stringIcNS3_11char_traitsIcEENS3_9allocatorIcEEEENS_10MemberTypeERNS3_6vectorIPKNS_10MethodMetaENS7_ISE_EEEE, symObjAddr: 0x9A2, symBinAddr: 0x29B92, symSize: 0x2C6 }
  - { offsetInCU: 0x21F94, offset: 0x1CF7E1, size: 0x8, addend: 0x0, symName: __ZN3tns14ObjCMethodCallC2EN2v85LocalINS1_7ContextEEEPKNS_10MethodMetaEP11objc_objectP10objc_classRNS_6V8ArgsEb, symObjAddr: 0x5F5A, symBinAddr: 0x2E66A, symSize: 0x196 }
  - { offsetInCU: 0x2260E, offset: 0x1CFE5B, size: 0x8, addend: 0x0, symName: __ZNK10robin_hood6detail5TableILb1ELm80ENSt3__112basic_stringIcNS2_11char_traitsIcEENS2_9allocatorIcEEEENS2_10unique_ptrIN2v810PersistentINSA_6ObjectENSA_27NonCopyablePersistentTraitsISC_EEEENS2_14default_deleteISF_EEEENS_4hashIS8_vEENS2_8equal_toIS8_EEE7findIdxIS8_EEmRKT_, symObjAddr: 0x78EA, symBinAddr: 0x2EE6A, symSize: 0xEA }
  - { offsetInCU: 0x22731, offset: 0x1CFF7E, size: 0x8, addend: 0x0, symName: __ZNSt3__119basic_ostringstreamIcNS_11char_traitsIcEENS_9allocatorIcEEEC1B8ue170006Ev, symObjAddr: 0xC68, symBinAddr: 0x29E58, symSize: 0xC4 }
  - { offsetInCU: 0x227E9, offset: 0x1D0036, size: 0x8, addend: 0x0, symName: __ZNKSt3__115basic_stringbufIcNS_11char_traitsIcEENS_9allocatorIcEEE3strEv, symObjAddr: 0x7E50, symBinAddr: 0x2F2E0, symSize: 0x6A }
  - { offsetInCU: 0x22A92, offset: 0x1D02DF, size: 0x8, addend: 0x0, symName: __ZNSt3__119basic_ostringstreamIcNS_11char_traitsIcEENS_9allocatorIcEEED1Ev, symObjAddr: 0xD2C, symBinAddr: 0x29F1C, symSize: 0x76 }
  - { offsetInCU: 0x23275, offset: 0x1D0AC2, size: 0x8, addend: 0x0, symName: __ZN3tns12ArgConverter8FindMetaEP10objc_classPKNS_12TypeEncodingE, symObjAddr: 0x314E, symBinAddr: 0x2BFEE, symSize: 0x29A }
  - { offsetInCU: 0x241EB, offset: 0x1D1A38, size: 0x8, addend: 0x0, symName: __ZNK3tns13InterfaceMeta8baseNameEv, symObjAddr: 0x56B0, symBinAddr: 0x2E330, symSize: 0x66 }
  - { offsetInCU: 0x2449D, offset: 0x1D1CEA, size: 0x8, addend: 0x0, symName: __ZNSt3__16__treeIPKN3tns10MemberMetaENS_4lessIS4_EENS_9allocatorIS4_EEE7destroyEPNS_11__tree_nodeIS4_PvEE, symObjAddr: 0x9938, symBinAddr: 0x308B8, symSize: 0x34 }
  - { offsetInCU: 0x245E2, offset: 0x1D1E2F, size: 0x8, addend: 0x0, symName: __ZNKSt3__16vectorIPKN3tns10MethodMetaENS_9allocatorIS4_EEE20__throw_length_errorB8ue170006Ev, symObjAddr: 0x87DC, symBinAddr: 0x2F83C, symSize: 0x10 }
  - { offsetInCU: 0x2460B, offset: 0x1D1E58, size: 0x8, addend: 0x0, symName: __ZNSt3__119__allocate_at_leastB8ue170006INS_9allocatorIPKN3tns10MethodMetaEEEEENS_19__allocation_resultINS_16allocator_traitsIT_E7pointerEEERS9_m, symObjAddr: 0x87EC, symBinAddr: 0x2F84C, symSize: 0x2E }
  - { offsetInCU: 0x2475C, offset: 0x1D1FA9, size: 0x8, addend: 0x0, symName: __ZN3tns12ArgConverter15ConvertArgumentEN2v85LocalINS1_7ContextEEEPNS_15BaseDataWrapperEbRKNSt3__16vectorINS7_12basic_stringIcNS7_11char_traitsIcEENS7_9allocatorIcEEEENSC_ISE_EEEE, symObjAddr: 0xDA2, symBinAddr: 0x29F92, symSize: 0x4C }
  - { offsetInCU: 0x247F3, offset: 0x1D2040, size: 0x8, addend: 0x0, symName: __ZN3tns12ArgConverter15CreateJsWrapperEN2v85LocalINS1_7ContextEEEPNS_15BaseDataWrapperENS2_INS1_6ObjectEEEbRKNSt3__16vectorINS9_12basic_stringIcNS9_11char_traitsIcEENS9_9allocatorIcEEEENSE_ISG_EEEE, symObjAddr: 0xDEE, symBinAddr: 0x29FDE, symSize: 0xC40 }
  - { offsetInCU: 0x280B9, offset: 0x1D5906, size: 0x8, addend: 0x0, symName: __ZN3tns12ArgConverter17CreateEmptyObjectEN2v85LocalINS1_7ContextEEEb, symObjAddr: 0x4960, symBinAddr: 0x2D660, symSize: 0x10A }
  - { offsetInCU: 0x28602, offset: 0x1D5E4F, size: 0x8, addend: 0x0, symName: __ZN3tns12ArgConverter17CreateEmptyStructEN2v85LocalINS1_7ContextEEE, symObjAddr: 0x4816, symBinAddr: 0x2D556, symSize: 0x107 }
  - { offsetInCU: 0x28CAD, offset: 0x1D64FA, size: 0x8, addend: 0x0, symName: __ZNSt3__16vectorIN3tns11StructFieldENS_9allocatorIS2_EEE16__destroy_vectorclB8ue170006Ev, symObjAddr: 0x6F2C, symBinAddr: 0x2EC8C, symSize: 0x32 }
  - { offsetInCU: 0x28E3F, offset: 0x1D668C, size: 0x8, addend: 0x0, symName: __ZNK10robin_hood6detail5TableILb1ELm80EPKN3tns4MetaENSt3__110unique_ptrIN2v810PersistentINS8_5ValueENS8_27NonCopyablePersistentTraitsISA_EEEENS6_14default_deleteISD_EEEENS_4hashIS5_vEENS6_8equal_toIS5_EEE7findIdxIS5_EEmRKT_, symObjAddr: 0x89B4, symBinAddr: 0x2F9E4, symSize: 0xD0 }
  - { offsetInCU: 0x2905E, offset: 0x1D68AB, size: 0x8, addend: 0x0, symName: __ZNK10robin_hood6detail5TableILb1ELm80EP11objc_objectNSt3__110shared_ptrIN2v810PersistentINS6_5ValueENS6_27NonCopyablePersistentTraitsIS8_EEEEEENS_4hashIS3_vEENS4_8equal_toIS3_EEE7findIdxIS3_EEmRKT_, symObjAddr: 0x7F74, symBinAddr: 0x2F354, symSize: 0xE0 }
  - { offsetInCU: 0x291DE, offset: 0x1D6A2B, size: 0x8, addend: 0x0, symName: __ZN10robin_hood6detail5TableILb1ELm80EP11objc_objectNSt3__110shared_ptrIN2v810PersistentINS6_5ValueENS6_27NonCopyablePersistentTraitsIS8_EEEEEENS_4hashIS3_vEENS4_8equal_toIS3_EEE7emplaceIJRS3_RSC_EEENS4_4pairINSH_4IterILb0EEEbEEDpOT_, symObjAddr: 0x3C76, symBinAddr: 0x2CB16, symSize: 0x11E }
  - { offsetInCU: 0x2A0F8, offset: 0x1D7945, size: 0x8, addend: 0x0, symName: __ZN3tns12ArgConverter14MethodCallbackEP7ffi_cifPvPS3_S3_, symObjAddr: 0x1A2E, symBinAddr: 0x2AC1E, symSize: 0x8DE }
  - { offsetInCU: 0x2BFDE, offset: 0x1D982B, size: 0x8, addend: 0x0, symName: __ZN3tns12ArgConverter19IsErrorOutParameterEPKNS_12TypeEncodingE, symObjAddr: 0x2498, symBinAddr: 0x2B508, symSize: 0x81 }
  - { offsetInCU: 0x2C29C, offset: 0x1D9AE9, size: 0x8, addend: 0x0, symName: __ZN3tns12ArgConverter8SetValueEN2v85LocalINS1_7ContextEEEPvNS2_INS1_5ValueEEEPKNS_12TypeEncodingE, symObjAddr: 0x25CE, symBinAddr: 0x2B58E, symSize: 0x4EA }
  - { offsetInCU: 0x2D8DB, offset: 0x1DB128, size: 0x8, addend: 0x0, symName: __ZN3tns12ArgConverter7GetMetaENSt3__112basic_stringIcNS1_11char_traitsIcEENS1_9allocatorIcEEEE, symObjAddr: 0x2BE2, symBinAddr: 0x2BB42, symSize: 0x126 }
  - { offsetInCU: 0x2E073, offset: 0x1DB8C0, size: 0x8, addend: 0x0, symName: __ZNK10robin_hood6detail5TableILb1ELm80ENSt3__112basic_stringIcNS2_11char_traitsIcEENS2_9allocatorIcEEEEPKN3tns4MetaENS_4hashIS8_vEENS2_8equal_toIS8_EEE7findIdxIS8_EEmRKT_, symObjAddr: 0x9370, symBinAddr: 0x303A0, symSize: 0xEA }
  - { offsetInCU: 0x2E196, offset: 0x1DB9E3, size: 0x8, addend: 0x0, symName: __ZNK3tns11GlobalTableILNS_15GlobalTableTypeE0EE8findMetaEPKcb, symObjAddr: 0x4AAC, symBinAddr: 0x2D76C, symSize: 0x42 }
  - { offsetInCU: 0x2E226, offset: 0x1DBA73, size: 0x8, addend: 0x0, symName: __ZNK3tns11GlobalTableILNS_15GlobalTableTypeE1EE8findMetaEPKcb, symObjAddr: 0x4AEE, symBinAddr: 0x2D7AE, symSize: 0x42 }
  - { offsetInCU: 0x2E2BC, offset: 0x1DBB09, size: 0x8, addend: 0x0, symName: __ZN10robin_hood6detail5TableILb1ELm80ENSt3__112basic_stringIcNS2_11char_traitsIcEENS2_9allocatorIcEEEEPKN3tns4MetaENS_4hashIS8_vEENS2_8equal_toIS8_EEEixISC_EENS2_9enable_ifIXntsr3std7is_voidIT_EE5valueERSK_E4typeERKS8_, symObjAddr: 0x8A84, symBinAddr: 0x2FAB4, symSize: 0x114 }
  - { offsetInCU: 0x2E9E7, offset: 0x1DC234, size: 0x8, addend: 0x0, symName: __ZN3tns12ArgConverter15ConstructObjectEN2v85LocalINS1_7ContextEEERKNS1_20FunctionCallbackInfoINS1_5ValueEEEP10objc_classPKNS_13InterfaceMetaE, symObjAddr: 0x2DCE, symBinAddr: 0x2BC6E, symSize: 0x380 }
  - { offsetInCU: 0x2F603, offset: 0x1DCE50, size: 0x8, addend: 0x0, symName: __ZN3tns12ArgConverter15FindInitializerEN2v85LocalINS1_7ContextEEEP10objc_classPKNS_13InterfaceMetaERKNS1_20FunctionCallbackInfoINS1_5ValueEEERNSt3__16vectorINS2_ISB_EENSF_9allocatorISH_EEEE, symObjAddr: 0x33E8, symBinAddr: 0x2C288, symSize: 0x88E }
  - { offsetInCU: 0x323AF, offset: 0x1DFBFC, size: 0x8, addend: 0x0, symName: __ZN3tns12ArgConverter15GetInitializersEPNS_6CachesEP10objc_classPKNS_13InterfaceMetaE, symObjAddr: 0x416C, symBinAddr: 0x2D00C, symSize: 0xF6 }
  - { offsetInCU: 0x327CB, offset: 0x1E0018, size: 0x8, addend: 0x0, symName: __ZN3tns12ArgConverter9CanInvokeEN2v85LocalINS1_7ContextEEEPKNS_10MethodMetaERKNS1_20FunctionCallbackInfoINS1_5ValueEEE, symObjAddr: 0x4262, symBinAddr: 0x2D102, symSize: 0x13E }
  - { offsetInCU: 0x32DF7, offset: 0x1E0644, size: 0x8, addend: 0x0, symName: __ZNK3tns13InterfaceMeta8baseMetaEv, symObjAddr: 0x43A0, symBinAddr: 0x2D240, symSize: 0x3A }
  - { offsetInCU: 0x32E5F, offset: 0x1E06AC, size: 0x8, addend: 0x0, symName: __ZNSt3__16vectorIN2v85LocalINS1_5ValueEEENS_9allocatorIS4_EEE18__assign_with_sizeB8ue170006IPS4_S9_EEvT_T0_l, symObjAddr: 0x881A, symBinAddr: 0x2F87A, symSize: 0x108 }
  - { offsetInCU: 0x334F4, offset: 0x1E0D41, size: 0x8, addend: 0x0, symName: __ZN3tns12ArgConverter18GetInitializerArgsEN2v85LocalINS1_6ObjectEEERNSt3__112basic_stringIcNS5_11char_traitsIcEENS5_9allocatorIcEEEE, symObjAddr: 0x3D94, symBinAddr: 0x2CC34, symSize: 0x3D8 }
  - { offsetInCU: 0x35241, offset: 0x1E2A8E, size: 0x8, addend: 0x0, symName: __ZNK10robin_hood6detail5TableILb1ELm80EPKN3tns13InterfaceMetaENSt3__16vectorIPKNS2_10MethodMetaENS6_9allocatorISA_EEEENS_4hashIS5_vEENS6_8equal_toIS5_EEE7findIdxIS5_EEmRKT_, symObjAddr: 0x996C, symBinAddr: 0x308EC, symSize: 0xD0 }
  - { offsetInCU: 0x353BD, offset: 0x1E2C0A, size: 0x8, addend: 0x0, symName: __ZNSt3__16vectorIPKN3tns10MethodMetaENS_9allocatorIS4_EEE16__init_with_sizeB8ue170006IPS4_S9_EEvT_T0_m, symObjAddr: 0x9A3C, symBinAddr: 0x309BC, symSize: 0x64 }
  - { offsetInCU: 0x357E0, offset: 0x1E302D, size: 0x8, addend: 0x0, symName: __ZNK3tns13BaseClassMeta25initializersWithProtocolsENS_21KnownUnknownClassPairERKNSt3__16vectorIPKNS_12ProtocolMetaENS2_9allocatorIS6_EEEE, symObjAddr: 0x5716, symBinAddr: 0x2E396, symSize: 0x66 }
  - { offsetInCU: 0x35B2C, offset: 0x1E3379, size: 0x8, addend: 0x0, symName: __ZN10robin_hood6detail5TableILb1ELm80EPKN3tns13InterfaceMetaENSt3__16vectorIPKNS2_10MethodMetaENS6_9allocatorISA_EEEENS_4hashIS5_vEENS6_8equal_toIS5_EEE7emplaceIJRS5_RSD_EEENS6_4pairINSI_4IterILb0EEEbEEDpOT_, symObjAddr: 0x577C, symBinAddr: 0x2E3FC, symSize: 0x172 }
  - { offsetInCU: 0x36374, offset: 0x1E3BC1, size: 0x8, addend: 0x0, symName: __ZN3tns12ArgConverter9CanInvokeEN2v85LocalINS1_7ContextEEEPKNS_12TypeEncodingENS2_INS1_5ValueEEE, symObjAddr: 0x4548, symBinAddr: 0x2D288, symSize: 0x2CE }
  - { offsetInCU: 0x36BE9, offset: 0x1E4436, size: 0x8, addend: 0x0, symName: __ZNK3tns11GlobalTableILNS_15GlobalTableTypeE0EE17findInterfaceMetaEPKc, symObjAddr: 0x6FCC, symBinAddr: 0x2ECEC, symSize: 0x3E }
  - { offsetInCU: 0x36D06, offset: 0x1E4553, size: 0x8, addend: 0x0, symName: __ZN3tns12ArgConverter19CreateEmptyInstanceEN2v85LocalINS1_7ContextEEEPNS1_10PersistentINS1_8FunctionENS1_27NonCopyablePersistentTraitsIS6_EEEEb, symObjAddr: 0x4F0C, symBinAddr: 0x2DBCC, symSize: 0x13E }
  - { offsetInCU: 0x3762D, offset: 0x1E4E7A, size: 0x8, addend: 0x0, symName: __ZNK3tns11GlobalTableILNS_15GlobalTableTypeE1EE8findMetaEPKcmjb, symObjAddr: 0x945A, symBinAddr: 0x3048A, symSize: 0x15A }
  - { offsetInCU: 0x37DC3, offset: 0x1E5610, size: 0x8, addend: 0x0, symName: __ZN3tns12ArgConverter16FindProtocolMetaEP8Protocol, symObjAddr: 0x4B30, symBinAddr: 0x2D7F0, symSize: 0x3DC }
  - { offsetInCU: 0x39745, offset: 0x1E6F92, size: 0x8, addend: 0x0, symName: __ZNSt3__115allocate_sharedB8ue170006IN2v810PersistentINS1_5ValueENS1_27NonCopyablePersistentTraitsIS3_EEEENS_9allocatorIS6_EEJRPNS1_7IsolateERNS1_5LocalINS1_6ObjectEEEEvEENS_10shared_ptrIT_EERKT0_DpOT1_, symObjAddr: 0x9838, symBinAddr: 0x30808, symSize: 0x5C }
  - { offsetInCU: 0x399F6, offset: 0x1E7243, size: 0x8, addend: 0x0, symName: __ZN3tns12ArgConverter29IndexedPropertyGetterCallbackEjRKN2v820PropertyCallbackInfoINS1_5ValueEEE, symObjAddr: 0x5094, symBinAddr: 0x2DD14, symSize: 0x572 }
  - { offsetInCU: 0x3AAB6, offset: 0x1E8303, size: 0x8, addend: 0x0, symName: __ZN3tns12ArgConverter29IndexedPropertySetterCallbackEjN2v85LocalINS1_5ValueEEERKNS1_20PropertyCallbackInfoIS3_EE, symObjAddr: 0x5606, symBinAddr: 0x2E286, symSize: 0xAA }
  - { offsetInCU: 0x3B064, offset: 0x1E88B1, size: 0x8, addend: 0x0, symName: __ZN10robin_hood6detail5TableILb1ELm80EPKN3tns13InterfaceMetaENSt3__16vectorIPKNS2_10MethodMetaENS6_9allocatorISA_EEEENS_4hashIS5_vEENS6_8equal_toIS5_EEE25insertKeyPrepareEmptySpotIRKS5_EENS6_4pairImNSI_14InsertionStateEEEOT_, symObjAddr: 0x9ADA, symBinAddr: 0x30A5A, symSize: 0x160 }
  - { offsetInCU: 0x3B1FE, offset: 0x1E8A4B, size: 0x8, addend: 0x0, symName: __ZNK10robin_hood6detail5TableILb1ELm80EPKN3tns13InterfaceMetaENSt3__16vectorIPKNS2_10MethodMetaENS6_9allocatorISA_EEEENS_4hashIS5_vEENS6_8equal_toIS5_EEE18throwOverflowErrorEv, symObjAddr: 0x9C3A, symBinAddr: 0x30BBA, symSize: 0x4C }
  - { offsetInCU: 0x3B523, offset: 0x1E8D70, size: 0x8, addend: 0x0, symName: __ZTv0_n24_NSt3__119basic_ostringstreamIcNS_11char_traitsIcEENS_9allocatorIcEEED0Ev, symObjAddr: 0x5B40, symBinAddr: 0x2E570, symSize: 0x8E }
  - { offsetInCU: 0x3B7C5, offset: 0x1E9012, size: 0x8, addend: 0x0, symName: __ZNSt3__115basic_stringbufIcNS_11char_traitsIcEENS_9allocatorIcEEE9pbackfailEi, symObjAddr: 0x5DB0, symBinAddr: 0x2E600, symSize: 0x5C }
  - { offsetInCU: 0x3BCD2, offset: 0x1E951F, size: 0x8, addend: 0x0, symName: __ZN10robin_hood6detail5TableILb1ELm80EPKN3tns10MethodMetaEP13objc_selectorNS_4hashIS5_vEENSt3__18equal_toIS5_EEE7emplaceIJS5_RS7_EEENSA_4pairINSD_4IterILb0EEEbEEDpOT_, symObjAddr: 0x6320, symBinAddr: 0x2EA10, symSize: 0x92 }
  - { offsetInCU: 0x3C5DB, offset: 0x1E9E28, size: 0x8, addend: 0x0, symName: __ZN10robin_hood6detail5TableILb1ELm80EPKN3tns10MethodMetaEP13objc_selectorNS_4hashIS5_vEENSt3__18equal_toIS5_EEE11insert_moveEONSD_8DataNodeISD_Lb1EEE, symObjAddr: 0x6AB8, symBinAddr: 0x2EAA8, symSize: 0x10A }
  - { offsetInCU: 0x3C775, offset: 0x1E9FC2, size: 0x8, addend: 0x0, symName: __ZN3tns15ObjCDataWrapperD0Ev, symObjAddr: 0x6BEC, symBinAddr: 0x2EBBC, symSize: 0xA }
  - { offsetInCU: 0x3CB36, offset: 0x1EA383, size: 0x8, addend: 0x0, symName: __ZNSt3__16vectorIN3tns11StructFieldENS_9allocatorIS2_EEE11__vallocateB8ue170006Em, symObjAddr: 0x6D6C, symBinAddr: 0x2EBCC, symSize: 0x46 }
  - { offsetInCU: 0x3CCBF, offset: 0x1EA50C, size: 0x8, addend: 0x0, symName: __ZNSt3__19allocatorIN3tns11StructFieldEE9constructB8ue170006IS2_JRS2_EEEvPT_DpOT0_, symObjAddr: 0x6E8C, symBinAddr: 0x2EC1C, symSize: 0x4C }
  - { offsetInCU: 0x3CDD8, offset: 0x1EA625, size: 0x8, addend: 0x0, symName: __ZNSt3__128__exception_guard_exceptionsINS_29_AllocatorDestroyRangeReverseINS_9allocatorIN3tns11StructFieldEEEPS4_EEED2B8ue170006Ev, symObjAddr: 0x6ED8, symBinAddr: 0x2EC68, symSize: 0x1A }
  - { offsetInCU: 0x3D20F, offset: 0x1EAA5C, size: 0x8, addend: 0x0, symName: __ZNK3tns12V8VectorArgsixEi, symObjAddr: 0x6FA2, symBinAddr: 0x2ECC2, symSize: 0x14 }
  - { offsetInCU: 0x3D264, offset: 0x1EAAB1, size: 0x8, addend: 0x0, symName: __ZNK3tns12V8VectorArgs6LengthEv, symObjAddr: 0x6FB6, symBinAddr: 0x2ECD6, symSize: 0x16 }
  - { offsetInCU: 0x3D9AE, offset: 0x1EB1FB, size: 0x8, addend: 0x0, symName: __ZThn16_NSt3__118basic_stringstreamIcNS_11char_traitsIcEENS_9allocatorIcEEED1Ev, symObjAddr: 0x7430, symBinAddr: 0x2ED30, symSize: 0x80 }
  - { offsetInCU: 0x3DB3F, offset: 0x1EB38C, size: 0x8, addend: 0x0, symName: __ZTv0_n24_NSt3__118basic_stringstreamIcNS_11char_traitsIcEENS_9allocatorIcEEED1Ev, symObjAddr: 0x74B0, symBinAddr: 0x2EDB0, symSize: 0x8E }
  - { offsetInCU: 0x3DCDC, offset: 0x1EB529, size: 0x8, addend: 0x0, symName: __ZN3tns16ObjCClassWrapperD1Ev, symObjAddr: 0x76E8, symBinAddr: 0x2EE48, symSize: 0x6 }
  - { offsetInCU: 0x3DD08, offset: 0x1EB555, size: 0x8, addend: 0x0, symName: __ZN3tns16ObjCClassWrapper4TypeEv, symObjAddr: 0x76F8, symBinAddr: 0x2EE58, symSize: 0xC }
  - { offsetInCU: 0x3DF65, offset: 0x1EB7B2, size: 0x8, addend: 0x0, symName: __ZNK10robin_hood4hashINSt3__112basic_stringIcNS1_11char_traitsIcEENS1_9allocatorIcEEEEvEclERKS7_, symObjAddr: 0x7A60, symBinAddr: 0x2EF60, symSize: 0x11C }
  - { offsetInCU: 0x3E512, offset: 0x1EBD5F, size: 0x8, addend: 0x0, symName: __ZNKSt3__115basic_stringbufIcNS_11char_traitsIcEENS_9allocatorIcEEE3strEv, symObjAddr: 0x7E50, symBinAddr: 0x2F2E0, symSize: 0x6A }
  - { offsetInCU: 0x3E932, offset: 0x1EC17F, size: 0x8, addend: 0x0, symName: __ZN10robin_hood6detail5TableILb1ELm80EP11objc_objectNSt3__110shared_ptrIN2v810PersistentINS6_5ValueENS6_27NonCopyablePersistentTraitsIS8_EEEEEENS_4hashIS3_vEENS4_8equal_toIS3_EEE13increase_sizeEv, symObjAddr: 0x8200, symBinAddr: 0x2F440, symSize: 0x108 }
  - { offsetInCU: 0x3E9ED, offset: 0x1EC23A, size: 0x8, addend: 0x0, symName: __ZN10robin_hood6detail5TableILb1ELm80EP11objc_objectNSt3__110shared_ptrIN2v810PersistentINS6_5ValueENS6_27NonCopyablePersistentTraitsIS8_EEEEEENS_4hashIS3_vEENS4_8equal_toIS3_EEE7shiftUpEmm, symObjAddr: 0x8308, symBinAddr: 0x2F548, symSize: 0xCE }
  - { offsetInCU: 0x3EBC2, offset: 0x1EC40F, size: 0x8, addend: 0x0, symName: __ZN10robin_hood6detail5TableILb1ELm80EP11objc_objectNSt3__110shared_ptrIN2v810PersistentINS6_5ValueENS6_27NonCopyablePersistentTraitsIS8_EEEEEENS_4hashIS3_vEENS4_8equal_toIS3_EEE8initDataEm, symObjAddr: 0x83D6, symBinAddr: 0x2F616, symSize: 0xE6 }
  - { offsetInCU: 0x3EE3D, offset: 0x1EC68A, size: 0x8, addend: 0x0, symName: __ZN10robin_hood6detail5TableILb1ELm80EP11objc_objectNSt3__110shared_ptrIN2v810PersistentINS6_5ValueENS6_27NonCopyablePersistentTraitsIS8_EEEEEENS_4hashIS3_vEENS4_8equal_toIS3_EEE11insert_moveEONSH_8DataNodeISH_Lb1EEE, symObjAddr: 0x86A0, symBinAddr: 0x2F700, symSize: 0x13C }
  - { offsetInCU: 0x3F232, offset: 0x1ECA7F, size: 0x8, addend: 0x0, symName: __ZNSt3__16vectorIN2v85LocalINS1_5ValueEEENS_9allocatorIS4_EEE11__vallocateB8ue170006Em, symObjAddr: 0x8922, symBinAddr: 0x2F982, symSize: 0x39 }
  - { offsetInCU: 0x3F33E, offset: 0x1ECB8B, size: 0x8, addend: 0x0, symName: __ZNSt3__117bad_function_callD0Ev, symObjAddr: 0x8998, symBinAddr: 0x2F9C8, symSize: 0x1C }
  - { offsetInCU: 0x3F759, offset: 0x1ECFA6, size: 0x8, addend: 0x0, symName: __ZN10robin_hood6detail5TableILb1ELm80ENSt3__112basic_stringIcNS2_11char_traitsIcEENS2_9allocatorIcEEEEPKN3tns4MetaENS_4hashIS8_vEENS2_8equal_toIS8_EEE25insertKeyPrepareEmptySpotIRKS8_EENS2_4pairImNSH_14InsertionStateEEEOT_, symObjAddr: 0x8B98, symBinAddr: 0x2FBC8, symSize: 0x15C }
  - { offsetInCU: 0x3F8A1, offset: 0x1ED0EE, size: 0x8, addend: 0x0, symName: __ZNK10robin_hood6detail5TableILb1ELm80ENSt3__112basic_stringIcNS2_11char_traitsIcEENS2_9allocatorIcEEEEPKN3tns4MetaENS_4hashIS8_vEENS2_8equal_toIS8_EEE18throwOverflowErrorEv, symObjAddr: 0x8CF4, symBinAddr: 0x2FD24, symSize: 0x4C }
  - { offsetInCU: 0x3F986, offset: 0x1ED1D3, size: 0x8, addend: 0x0, symName: __ZN10robin_hood6detail5TableILb1ELm80ENSt3__112basic_stringIcNS2_11char_traitsIcEENS2_9allocatorIcEEEEPKN3tns4MetaENS_4hashIS8_vEENS2_8equal_toIS8_EEE13increase_sizeEv, symObjAddr: 0x8D40, symBinAddr: 0x2FD70, symSize: 0x108 }
  - { offsetInCU: 0x3FA41, offset: 0x1ED28E, size: 0x8, addend: 0x0, symName: __ZN10robin_hood6detail5TableILb1ELm80ENSt3__112basic_stringIcNS2_11char_traitsIcEENS2_9allocatorIcEEEEPKN3tns4MetaENS_4hashIS8_vEENS2_8equal_toIS8_EEE7shiftUpEmm, symObjAddr: 0x8E48, symBinAddr: 0x2FE78, symSize: 0x118 }
  - { offsetInCU: 0x3FCA7, offset: 0x1ED4F4, size: 0x8, addend: 0x0, symName: __ZN10robin_hood6detail5TableILb1ELm80ENSt3__112basic_stringIcNS2_11char_traitsIcEENS2_9allocatorIcEEEEPKN3tns4MetaENS_4hashIS8_vEENS2_8equal_toIS8_EEE17try_increase_infoEv, symObjAddr: 0x9048, symBinAddr: 0x30078, symSize: 0xE8 }
  - { offsetInCU: 0x3FD96, offset: 0x1ED5E3, size: 0x8, addend: 0x0, symName: __ZN10robin_hood6detail5TableILb1ELm80ENSt3__112basic_stringIcNS2_11char_traitsIcEENS2_9allocatorIcEEEEPKN3tns4MetaENS_4hashIS8_vEENS2_8equal_toIS8_EEE8initDataEm, symObjAddr: 0x8F60, symBinAddr: 0x2FF90, symSize: 0xE8 }
  - { offsetInCU: 0x3FE75, offset: 0x1ED6C2, size: 0x8, addend: 0x0, symName: __ZN10robin_hood6detail5TableILb1ELm80ENSt3__112basic_stringIcNS2_11char_traitsIcEENS2_9allocatorIcEEEEPKN3tns4MetaENS_4hashIS8_vEENS2_8equal_toIS8_EEE17try_increase_infoEv, symObjAddr: 0x9048, symBinAddr: 0x30078, symSize: 0xE8 }
  - { offsetInCU: 0x3FE80, offset: 0x1ED6CD, size: 0x8, addend: 0x0, symName: __ZN10robin_hood6detail5TableILb1ELm80ENSt3__112basic_stringIcNS2_11char_traitsIcEENS2_9allocatorIcEEEEPKN3tns4MetaENS_4hashIS8_vEENS2_8equal_toIS8_EEE16rehashPowerOfTwoEmb, symObjAddr: 0x9130, symBinAddr: 0x30160, symSize: 0x102 }
  - { offsetInCU: 0x40234, offset: 0x1EDA81, size: 0x8, addend: 0x0, symName: __ZN10robin_hood6detail5TableILb1ELm80ENSt3__112basic_stringIcNS2_11char_traitsIcEENS2_9allocatorIcEEEEPKN3tns4MetaENS_4hashIS8_vEENS2_8equal_toIS8_EEE11insert_moveEONSH_8DataNodeISH_Lb1EEE, symObjAddr: 0x9232, symBinAddr: 0x30262, symSize: 0x13E }
  - { offsetInCU: 0x405F1, offset: 0x1EDE3E, size: 0x8, addend: 0x0, symName: __ZN3tns11GlobalTableILNS_15GlobalTableTypeE1EE11compareNameERKNS_4MetaEPKcm, symObjAddr: 0x95B4, symBinAddr: 0x305E4, symSize: 0x220 }
  - { offsetInCU: 0x40FF5, offset: 0x1EE842, size: 0x8, addend: 0x0, symName: __ZNSt3__120__shared_ptr_emplaceIN2v810PersistentINS1_5ValueENS1_27NonCopyablePersistentTraitsIS3_EEEENS_9allocatorIS6_EEEC2B8ue170006IJRPNS1_7IsolateERNS1_5LocalINS1_6ObjectEEEEEES8_DpOT_, symObjAddr: 0x9894, symBinAddr: 0x30864, symSize: 0x52 }
  - { offsetInCU: 0x414C3, offset: 0x1EED10, size: 0x8, addend: 0x0, symName: __ZNSt3__16vectorIPKN3tns10MethodMetaENS_9allocatorIS4_EEE11__vallocateB8ue170006Em, symObjAddr: 0x9AA0, symBinAddr: 0x30A20, symSize: 0x3A }
  - { offsetInCU: 0x41585, offset: 0x1EEDD2, size: 0x8, addend: 0x0, symName: __ZN10robin_hood6detail5TableILb1ELm80EPKN3tns13InterfaceMetaENSt3__16vectorIPKNS2_10MethodMetaENS6_9allocatorISA_EEEENS_4hashIS5_vEENS6_8equal_toIS5_EEE13increase_sizeEv, symObjAddr: 0x9C86, symBinAddr: 0x30C06, symSize: 0x108 }
  - { offsetInCU: 0x41640, offset: 0x1EEE8D, size: 0x8, addend: 0x0, symName: __ZN10robin_hood6detail5TableILb1ELm80EPKN3tns13InterfaceMetaENSt3__16vectorIPKNS2_10MethodMetaENS6_9allocatorISA_EEEENS_4hashIS5_vEENS6_8equal_toIS5_EEE7shiftUpEmm, symObjAddr: 0x9D8E, symBinAddr: 0x30D0E, symSize: 0xDE }
  - { offsetInCU: 0x417A0, offset: 0x1EEFED, size: 0x8, addend: 0x0, symName: __ZN10robin_hood6detail5TableILb1ELm80EPKN3tns13InterfaceMetaENSt3__16vectorIPKNS2_10MethodMetaENS6_9allocatorISA_EEEENS_4hashIS5_vEENS6_8equal_toIS5_EEE17try_increase_infoEv, symObjAddr: 0x9F54, symBinAddr: 0x30ED4, symSize: 0xE8 }
  - { offsetInCU: 0x4188F, offset: 0x1EF0DC, size: 0x8, addend: 0x0, symName: __ZN10robin_hood6detail5TableILb1ELm80EPKN3tns13InterfaceMetaENSt3__16vectorIPKNS2_10MethodMetaENS6_9allocatorISA_EEEENS_4hashIS5_vEENS6_8equal_toIS5_EEE8initDataEm, symObjAddr: 0x9E6C, symBinAddr: 0x30DEC, symSize: 0xE8 }
  - { offsetInCU: 0x4196E, offset: 0x1EF1BB, size: 0x8, addend: 0x0, symName: __ZN10robin_hood6detail5TableILb1ELm80EPKN3tns13InterfaceMetaENSt3__16vectorIPKNS2_10MethodMetaENS6_9allocatorISA_EEEENS_4hashIS5_vEENS6_8equal_toIS5_EEE17try_increase_infoEv, symObjAddr: 0x9F54, symBinAddr: 0x30ED4, symSize: 0xE8 }
  - { offsetInCU: 0x41979, offset: 0x1EF1C6, size: 0x8, addend: 0x0, symName: __ZN10robin_hood6detail5TableILb1ELm80EPKN3tns13InterfaceMetaENSt3__16vectorIPKNS2_10MethodMetaENS6_9allocatorISA_EEEENS_4hashIS5_vEENS6_8equal_toIS5_EEE16rehashPowerOfTwoEmb, symObjAddr: 0xA03C, symBinAddr: 0x30FBC, symSize: 0x104 }
  - { offsetInCU: 0x41CDA, offset: 0x1EF527, size: 0x8, addend: 0x0, symName: __ZNSt3__16vectorIPKN3tns10MethodMetaENS_9allocatorIS4_EEE13__move_assignERS7_NS_17integral_constantIbLb1EEE, symObjAddr: 0xA294, symBinAddr: 0x31214, symSize: 0x4F }
  - { offsetInCU: 0x41E98, offset: 0x1EF6E5, size: 0x8, addend: 0x0, symName: __ZN10robin_hood6detail5TableILb1ELm80EPKN3tns13InterfaceMetaENSt3__16vectorIPKNS2_10MethodMetaENS6_9allocatorISA_EEEENS_4hashIS5_vEENS6_8equal_toIS5_EEE11insert_moveEONSI_8DataNodeISI_Lb1EEE, symObjAddr: 0xA140, symBinAddr: 0x310C0, symSize: 0x154 }
  - { offsetInCU: 0x53, offset: 0x1EFA82, size: 0x8, addend: 0x0, symName: __ZN3tns6Worker15GlobalFunctionsE, symObjAddr: 0x28F048, symBinAddr: 0x16C39C8, symSize: 0x0 }
  - { offsetInCU: 0xE14B, offset: 0x1FDB7A, size: 0x8, addend: 0x0, symName: __ZNSt3__115allocate_sharedB8ue170006IN3tns6worker7MessageENS_9allocatorIS3_EEJEvEENS_10shared_ptrIT_EERKT0_DpOT1_, symObjAddr: 0x355A, symBinAddr: 0x341CA, symSize: 0x48 }
  - { offsetInCU: 0xEBDE, offset: 0x1FE60D, size: 0x8, addend: 0x0, symName: __ZNSt3__115allocate_sharedB8ue170006IN3tns6Caches11WorkerStateENS_9allocatorIS3_EEJRPN2v87IsolateERNS_10shared_ptrINS6_10PersistentINS6_5ValueENS6_27NonCopyablePersistentTraitsISC_EEEEEERPNS1_13WorkerWrapperEEvEENSA_IT_EERKT0_DpOT1_, symObjAddr: 0x29AE, symBinAddr: 0x337CE, symSize: 0x6C }
  - { offsetInCU: 0xF1BB, offset: 0x1FEBEA, size: 0x8, addend: 0x0, symName: __ZNSt3__135__uninitialized_allocator_copy_implB8ue170006INS_9allocatorINS_12basic_stringIcNS_11char_traitsIcEENS1_IcEEEEEEPKS6_S9_PS6_EET2_RT_T0_T1_SB_, symObjAddr: 0x2437, symBinAddr: 0x33257, symSize: 0xA5 }
  - { offsetInCU: 0x17A2E, offset: 0x20745D, size: 0x8, addend: 0x0, symName: __ZN3tns6Worker19ConstructorCallbackERKN2v820FunctionCallbackInfoINS1_5ValueEEE, symObjAddr: 0xD28, symBinAddr: 0x31F98, symSize: 0x78E }
  - { offsetInCU: 0x1957C, offset: 0x208FAB, size: 0x8, addend: 0x0, symName: __ZN3tns6Worker25PostMessageToMainCallbackERKN2v820FunctionCallbackInfoINS1_5ValueEEE, symObjAddr: 0x48E, symBinAddr: 0x316FE, symSize: 0x60C }
  - { offsetInCU: 0x1CF7A, offset: 0x20C9A9, size: 0x8, addend: 0x0, symName: __ZNSt3__16vectorINS_12basic_stringIcNS_11char_traitsIcEENS_9allocatorIcEEEENS4_IS6_EEED1B8ue170006Ev, symObjAddr: 0x0, symBinAddr: 0x31270, symSize: 0x1E }
  - { offsetInCU: 0x1D236, offset: 0x20CC65, size: 0x8, addend: 0x0, symName: __ZN3tns6Worker4InitEPN2v87IsolateENS1_5LocalINS1_14ObjectTemplateEEE, symObjAddr: 0x1E, symBinAddr: 0x3128E, symSize: 0xAE }
  - { offsetInCU: 0x1D49E, offset: 0x20CECD, size: 0x8, addend: 0x0, symName: __ZN3tns6Worker4InitEPN2v87IsolateENS1_5LocalINS1_14ObjectTemplateEEEb, symObjAddr: 0xCC, symBinAddr: 0x3133C, symSize: 0x3C2 }
  - { offsetInCU: 0x1E32C, offset: 0x20DD5B, size: 0x8, addend: 0x0, symName: __ZNSt3__135__uninitialized_allocator_copy_implB8ue170006INS_9allocatorINS_12basic_stringIcNS_11char_traitsIcEENS1_IcEEEEEEPKS6_S9_PS6_EET2_RT_T0_T1_SB_, symObjAddr: 0x2437, symBinAddr: 0x33257, symSize: 0xA5 }
  - { offsetInCU: 0x1EDCF, offset: 0x20E7FE, size: 0x8, addend: 0x0, symName: __ZN3tns6Worker11GetWorkerIdEPN2v87IsolateENS1_5LocalINS1_6ObjectEEE, symObjAddr: 0x1C3C, symBinAddr: 0x32DFC, symSize: 0x10C }
  - { offsetInCU: 0x1F3D2, offset: 0x20EE01, size: 0x8, addend: 0x0, symName: __ZN3tns6Worker19CloseWorkerCallbackERKN2v820FunctionCallbackInfoINS1_5ValueEEE, symObjAddr: 0xA9A, symBinAddr: 0x31D0A, symSize: 0x28E }
  - { offsetInCU: 0x20CB3, offset: 0x2106E2, size: 0x8, addend: 0x0, symName: __ZN10robin_hood6detail5TableILb1ELm80EiNSt3__110shared_ptrIN3tns6Caches11WorkerStateEEENS_4hashIivEENS2_8equal_toIiEEEixIS7_EENS2_9enable_ifIXntsr3std7is_voidIT_EE5valueERSF_E4typeERKi, symObjAddr: 0x2B42, symBinAddr: 0x33922, symSize: 0xC0 }
  - { offsetInCU: 0x2103E, offset: 0x210A6D, size: 0x8, addend: 0x0, symName: __ZNSt3__110shared_ptrIN3tns6Caches11WorkerStateEEaSB8ue170006ERKS4_, symObjAddr: 0x2C02, symBinAddr: 0x339E2, symSize: 0x56 }
  - { offsetInCU: 0x212A2, offset: 0x210CD1, size: 0x8, addend: 0x0, symName: __ZN3tns6Worker19PostMessageCallbackERKN2v820FunctionCallbackInfoINS1_5ValueEEE, symObjAddr: 0x14B6, symBinAddr: 0x32726, symSize: 0x45A }
  - { offsetInCU: 0x221BC, offset: 0x211BEB, size: 0x8, addend: 0x0, symName: __ZN3tns6Worker17TerminateCallbackERKN2v820FunctionCallbackInfoINS1_5ValueEEE, symObjAddr: 0x1910, symBinAddr: 0x32B80, symSize: 0x9D }
  - { offsetInCU: 0x2287F, offset: 0x2122AE, size: 0x8, addend: 0x0, symName: __ZN3tns6Worker17OnMessageCallbackEPN2v87IsolateENS1_5LocalINS1_5ValueEEENSt3__110shared_ptrINS_6worker7MessageEEE, symObjAddr: 0x1A62, symBinAddr: 0x32C22, symSize: 0x1CE }
  - { offsetInCU: 0x22FAD, offset: 0x2129DC, size: 0x8, addend: 0x0, symName: __ZN3tns6Worker9SerializeEPN2v87IsolateENS1_5LocalINS1_5ValueEEERS6_, symObjAddr: 0x1D48, symBinAddr: 0x32F08, symSize: 0x1EA }
  - { offsetInCU: 0x238B9, offset: 0x2132E8, size: 0x8, addend: 0x0, symName: __ZN3tns6Worker11SetWorkerIdEPN2v87IsolateEi, symObjAddr: 0x1F32, symBinAddr: 0x330F2, symSize: 0xFE }
  - { offsetInCU: 0x23C4A, offset: 0x213679, size: 0x8, addend: 0x0, symName: __Z24_register_isolate_workerPN2v87IsolateENS_5LocalINS_16FunctionTemplateEEE, symObjAddr: 0x2030, symBinAddr: 0x331F0, symSize: 0x22 }
  - { offsetInCU: 0x23F68, offset: 0x213997, size: 0x8, addend: 0x0, symName: __ZNSt3__120__shared_ptr_emplaceIN3tns6CachesENS_9allocatorIS2_EEED1Ev, symObjAddr: 0x2100, symBinAddr: 0x33220, symSize: 0x18 }
  - { offsetInCU: 0x23FC2, offset: 0x2139F1, size: 0x8, addend: 0x0, symName: __ZNSt3__120__shared_ptr_emplaceIN3tns6CachesENS_9allocatorIS2_EEE21__on_zero_shared_weakEv, symObjAddr: 0x2150, symBinAddr: 0x33240, symSize: 0xA }
  - { offsetInCU: 0x245E6, offset: 0x214015, size: 0x8, addend: 0x0, symName: __ZNSt3__128__exception_guard_exceptionsINS_29_AllocatorDestroyRangeReverseINS_9allocatorINS_12basic_stringIcNS_11char_traitsIcEENS2_IcEEEEEEPS7_EEED2B8ue170006Ev, symObjAddr: 0x24DC, symBinAddr: 0x332FC, symSize: 0x1A }
  - { offsetInCU: 0x2461E, offset: 0x21404D, size: 0x8, addend: 0x0, symName: __ZNKSt3__129_AllocatorDestroyRangeReverseINS_9allocatorINS_12basic_stringIcNS_11char_traitsIcEENS1_IcEEEEEEPS6_EclB8ue170006Ev, symObjAddr: 0x24F6, symBinAddr: 0x33316, symSize: 0x3A }
  - { offsetInCU: 0x2487F, offset: 0x2142AE, size: 0x8, addend: 0x0, symName: __ZNSt3__110__function6__funcIPFvPN2v87IsolateENS2_5LocalINS2_5ValueEEENS_10shared_ptrIN3tns6worker7MessageEEEENS_9allocatorISE_EEFvS4_NS5_INS2_6ObjectEEESC_EED1Ev, symObjAddr: 0x2530, symBinAddr: 0x33350, symSize: 0x6 }
  - { offsetInCU: 0x248AB, offset: 0x2142DA, size: 0x8, addend: 0x0, symName: __ZNSt3__110__function6__funcIPFvPN2v87IsolateENS2_5LocalINS2_5ValueEEENS_10shared_ptrIN3tns6worker7MessageEEEENS_9allocatorISE_EEFvS4_NS5_INS2_6ObjectEEESC_EED0Ev, symObjAddr: 0x2536, symBinAddr: 0x33356, symSize: 0xA }
  - { offsetInCU: 0x24AB1, offset: 0x2144E0, size: 0x8, addend: 0x0, symName: __ZNKSt3__110__function6__funcIPFvPN2v87IsolateENS2_5LocalINS2_5ValueEEENS_10shared_ptrIN3tns6worker7MessageEEEENS_9allocatorISE_EEFvS4_NS5_INS2_6ObjectEEESC_EE7__cloneEv, symObjAddr: 0x2540, symBinAddr: 0x33360, symSize: 0x30 }
  - { offsetInCU: 0x24DD1, offset: 0x214800, size: 0x8, addend: 0x0, symName: __ZNKSt3__110__function6__funcIPFvPN2v87IsolateENS2_5LocalINS2_5ValueEEENS_10shared_ptrIN3tns6worker7MessageEEEENS_9allocatorISE_EEFvS4_NS5_INS2_6ObjectEEESC_EE7__cloneEPNS0_6__baseISJ_EE, symObjAddr: 0x2570, symBinAddr: 0x33390, symSize: 0x1C }
  - { offsetInCU: 0x24F4C, offset: 0x21497B, size: 0x8, addend: 0x0, symName: __ZNSt3__110__function6__funcIPFvPN2v87IsolateENS2_5LocalINS2_5ValueEEENS_10shared_ptrIN3tns6worker7MessageEEEENS_9allocatorISE_EEFvS4_NS5_INS2_6ObjectEEESC_EE7destroyEv, symObjAddr: 0x258C, symBinAddr: 0x333AC, symSize: 0x6 }
  - { offsetInCU: 0x24F9F, offset: 0x2149CE, size: 0x8, addend: 0x0, symName: __ZNSt3__110__function6__funcIPFvPN2v87IsolateENS2_5LocalINS2_5ValueEEENS_10shared_ptrIN3tns6worker7MessageEEEENS_9allocatorISE_EEFvS4_NS5_INS2_6ObjectEEESC_EE18destroy_deallocateEv, symObjAddr: 0x2592, symBinAddr: 0x333B2, symSize: 0xA }
  - { offsetInCU: 0x250A8, offset: 0x214AD7, size: 0x8, addend: 0x0, symName: __ZNSt3__110__function6__funcIPFvPN2v87IsolateENS2_5LocalINS2_5ValueEEENS_10shared_ptrIN3tns6worker7MessageEEEENS_9allocatorISE_EEFvS4_NS5_INS2_6ObjectEEESC_EEclEOS4_OSI_OSC_, symObjAddr: 0x259C, symBinAddr: 0x333BC, symSize: 0xE }
  - { offsetInCU: 0x2513A, offset: 0x214B69, size: 0x8, addend: 0x0, symName: __ZNSt3__128__invoke_void_return_wrapperIvLb1EE6__callB8ue170006IJRPFvPN2v87IsolateENS3_5LocalINS3_5ValueEEENS_10shared_ptrIN3tns6worker7MessageEEEES5_NS6_INS3_6ObjectEEESD_EEEvDpOT_, symObjAddr: 0x25AA, symBinAddr: 0x333CA, symSize: 0x70 }
  - { offsetInCU: 0x25334, offset: 0x214D63, size: 0x8, addend: 0x0, symName: __ZNSt3__128__invoke_void_return_wrapperIvLb1EE6__callB8ue170006IJRPFvPN2v87IsolateENS3_5LocalINS3_5ValueEEENS_10shared_ptrIN3tns6worker7MessageEEEES5_NS6_INS3_6ObjectEEESD_EEEvDpOT_.cold.1, symObjAddr: 0x3A81, symBinAddr: 0xC72A11, symSize: 0x2F }
  - { offsetInCU: 0x25481, offset: 0x214EB0, size: 0x8, addend: 0x0, symName: '__ZNSt3__110__function6__funcIZN3tns6Worker19ConstructorCallbackERKN2v820FunctionCallbackInfoINS4_5ValueEEEE3$_0NS_9allocatorISA_EEFPNS4_7IsolateEvEED1Ev', symObjAddr: 0x261A, symBinAddr: 0x3343A, symSize: 0x20 }
  - { offsetInCU: 0x25669, offset: 0x215098, size: 0x8, addend: 0x0, symName: '__ZNSt3__110__function6__funcIZN3tns6Worker19ConstructorCallbackERKN2v820FunctionCallbackInfoINS4_5ValueEEEE3$_0NS_9allocatorISA_EEFPNS4_7IsolateEvEED0Ev', symObjAddr: 0x263A, symBinAddr: 0x3345A, symSize: 0x30 }
  - { offsetInCU: 0x25B34, offset: 0x215563, size: 0x8, addend: 0x0, symName: '__ZNKSt3__110__function6__funcIZN3tns6Worker19ConstructorCallbackERKN2v820FunctionCallbackInfoINS4_5ValueEEEE3$_0NS_9allocatorISA_EEFPNS4_7IsolateEvEE7__cloneEv', symObjAddr: 0x266A, symBinAddr: 0x3348A, symSize: 0x4A }
  - { offsetInCU: 0x25DC1, offset: 0x2157F0, size: 0x8, addend: 0x0, symName: '__ZNSt3__122__compressed_pair_elemIZN3tns6Worker19ConstructorCallbackERKN2v820FunctionCallbackInfoINS3_5ValueEEEE3$_0Li0ELb0EEC2B8ue170006IJRKS9_EJLm0EEEENS_21piecewise_construct_tENS_5tupleIJDpT_EEENS_15__tuple_indicesIJXspT0_EEEE', symObjAddr: 0x2978, symBinAddr: 0x33798, symSize: 0x36 }
  - { offsetInCU: 0x26039, offset: 0x215A68, size: 0x8, addend: 0x0, symName: '__ZNKSt3__110__function6__funcIZN3tns6Worker19ConstructorCallbackERKN2v820FunctionCallbackInfoINS4_5ValueEEEE3$_0NS_9allocatorISA_EEFPNS4_7IsolateEvEE7__cloneEPNS0_6__baseISF_EE', symObjAddr: 0x26B4, symBinAddr: 0x334D4, symSize: 0x20 }
  - { offsetInCU: 0x26198, offset: 0x215BC7, size: 0x8, addend: 0x0, symName: '__ZNSt3__110__function6__funcIZN3tns6Worker19ConstructorCallbackERKN2v820FunctionCallbackInfoINS4_5ValueEEEE3$_0NS_9allocatorISA_EEFPNS4_7IsolateEvEE7destroyEv', symObjAddr: 0x26D4, symBinAddr: 0x334F4, symSize: 0x16 }
  - { offsetInCU: 0x2633D, offset: 0x215D6C, size: 0x8, addend: 0x0, symName: '__ZNSt3__110__function6__funcIZN3tns6Worker19ConstructorCallbackERKN2v820FunctionCallbackInfoINS4_5ValueEEEE3$_0NS_9allocatorISA_EEFPNS4_7IsolateEvEE18destroy_deallocateEv', symObjAddr: 0x26EA, symBinAddr: 0x3350A, symSize: 0x26 }
  - { offsetInCU: 0x2678E, offset: 0x2161BD, size: 0x8, addend: 0x0, symName: '__ZNSt3__110__function6__funcIZN3tns6Worker19ConstructorCallbackERKN2v820FunctionCallbackInfoINS4_5ValueEEEE3$_0NS_9allocatorISA_EEFPNS4_7IsolateEvEEclEv', symObjAddr: 0x2710, symBinAddr: 0x33530, symSize: 0x268 }
  - { offsetInCU: 0x2713F, offset: 0x216B6E, size: 0x8, addend: 0x0, symName: __ZNSt3__120__shared_ptr_emplaceIN3tns6Caches11WorkerStateENS_9allocatorIS3_EEEC2B8ue170006IJRPN2v87IsolateERNS_10shared_ptrINS8_10PersistentINS8_5ValueENS8_27NonCopyablePersistentTraitsISE_EEEEEERPNS1_13WorkerWrapperEEEES5_DpOT_, symObjAddr: 0x2A1A, symBinAddr: 0x3383A, symSize: 0x8E }
  - { offsetInCU: 0x2748A, offset: 0x216EB9, size: 0x8, addend: 0x0, symName: __ZNSt3__120__shared_ptr_emplaceIN3tns6Caches11WorkerStateENS_9allocatorIS3_EEED1Ev, symObjAddr: 0x2AA8, symBinAddr: 0x338C8, symSize: 0x18 }
  - { offsetInCU: 0x274E4, offset: 0x216F13, size: 0x8, addend: 0x0, symName: __ZNSt3__120__shared_ptr_emplaceIN3tns6Caches11WorkerStateENS_9allocatorIS3_EEED0Ev, symObjAddr: 0x2AC0, symBinAddr: 0x338E0, symSize: 0x2A }
  - { offsetInCU: 0x27584, offset: 0x216FB3, size: 0x8, addend: 0x0, symName: __ZNSt3__120__shared_ptr_emplaceIN3tns6Caches11WorkerStateENS_9allocatorIS3_EEE16__on_zero_sharedEv, symObjAddr: 0x2AEA, symBinAddr: 0x3390A, symSize: 0xE }
  - { offsetInCU: 0x27611, offset: 0x217040, size: 0x8, addend: 0x0, symName: __ZNSt3__120__shared_ptr_emplaceIN3tns6Caches11WorkerStateENS_9allocatorIS3_EEE21__on_zero_shared_weakEv, symObjAddr: 0x2AF8, symBinAddr: 0x33918, symSize: 0xA }
  - { offsetInCU: 0x27A0D, offset: 0x21743C, size: 0x8, addend: 0x0, symName: __ZN10robin_hood6detail5TableILb1ELm80EiNSt3__110shared_ptrIN3tns6Caches11WorkerStateEEENS_4hashIivEENS2_8equal_toIiEEE25insertKeyPrepareEmptySpotIRKiEENS2_4pairImNSC_14InsertionStateEEEOT_, symObjAddr: 0x2C58, symBinAddr: 0x33A38, symSize: 0x160 }
  - { offsetInCU: 0x27BA7, offset: 0x2175D6, size: 0x8, addend: 0x0, symName: __ZNK10robin_hood6detail5TableILb1ELm80EiNSt3__110shared_ptrIN3tns6Caches11WorkerStateEEENS_4hashIivEENS2_8equal_toIiEEE18throwOverflowErrorEv, symObjAddr: 0x2DB8, symBinAddr: 0x33B98, symSize: 0x4C }
  - { offsetInCU: 0x27DD7, offset: 0x217806, size: 0x8, addend: 0x0, symName: __ZN10robin_hood6detail5TableILb1ELm80EiNSt3__110shared_ptrIN3tns6Caches11WorkerStateEEENS_4hashIivEENS2_8equal_toIiEEE13increase_sizeEv, symObjAddr: 0x2E04, symBinAddr: 0x33BE4, symSize: 0x108 }
  - { offsetInCU: 0x27E92, offset: 0x2178C1, size: 0x8, addend: 0x0, symName: __ZN10robin_hood6detail5TableILb1ELm80EiNSt3__110shared_ptrIN3tns6Caches11WorkerStateEEENS_4hashIivEENS2_8equal_toIiEEE7shiftUpEmm, symObjAddr: 0x2F0C, symBinAddr: 0x33CEC, symSize: 0xCA }
  - { offsetInCU: 0x28014, offset: 0x217A43, size: 0x8, addend: 0x0, symName: __ZN10robin_hood6detail5TableILb1ELm80EiNSt3__110shared_ptrIN3tns6Caches11WorkerStateEEENS_4hashIivEENS2_8equal_toIiEEE17try_increase_infoEv, symObjAddr: 0x30BC, symBinAddr: 0x33E9C, symSize: 0xE8 }
  - { offsetInCU: 0x28103, offset: 0x217B32, size: 0x8, addend: 0x0, symName: __ZN10robin_hood6detail5TableILb1ELm80EiNSt3__110shared_ptrIN3tns6Caches11WorkerStateEEENS_4hashIivEENS2_8equal_toIiEEE8initDataEm, symObjAddr: 0x2FD6, symBinAddr: 0x33DB6, symSize: 0xE6 }
  - { offsetInCU: 0x281DA, offset: 0x217C09, size: 0x8, addend: 0x0, symName: __ZN10robin_hood6detail5TableILb1ELm80EiNSt3__110shared_ptrIN3tns6Caches11WorkerStateEEENS_4hashIivEENS2_8equal_toIiEEE17try_increase_infoEv, symObjAddr: 0x30BC, symBinAddr: 0x33E9C, symSize: 0xE8 }
  - { offsetInCU: 0x281E5, offset: 0x217C14, size: 0x8, addend: 0x0, symName: __ZN10robin_hood6detail5TableILb1ELm80EiNSt3__110shared_ptrIN3tns6Caches11WorkerStateEEENS_4hashIivEENS2_8equal_toIiEEE16rehashPowerOfTwoEmb, symObjAddr: 0x31A4, symBinAddr: 0x33F84, symSize: 0xFB }
  - { offsetInCU: 0x2847B, offset: 0x217EAA, size: 0x8, addend: 0x0, symName: __ZN10robin_hood6detail5TableILb1ELm80EiNSt3__110shared_ptrIN3tns6Caches11WorkerStateEEENS_4hashIivEENS2_8equal_toIiEEE11insert_moveEONSC_8DataNodeISC_Lb1EEE, symObjAddr: 0x32D0, symBinAddr: 0x34080, symSize: 0x13C }
  - { offsetInCU: 0x28987, offset: 0x2183B6, size: 0x8, addend: 0x0, symName: __ZNSt3__120__shared_ptr_emplaceIN3tns6worker7MessageENS_9allocatorIS3_EEEC2B8ue170006IJEEES5_DpOT_, symObjAddr: 0x35A2, symBinAddr: 0x34212, symSize: 0x62 }
  - { offsetInCU: 0x28B67, offset: 0x218596, size: 0x8, addend: 0x0, symName: __ZNSt3__120__shared_ptr_emplaceIN3tns6worker7MessageENS_9allocatorIS3_EEED1Ev, symObjAddr: 0x3604, symBinAddr: 0x34274, symSize: 0x18 }
  - { offsetInCU: 0x28BC1, offset: 0x2185F0, size: 0x8, addend: 0x0, symName: __ZNSt3__120__shared_ptr_emplaceIN3tns6worker7MessageENS_9allocatorIS3_EEED0Ev, symObjAddr: 0x361C, symBinAddr: 0x3428C, symSize: 0x2A }
  - { offsetInCU: 0x28CED, offset: 0x21871C, size: 0x8, addend: 0x0, symName: __ZNSt3__120__shared_ptr_emplaceIN3tns6worker7MessageENS_9allocatorIS3_EEE16__on_zero_sharedEv, symObjAddr: 0x3646, symBinAddr: 0x342B6, symSize: 0x44 }
  - { offsetInCU: 0x28EB1, offset: 0x2188E0, size: 0x8, addend: 0x0, symName: __ZNSt3__16vectorINS_10shared_ptrIN2v812BackingStoreEEENS_9allocatorIS4_EEE16__destroy_vectorclB8ue170006Ev, symObjAddr: 0x3694, symBinAddr: 0x34304, symSize: 0x56 }
  - { offsetInCU: 0x29037, offset: 0x218A66, size: 0x8, addend: 0x0, symName: __ZNSt3__120__shared_ptr_emplaceIN3tns6worker7MessageENS_9allocatorIS3_EEE21__on_zero_shared_weakEv, symObjAddr: 0x368A, symBinAddr: 0x342FA, symSize: 0xA }
  - { offsetInCU: 0x29330, offset: 0x218D5F, size: 0x8, addend: 0x0, symName: '__ZNSt3__110__function6__funcIZN3tns6Worker25PostMessageToMainCallbackERKN2v820FunctionCallbackInfoINS4_5ValueEEEE3$_1NS_9allocatorISA_EEFvvEED1Ev', symObjAddr: 0x376A, symBinAddr: 0x3435A, symSize: 0x2C }
  - { offsetInCU: 0x294B5, offset: 0x218EE4, size: 0x8, addend: 0x0, symName: '__ZNSt3__110__function6__funcIZN3tns6Worker25PostMessageToMainCallbackERKN2v820FunctionCallbackInfoINS4_5ValueEEEE3$_1NS_9allocatorISA_EEFvvEED0Ev', symObjAddr: 0x3796, symBinAddr: 0x34386, symSize: 0x36 }
  - { offsetInCU: 0x2982D, offset: 0x21925C, size: 0x8, addend: 0x0, symName: '__ZNKSt3__110__function6__funcIZN3tns6Worker25PostMessageToMainCallbackERKN2v820FunctionCallbackInfoINS4_5ValueEEEE3$_1NS_9allocatorISA_EEFvvEE7__cloneEv', symObjAddr: 0x37CC, symBinAddr: 0x343BC, symSize: 0x58 }
  - { offsetInCU: 0x29CE7, offset: 0x219716, size: 0x8, addend: 0x0, symName: '__ZNKSt3__110__function6__funcIZN3tns6Worker25PostMessageToMainCallbackERKN2v820FunctionCallbackInfoINS4_5ValueEEEE3$_1NS_9allocatorISA_EEFvvEE7__cloneEPNS0_6__baseISD_EE', symObjAddr: 0x3824, symBinAddr: 0x34414, symSize: 0x44 }
  - { offsetInCU: 0x2A012, offset: 0x219A41, size: 0x8, addend: 0x0, symName: '__ZNSt3__110__function6__funcIZN3tns6Worker25PostMessageToMainCallbackERKN2v820FunctionCallbackInfoINS4_5ValueEEEE3$_1NS_9allocatorISA_EEFvvEE7destroyEv', symObjAddr: 0x3868, symBinAddr: 0x34458, symSize: 0x22 }
  - { offsetInCU: 0x2A170, offset: 0x219B9F, size: 0x8, addend: 0x0, symName: '__ZNSt3__110__function6__funcIZN3tns6Worker25PostMessageToMainCallbackERKN2v820FunctionCallbackInfoINS4_5ValueEEEE3$_1NS_9allocatorISA_EEFvvEE18destroy_deallocateEv', symObjAddr: 0x388A, symBinAddr: 0x3447A, symSize: 0x2C }
  - { offsetInCU: 0x2A46A, offset: 0x219E99, size: 0x8, addend: 0x0, symName: '__ZNSt3__110__function6__funcIZN3tns6Worker25PostMessageToMainCallbackERKN2v820FunctionCallbackInfoINS4_5ValueEEEE3$_1NS_9allocatorISA_EEFvvEEclEv', symObjAddr: 0x38B6, symBinAddr: 0x344A6, symSize: 0x1CB }
  - { offsetInCU: 0x2AE1D, offset: 0x21A84C, size: 0x8, addend: 0x0, symName: __GLOBAL__sub_I_Worker.mm, symObjAddr: 0x4068, symBinAddr: 0x34671, symSize: 0x147 }
  - { offsetInCU: 0x26, offset: 0x21B0D6, size: 0x8, addend: 0x0, symName: __ZN3tns15SimpleAllocatorC2Ev, symObjAddr: 0x0, symBinAddr: 0x347B8, symSize: 0x10 }
  - { offsetInCU: 0x2D05, offset: 0x21DDB5, size: 0x8, addend: 0x0, symName: __ZN3tns15SimpleAllocatorC2Ev, symObjAddr: 0x0, symBinAddr: 0x347B8, symSize: 0x10 }
  - { offsetInCU: 0x2D47, offset: 0x21DDF7, size: 0x8, addend: 0x0, symName: __ZN3tns15SimpleAllocatorC1Ev, symObjAddr: 0x10, symBinAddr: 0x347C8, symSize: 0x10 }
  - { offsetInCU: 0x2D8E, offset: 0x21DE3E, size: 0x8, addend: 0x0, symName: __ZN3tns15SimpleAllocatorD2Ev, symObjAddr: 0x20, symBinAddr: 0x347D8, symSize: 0x6 }
  - { offsetInCU: 0x2DB9, offset: 0x21DE69, size: 0x8, addend: 0x0, symName: __ZN3tns15SimpleAllocatorD1Ev, symObjAddr: 0x26, symBinAddr: 0x347DE, symSize: 0x6 }
  - { offsetInCU: 0x2DE2, offset: 0x21DE92, size: 0x8, addend: 0x0, symName: __ZN3tns15SimpleAllocatorD0Ev, symObjAddr: 0x2C, symBinAddr: 0x347E4, symSize: 0xA }
  - { offsetInCU: 0x2E0D, offset: 0x21DEBD, size: 0x8, addend: 0x0, symName: __ZN3tns15SimpleAllocator8AllocateEm, symObjAddr: 0x36, symBinAddr: 0x347EE, symSize: 0x12 }
  - { offsetInCU: 0x2E4C, offset: 0x21DEFC, size: 0x8, addend: 0x0, symName: __ZN3tns15SimpleAllocator21AllocateUninitializedEm, symObjAddr: 0x48, symBinAddr: 0x34800, symSize: 0xE }
  - { offsetInCU: 0x2E88, offset: 0x21DF38, size: 0x8, addend: 0x0, symName: __ZN3tns15SimpleAllocator4FreeEPvm, symObjAddr: 0x56, symBinAddr: 0x3480E, symSize: 0xD }
  - { offsetInCU: 0x51, offset: 0x21DFC6, size: 0x8, addend: 0x0, symName: __ZN3tns7Console9inspectorE, symObjAddr: 0x296668, symBinAddr: 0x16C39E0, symSize: 0x0 }
  - { offsetInCU: 0xB50E, offset: 0x229483, size: 0x8, addend: 0x0, symName: __ZN3tns7Console26VerbosityToInspectorMethodENSt3__112basic_stringIcNS1_11char_traitsIcEENS1_9allocatorIcEEEE.cold.1, symObjAddr: 0x44DC, symBinAddr: 0xC72A4C, symSize: 0x23 }
  - { offsetInCU: 0x1513B, offset: 0x2330B0, size: 0x8, addend: 0x0, symName: __ZN3tns7Console4InitEN2v85LocalINS1_7ContextEEE, symObjAddr: 0x0, symBinAddr: 0x34820, symSize: 0x4A0 }
  - { offsetInCU: 0x16B09, offset: 0x234A7E, size: 0x8, addend: 0x0, symName: __ZN3tns7Console17AttachLogFunctionEN2v85LocalINS1_7ContextEEENS2_INS1_6ObjectEEENSt3__112basic_stringIcNS7_11char_traitsIcEENS7_9allocatorIcEEEEPFvRKNS1_20FunctionCallbackInfoINS1_5ValueEEEE, symObjAddr: 0x4A0, symBinAddr: 0x34CC0, symSize: 0x174 }
  - { offsetInCU: 0x1745B, offset: 0x2353D0, size: 0x8, addend: 0x0, symName: __ZN3tns7Console11LogCallbackERKN2v820FunctionCallbackInfoINS1_5ValueEEE, symObjAddr: 0x614, symBinAddr: 0x34E34, symSize: 0x538 }
  - { offsetInCU: 0x1900A, offset: 0x236F7F, size: 0x8, addend: 0x0, symName: __ZN3tns7Console19BuildStringFromArgsERKN2v820FunctionCallbackInfoINS1_5ValueEEEi, symObjAddr: 0x1AE4, symBinAddr: 0x36304, symSize: 0x238 }
  - { offsetInCU: 0x19722, offset: 0x237697, size: 0x8, addend: 0x0, symName: __ZNSt3__112basic_stringIcNS_11char_traitsIcEENS_9allocatorIcEEE25__init_copy_ctor_externalEPKcm, symObjAddr: 0x3420, symBinAddr: 0x37350, symSize: 0x70 }
  - { offsetInCU: 0x19ACC, offset: 0x237A41, size: 0x8, addend: 0x0, symName: __ZNSt3__118basic_stringstreamIcNS_11char_traitsIcEENS_9allocatorIcEEEC1B8ue170006Ev, symObjAddr: 0x1DD0, symBinAddr: 0x36540, symSize: 0xEA }
  - { offsetInCU: 0x19D34, offset: 0x237CA9, size: 0x8, addend: 0x0, symName: __ZN3tns7Console26VerbosityToInspectorMethodENSt3__112basic_stringIcNS1_11char_traitsIcEENS1_9allocatorIcEEEE, symObjAddr: 0x1EBA, symBinAddr: 0x3662A, symSize: 0x154 }
  - { offsetInCU: 0x1A1B1, offset: 0x238126, size: 0x8, addend: 0x0, symName: __ZN3tns7Console22SendToDevToolsFrontEndEN12v8_inspector14ConsoleAPITypeERKN2v820FunctionCallbackInfoINS3_5ValueEEE, symObjAddr: 0x200E, symBinAddr: 0x3677E, symSize: 0x1D2 }
  - { offsetInCU: 0x1AAA2, offset: 0x238A17, size: 0x8, addend: 0x0, symName: __ZNSt3__118basic_stringstreamIcNS_11char_traitsIcEENS_9allocatorIcEEED1Ev, symObjAddr: 0x21E0, symBinAddr: 0x36950, symSize: 0x84 }
  - { offsetInCU: 0x1AC69, offset: 0x238BDE, size: 0x8, addend: 0x0, symName: __ZN3tns7Console14AssertCallbackERKN2v820FunctionCallbackInfoINS1_5ValueEEE, symObjAddr: 0xB4C, symBinAddr: 0x3536C, symSize: 0x1C4 }
  - { offsetInCU: 0x1B54B, offset: 0x2394C0, size: 0x8, addend: 0x0, symName: __ZN3tns7Console11DirCallbackERKN2v820FunctionCallbackInfoINS1_5ValueEEE, symObjAddr: 0xD10, symBinAddr: 0x35530, symSize: 0x846 }
  - { offsetInCU: 0x1CD63, offset: 0x23ACD8, size: 0x8, addend: 0x0, symName: __ZN3tns7Console18BuildStringFromArgEN2v85LocalINS1_7ContextEEERKNS2_INS1_5ValueEEE, symObjAddr: 0x2264, symBinAddr: 0x369D4, symSize: 0x3AA }
  - { offsetInCU: 0x1D506, offset: 0x23B47B, size: 0x8, addend: 0x0, symName: __ZN3tns7Console17TransformJSObjectEN2v85LocalINS1_6ObjectEEE, symObjAddr: 0x260E, symBinAddr: 0x36D7E, symSize: 0x240 }
  - { offsetInCU: 0x1E0A6, offset: 0x23C01B, size: 0x8, addend: 0x0, symName: __ZN3tns7Console12TimeCallbackERKN2v820FunctionCallbackInfoINS1_5ValueEEE, symObjAddr: 0x1556, symBinAddr: 0x35D76, symSize: 0x168 }
  - { offsetInCU: 0x1E7B5, offset: 0x23C72A, size: 0x8, addend: 0x0, symName: __ZN10robin_hood6detail5TableILb1ELm80ENSt3__112basic_stringIcNS2_11char_traitsIcEENS2_9allocatorIcEEEEdNS_4hashIS8_vEENS2_8equal_toIS8_EEE7emplaceIJRS8_RdEEENS2_4pairINSD_4IterILb0EEEbEEDpOT_, symObjAddr: 0x284E, symBinAddr: 0x36FBE, symSize: 0x152 }
  - { offsetInCU: 0x1EFB4, offset: 0x23CF29, size: 0x8, addend: 0x0, symName: __ZNSt3__110shared_ptrIN3tns6CachesEED2B8ue170006Ev, symObjAddr: 0x3490, symBinAddr: 0x373C0, symSize: 0x40 }
  - { offsetInCU: 0x1F177, offset: 0x23D0EC, size: 0x8, addend: 0x0, symName: __ZN3tns7Console15TimeEndCallbackERKN2v820FunctionCallbackInfoINS1_5ValueEEE, symObjAddr: 0x16BE, symBinAddr: 0x35EDE, symSize: 0x406 }
  - { offsetInCU: 0x20460, offset: 0x23E3D5, size: 0x8, addend: 0x0, symName: __ZNK10robin_hood6detail5TableILb1ELm80ENSt3__112basic_stringIcNS2_11char_traitsIcEENS2_9allocatorIcEEEEdNS_4hashIS8_vEENS2_8equal_toIS8_EEE7findIdxIS8_EEmRKT_, symObjAddr: 0x42E8, symBinAddr: 0x37C88, symSize: 0xEA }
  - { offsetInCU: 0x20583, offset: 0x23E4F8, size: 0x8, addend: 0x0, symName: __ZN10robin_hood6detail5TableILb1ELm80ENSt3__112basic_stringIcNS2_11char_traitsIcEENS2_9allocatorIcEEEEdNS_4hashIS8_vEENS2_8equal_toIS8_EEE5eraseERKS8_, symObjAddr: 0x29A0, symBinAddr: 0x37110, symSize: 0xB2 }
  - { offsetInCU: 0x20649, offset: 0x23E5BE, size: 0x8, addend: 0x0, symName: __ZN3tns7Console22SendToDevToolsFrontEndEPN2v87IsolateEN12v8_inspector14ConsoleAPITypeERKNSt3__112basic_stringIcNS6_11char_traitsIcEENS6_9allocatorIcEEEE, symObjAddr: 0x2A52, symBinAddr: 0x371C2, symSize: 0xB6 }
  - { offsetInCU: 0x20CCB, offset: 0x23EC40, size: 0x8, addend: 0x0, symName: __ZN3tns7Console21AttachInspectorClientEPN12v8_inspector19JsV8InspectorClientE, symObjAddr: 0x1AC4, symBinAddr: 0x362E4, symSize: 0xE }
  - { offsetInCU: 0x20CEF, offset: 0x23EC64, size: 0x8, addend: 0x0, symName: __ZN3tns7Console21DetachInspectorClientEv, symObjAddr: 0x1AD2, symBinAddr: 0x362F2, symSize: 0x12 }
  - { offsetInCU: 0x210BB, offset: 0x23F030, size: 0x8, addend: 0x0, symName: __ZN3tns7Console26VerbosityToInspectorMethodENSt3__112basic_stringIcNS1_11char_traitsIcEENS1_9allocatorIcEEEE.cold.1, symObjAddr: 0x44DC, symBinAddr: 0xC72A4C, symSize: 0x23 }
  - { offsetInCU: 0x21582, offset: 0x23F4F7, size: 0x8, addend: 0x0, symName: __ZNSt3__16vectorIN2v85LocalINS1_5ValueEEENS_9allocatorIS4_EEE7reserveEm, symObjAddr: 0x2B08, symBinAddr: 0x37278, symSize: 0x98 }
  - { offsetInCU: 0x21D78, offset: 0x23FCED, size: 0x8, addend: 0x0, symName: __ZN10robin_hood6detail5TableILb1ELm80ENSt3__112basic_stringIcNS2_11char_traitsIcEENS2_9allocatorIcEEEEdNS_4hashIS8_vEENS2_8equal_toIS8_EEE25insertKeyPrepareEmptySpotIRKS8_EENS2_4pairImNSD_14InsertionStateEEEOT_, symObjAddr: 0x3908, symBinAddr: 0x37408, symSize: 0x15C }
  - { offsetInCU: 0x21EC0, offset: 0x23FE35, size: 0x8, addend: 0x0, symName: __ZNK10robin_hood6detail5TableILb1ELm80ENSt3__112basic_stringIcNS2_11char_traitsIcEENS2_9allocatorIcEEEEdNS_4hashIS8_vEENS2_8equal_toIS8_EEE18throwOverflowErrorEv, symObjAddr: 0x3A64, symBinAddr: 0x37564, symSize: 0x4C }
  - { offsetInCU: 0x21FF0, offset: 0x23FF65, size: 0x8, addend: 0x0, symName: __ZNKSt3__18equal_toINS_12basic_stringIcNS_11char_traitsIcEENS_9allocatorIcEEEEEclB8ue170006ERKS6_S9_, symObjAddr: 0x3AB0, symBinAddr: 0x375B0, symSize: 0x8C }
  - { offsetInCU: 0x2215F, offset: 0x2400D4, size: 0x8, addend: 0x0, symName: __ZN10robin_hood6detail5TableILb1ELm80ENSt3__112basic_stringIcNS2_11char_traitsIcEENS2_9allocatorIcEEEEdNS_4hashIS8_vEENS2_8equal_toIS8_EEE9shiftDownEm, symObjAddr: 0x43D2, symBinAddr: 0x37D72, symSize: 0xCC }
  - { offsetInCU: 0x227E1, offset: 0x240756, size: 0x8, addend: 0x0, symName: __ZNSt3__115basic_stringbufIcNS_11char_traitsIcEENS_9allocatorIcEEED0Ev, symObjAddr: 0x2FC0, symBinAddr: 0x37310, symSize: 0x3C }
  - { offsetInCU: 0x23340, offset: 0x2412B5, size: 0x8, addend: 0x0, symName: __ZN10robin_hood6detail5TableILb1ELm80ENSt3__112basic_stringIcNS2_11char_traitsIcEENS2_9allocatorIcEEEEdNS_4hashIS8_vEENS2_8equal_toIS8_EEE13increase_sizeEv, symObjAddr: 0x3B3C, symBinAddr: 0x3763C, symSize: 0x108 }
  - { offsetInCU: 0x233FB, offset: 0x241370, size: 0x8, addend: 0x0, symName: __ZN10robin_hood6detail5TableILb1ELm80ENSt3__112basic_stringIcNS2_11char_traitsIcEENS2_9allocatorIcEEEEdNS_4hashIS8_vEENS2_8equal_toIS8_EEE7shiftUpEmm, symObjAddr: 0x3C44, symBinAddr: 0x37744, symSize: 0x11E }
  - { offsetInCU: 0x23699, offset: 0x24160E, size: 0x8, addend: 0x0, symName: __ZN10robin_hood6detail5TableILb1ELm80ENSt3__112basic_stringIcNS2_11char_traitsIcEENS2_9allocatorIcEEEEdNS_4hashIS8_vEENS2_8equal_toIS8_EEE17try_increase_infoEv, symObjAddr: 0x3F68, symBinAddr: 0x37958, symSize: 0xE8 }
  - { offsetInCU: 0x23788, offset: 0x2416FD, size: 0x8, addend: 0x0, symName: __ZN10robin_hood6detail5TableILb1ELm80ENSt3__112basic_stringIcNS2_11char_traitsIcEENS2_9allocatorIcEEEEdNS_4hashIS8_vEENS2_8equal_toIS8_EEE8initDataEm, symObjAddr: 0x3E80, symBinAddr: 0x37870, symSize: 0xE8 }
  - { offsetInCU: 0x23867, offset: 0x2417DC, size: 0x8, addend: 0x0, symName: __ZN10robin_hood6detail5TableILb1ELm80ENSt3__112basic_stringIcNS2_11char_traitsIcEENS2_9allocatorIcEEEEdNS_4hashIS8_vEENS2_8equal_toIS8_EEE17try_increase_infoEv, symObjAddr: 0x3F68, symBinAddr: 0x37958, symSize: 0xE8 }
  - { offsetInCU: 0x23872, offset: 0x2417E7, size: 0x8, addend: 0x0, symName: __ZN10robin_hood6detail5TableILb1ELm80ENSt3__112basic_stringIcNS2_11char_traitsIcEENS2_9allocatorIcEEEEdNS_4hashIS8_vEENS2_8equal_toIS8_EEE16rehashPowerOfTwoEmb, symObjAddr: 0x4050, symBinAddr: 0x37A40, symSize: 0x101 }
  - { offsetInCU: 0x23BEC, offset: 0x241B61, size: 0x8, addend: 0x0, symName: __ZN10robin_hood6detail5TableILb1ELm80ENSt3__112basic_stringIcNS2_11char_traitsIcEENS2_9allocatorIcEEEEdNS_4hashIS8_vEENS2_8equal_toIS8_EEE11insert_moveEONSD_8DataNodeISD_Lb1EEE, symObjAddr: 0x4182, symBinAddr: 0x37B42, symSize: 0x142 }
  - { offsetInCU: 0x51, offset: 0x241FD8, size: 0x8, addend: 0x0, symName: __ZN3tns9Constants14SwizzledPrefixE, symObjAddr: 0x2CE48, symBinAddr: 0x16C39E8, symSize: 0x0 }
  - { offsetInCU: 0x5375, offset: 0x2472FC, size: 0x8, addend: 0x0, symName: __GLOBAL__sub_I_Constants.cpp, symObjAddr: 0x110, symBinAddr: 0x37E3E, symSize: 0x38 }
  - { offsetInCU: 0x3611, offset: 0x24A970, size: 0x8, addend: 0x0, symName: __ZN3tns12SymbolLoader8instanceEv, symObjAddr: 0x0, symBinAddr: 0x37E80, symSize: 0x98 }
  - { offsetInCU: 0x3633, offset: 0x24A992, size: 0x8, addend: 0x0, symName: __ZZN3tns12SymbolLoader8instanceEvE6loader, symObjAddr: 0xA2810, symBinAddr: 0x16ACDF8, symSize: 0x0 }
  - { offsetInCU: 0x5944, offset: 0x24CCA3, size: 0x8, addend: 0x0, symName: __ZN3tns12SymbolLoaderD1Ev, symObjAddr: 0x98, symBinAddr: 0x37F18, symSize: 0x14 }
  - { offsetInCU: 0x59C1, offset: 0x24CD20, size: 0x8, addend: 0x0, symName: __ZN10robin_hood6detail5TableILb1ELm80EPKN3tns10ModuleMetaENSt3__110unique_ptrINS2_14SymbolResolverENS6_14default_deleteIS8_EEEENS_4hashIS5_vEENS6_8equal_toIS5_EEE7destroyEv, symObjAddr: 0x764, symBinAddr: 0x385E4, symSize: 0x3C }
  - { offsetInCU: 0x5E7E, offset: 0x24D1DD, size: 0x8, addend: 0x0, symName: __ZN3tns12SymbolLoader13resolveModuleEPKNS_10ModuleMetaE, symObjAddr: 0xAC, symBinAddr: 0x37F2C, symSize: 0x428 }
  - { offsetInCU: 0x6BD2, offset: 0x24DF31, size: 0x8, addend: 0x0, symName: __ZNK10robin_hood6detail5TableILb1ELm80EPKN3tns10ModuleMetaENSt3__110unique_ptrINS2_14SymbolResolverENS6_14default_deleteIS8_EEEENS_4hashIS5_vEENS6_8equal_toIS5_EEE7findIdxIS5_EEmRKT_, symObjAddr: 0x870, symBinAddr: 0x386F0, symSize: 0xD0 }
  - { offsetInCU: 0x6D4C, offset: 0x24E0AB, size: 0x8, addend: 0x0, symName: __ZNK3tns10ModuleMeta7getNameEv, symObjAddr: 0x4D4, symBinAddr: 0x38354, symSize: 0x66 }
  - { offsetInCU: 0x702F, offset: 0x24E38E, size: 0x8, addend: 0x0, symName: __ZNK3tns11LibraryMeta7getNameEv, symObjAddr: 0x53A, symBinAddr: 0x383BA, symSize: 0x66 }
  - { offsetInCU: 0x72EB, offset: 0x24E64A, size: 0x8, addend: 0x0, symName: __ZN10robin_hood6detail5TableILb1ELm80EPKN3tns10ModuleMetaENSt3__110unique_ptrINS2_14SymbolResolverENS6_14default_deleteIS8_EEEENS_4hashIS5_vEENS6_8equal_toIS5_EEE7emplaceIJRS5_SB_EEENS6_4pairINSG_4IterILb0EEEbEEDpOT_, symObjAddr: 0x5A0, symBinAddr: 0x38420, symSize: 0x11A }
  - { offsetInCU: 0x7E06, offset: 0x24F165, size: 0x8, addend: 0x0, symName: __ZN10robin_hood6detail5TableILb1ELm80EPKN3tns10ModuleMetaENSt3__110unique_ptrINS2_14SymbolResolverENS6_14default_deleteIS8_EEEENS_4hashIS5_vEENS6_8equal_toIS5_EEE25insertKeyPrepareEmptySpotIRKS5_EENS6_4pairImNSG_14InsertionStateEEEOT_, symObjAddr: 0xA88, symBinAddr: 0x38908, symSize: 0x160 }
  - { offsetInCU: 0x7FA0, offset: 0x24F2FF, size: 0x8, addend: 0x0, symName: __ZNK10robin_hood6detail5TableILb1ELm80EPKN3tns10ModuleMetaENSt3__110unique_ptrINS2_14SymbolResolverENS6_14default_deleteIS8_EEEENS_4hashIS5_vEENS6_8equal_toIS5_EEE18throwOverflowErrorEv, symObjAddr: 0xBE8, symBinAddr: 0x38A68, symSize: 0x4C }
  - { offsetInCU: 0x7FD4, offset: 0x24F333, size: 0x8, addend: 0x0, symName: __ZN3tns12SymbolLoader18loadFunctionSymbolEPKNS_10ModuleMetaEPKc, symObjAddr: 0x6BA, symBinAddr: 0x3853A, symSize: 0x3C }
  - { offsetInCU: 0x806D, offset: 0x24F3CC, size: 0x8, addend: 0x0, symName: __ZN3tns12SymbolLoader14loadDataSymbolEPKNS_10ModuleMetaEPKc, symObjAddr: 0x6F6, symBinAddr: 0x38576, symSize: 0x3E }
  - { offsetInCU: 0x80EF, offset: 0x24F44E, size: 0x8, addend: 0x0, symName: __ZN3tns12SymbolLoader12ensureModuleEPKNS_10ModuleMetaE, symObjAddr: 0x734, symBinAddr: 0x385B4, symSize: 0x30 }
  - { offsetInCU: 0x8160, offset: 0x24F4BF, size: 0x8, addend: 0x0, symName: __ZNK10robin_hood6detail5TableILb1ELm80EPKN3tns10ModuleMetaENSt3__110unique_ptrINS2_14SymbolResolverENS6_14default_deleteIS8_EEEENS_4hashIS5_vEENS6_8equal_toIS5_EEE9DestroyerISG_Lb0EE20nodesDoNotDeallocateERSG_, symObjAddr: 0x7AC, symBinAddr: 0x3862C, symSize: 0xC4 }
  - { offsetInCU: 0x8471, offset: 0x24F7D0, size: 0x8, addend: 0x0, symName: __ZN3tns22CFBundleSymbolResolver18loadFunctionSymbolEPKc, symObjAddr: 0x940, symBinAddr: 0x387C0, symSize: 0x4A }
  - { offsetInCU: 0x8533, offset: 0x24F892, size: 0x8, addend: 0x0, symName: __ZN3tns22CFBundleSymbolResolver14loadDataSymbolEPKc, symObjAddr: 0x98A, symBinAddr: 0x3880A, symSize: 0x4A }
  - { offsetInCU: 0x85C6, offset: 0x24F925, size: 0x8, addend: 0x0, symName: __ZN3tns22CFBundleSymbolResolver4loadEv, symObjAddr: 0x9D4, symBinAddr: 0x38854, symSize: 0x6A }
  - { offsetInCU: 0x8672, offset: 0x24F9D1, size: 0x8, addend: 0x0, symName: __ZN3tns22CFBundleSymbolResolverD1Ev, symObjAddr: 0xA3E, symBinAddr: 0x388BE, symSize: 0x6 }
  - { offsetInCU: 0x869D, offset: 0x24F9FC, size: 0x8, addend: 0x0, symName: __ZN3tns22CFBundleSymbolResolverD0Ev, symObjAddr: 0xA44, symBinAddr: 0x388C4, symSize: 0xA }
  - { offsetInCU: 0x86C8, offset: 0x24FA27, size: 0x8, addend: 0x0, symName: __ZN3tns16DlSymbolResolver18loadFunctionSymbolEPKc, symObjAddr: 0xA4E, symBinAddr: 0x388CE, symSize: 0xE }
  - { offsetInCU: 0x8709, offset: 0x24FA68, size: 0x8, addend: 0x0, symName: __ZN3tns16DlSymbolResolver14loadDataSymbolEPKc, symObjAddr: 0xA5C, symBinAddr: 0x388DC, symSize: 0xE }
  - { offsetInCU: 0x874A, offset: 0x24FAA9, size: 0x8, addend: 0x0, symName: __ZN3tns16DlSymbolResolver4loadEv, symObjAddr: 0xA6A, symBinAddr: 0x388EA, symSize: 0xE }
  - { offsetInCU: 0x876F, offset: 0x24FACE, size: 0x8, addend: 0x0, symName: __ZN3tns16DlSymbolResolverD1Ev, symObjAddr: 0xA78, symBinAddr: 0x388F8, symSize: 0x6 }
  - { offsetInCU: 0x879A, offset: 0x24FAF9, size: 0x8, addend: 0x0, symName: __ZN3tns16DlSymbolResolverD0Ev, symObjAddr: 0xA7E, symBinAddr: 0x388FE, symSize: 0xA }
  - { offsetInCU: 0x87F3, offset: 0x24FB52, size: 0x8, addend: 0x0, symName: __ZN10robin_hood6detail5TableILb1ELm80EPKN3tns10ModuleMetaENSt3__110unique_ptrINS2_14SymbolResolverENS6_14default_deleteIS8_EEEENS_4hashIS5_vEENS6_8equal_toIS5_EEE13increase_sizeEv, symObjAddr: 0xC34, symBinAddr: 0x38AB4, symSize: 0x108 }
  - { offsetInCU: 0x88AE, offset: 0x24FC0D, size: 0x8, addend: 0x0, symName: __ZN10robin_hood6detail5TableILb1ELm80EPKN3tns10ModuleMetaENSt3__110unique_ptrINS2_14SymbolResolverENS6_14default_deleteIS8_EEEENS_4hashIS5_vEENS6_8equal_toIS5_EEE7shiftUpEmm, symObjAddr: 0xD3C, symBinAddr: 0x38BBC, symSize: 0xD2 }
  - { offsetInCU: 0x8A77, offset: 0x24FDD6, size: 0x8, addend: 0x0, symName: __ZN10robin_hood6detail5TableILb1ELm80EPKN3tns10ModuleMetaENSt3__110unique_ptrINS2_14SymbolResolverENS6_14default_deleteIS8_EEEENS_4hashIS5_vEENS6_8equal_toIS5_EEE17try_increase_infoEv, symObjAddr: 0xEF6, symBinAddr: 0x38D76, symSize: 0xE8 }
  - { offsetInCU: 0x8B66, offset: 0x24FEC5, size: 0x8, addend: 0x0, symName: __ZN10robin_hood6detail5TableILb1ELm80EPKN3tns10ModuleMetaENSt3__110unique_ptrINS2_14SymbolResolverENS6_14default_deleteIS8_EEEENS_4hashIS5_vEENS6_8equal_toIS5_EEE8initDataEm, symObjAddr: 0xE0E, symBinAddr: 0x38C8E, symSize: 0xE8 }
  - { offsetInCU: 0x8C46, offset: 0x24FFA5, size: 0x8, addend: 0x0, symName: __ZN10robin_hood6detail5TableILb1ELm80EPKN3tns10ModuleMetaENSt3__110unique_ptrINS2_14SymbolResolverENS6_14default_deleteIS8_EEEENS_4hashIS5_vEENS6_8equal_toIS5_EEE17try_increase_infoEv, symObjAddr: 0xEF6, symBinAddr: 0x38D76, symSize: 0xE8 }
  - { offsetInCU: 0x8C50, offset: 0x24FFAF, size: 0x8, addend: 0x0, symName: __ZN10robin_hood6detail5TableILb1ELm80EPKN3tns10ModuleMetaENSt3__110unique_ptrINS2_14SymbolResolverENS6_14default_deleteIS8_EEEENS_4hashIS5_vEENS6_8equal_toIS5_EEE16rehashPowerOfTwoEmb, symObjAddr: 0xFDE, symBinAddr: 0x38E5E, symSize: 0x109 }
  - { offsetInCU: 0x8EFE, offset: 0x25025D, size: 0x8, addend: 0x0, symName: __ZN10robin_hood6detail5TableILb1ELm80EPKN3tns10ModuleMetaENSt3__110unique_ptrINS2_14SymbolResolverENS6_14default_deleteIS8_EEEENS_4hashIS5_vEENS6_8equal_toIS5_EEE11insert_moveEONSG_8DataNodeISG_Lb1EEE, symObjAddr: 0x1118, symBinAddr: 0x38F68, symSize: 0x144 }
  - { offsetInCU: 0x3325, offset: 0x253DF8, size: 0x8, addend: 0x0, symName: __ZN3tns22FastEnumerationAdapterEPN2v87IsolateEP11objc_objectP22NSFastEnumerationStatePS4_mPNS0_10PersistentINS0_8FunctionENS0_27NonCopyablePersistentTraitsIS9_EEEE, symObjAddr: 0x0, symBinAddr: 0x390B0, symSize: 0x5C0 }
  - { offsetInCU: 0xE2, offset: 0x257E0E, size: 0x8, addend: 0x0, symName: __ZN3tns30collectInheritanceChainMembersEPKcmNS_10MemberTypeEbPKNS_13BaseClassMetaENSt3__18functionIFvPKNS_10MemberMetaEEEE, symObjAddr: 0x11B9, symBinAddr: 0x3A609, symSize: 0x6DB }
  - { offsetInCU: 0x114, offset: 0x257E40, size: 0x8, addend: 0x0, symName: __ZZN3tns30collectInheritanceChainMembersEPKcmNS_10MemberTypeEbPKNS_13BaseClassMetaENSt3__18functionIFvPKNS_10MemberMetaEEEEE11nsObjectLen, symObjAddr: 0x1EAF90, symBinAddr: 0x16ACE78, symSize: 0x0 }
  - { offsetInCU: 0x1B8D, offset: 0x2598B9, size: 0x8, addend: 0x0, symName: __ZN3tnsL16metaFileInstanceE, symObjAddr: 0x1EAFA0, symBinAddr: 0x16ACE88, symSize: 0x0 }
  - { offsetInCU: 0x2686, offset: 0x25A3B2, size: 0x8, addend: 0x0, symName: __ZN3tns22LogMetadataUnavailableEPKchhS1_, symObjAddr: 0x0, symBinAddr: 0x39670, symSize: 0x1E }
  - { offsetInCU: 0x26F3, offset: 0x25A41F, size: 0x8, addend: 0x0, symName: __ZN3tns17getMetasByJSNamesENSt3__13setIPKNS_10MemberMetaENS0_4lessIS4_EENS0_9allocatorIS4_EEEE, symObjAddr: 0x1E, symBinAddr: 0x3968E, symSize: 0x1BE }
  - { offsetInCU: 0x1361F, offset: 0x26B34B, size: 0x8, addend: 0x0, symName: __ZNSt3__16vectorIPKN3tns12PropertyMetaENS_9allocatorIS4_EEE16__init_with_sizeB8ue170006IPS4_S9_EEvT_T0_m, symObjAddr: 0x37B8, symBinAddr: 0x3C308, symSize: 0x64 }
  - { offsetInCU: 0x13D5C, offset: 0x26BA88, size: 0x8, addend: 0x0, symName: __ZNSt3__120__throw_length_errorB8ue170006EPKc, symObjAddr: 0x35C0, symBinAddr: 0x3C190, symSize: 0x4C }
  - { offsetInCU: 0x141B1, offset: 0x26BEDD, size: 0x8, addend: 0x0, symName: __ZNSt3__127__tree_balance_after_insertB8ue170006IPNS_16__tree_node_baseIPvEEEEvT_S5_, symObjAddr: 0x4560, symBinAddr: 0x3CE70, symSize: 0x162 }
  - { offsetInCU: 0x159DC, offset: 0x26D708, size: 0x8, addend: 0x0, symName: __ZNK3tns10MethodMeta20isImplementedInClassEP10objc_classb, symObjAddr: 0x42A, symBinAddr: 0x39A9A, symSize: 0x238 }
  - { offsetInCU: 0x15A01, offset: 0x26D72D, size: 0x8, addend: 0x0, symName: __ZZNK3tns10MethodMeta20isImplementedInClassEP10objc_classbE15sampleInstances, symObjAddr: 0x1EAF50, symBinAddr: 0x16ACE38, symSize: 0x0 }
  - { offsetInCU: 0x17ED0, offset: 0x26FBFC, size: 0x8, addend: 0x0, symName: __ZN10robin_hood6detail7doThrowISt9bad_allocJEEEvDpOT0_, symObjAddr: 0x2FB0, symBinAddr: 0x3BF80, symSize: 0x32 }
  - { offsetInCU: 0x19F08, offset: 0x271C34, size: 0x8, addend: 0x0, symName: __ZNK3tns13BaseClassMeta7membersEPKcmNS_10MemberTypeEbbRKNSt3__16vectorIPKNS_12ProtocolMetaENS4_9allocatorIS8_EEEE, symObjAddr: 0xCD2, symBinAddr: 0x3A122, symSize: 0x4E7 }
  - { offsetInCU: 0x1E0A0, offset: 0x275DCC, size: 0x8, addend: 0x0, symName: __ZN10robin_hood6detail5TableILb1ELm80ENSt3__112basic_stringIcNS2_11char_traitsIcEENS2_9allocatorIcEEEENS2_3setIPKN3tns10MemberMetaENS2_4lessISD_EENS6_ISD_EEEENS_4hashIS8_vEENS2_8equal_toIS8_EEEixISH_EENS2_9enable_ifIXntsr3std7is_voidIT_EE5valueERSP_E4typeEOS8_, symObjAddr: 0x1DC, symBinAddr: 0x3984C, symSize: 0x176 }
  - { offsetInCU: 0x1E84B, offset: 0x276577, size: 0x8, addend: 0x0, symName: __ZNSt3__16__treeIPKN3tns10MemberMetaENS_4lessIS4_EENS_9allocatorIS4_EEE25__emplace_unique_key_argsIS4_JRKS4_EEENS_4pairINS_15__tree_iteratorIS4_PNS_11__tree_nodeIS4_PvEElEEbEERKT_DpOT0_, symObjAddr: 0x4490, symBinAddr: 0x3CDA0, symSize: 0x92 }
  - { offsetInCU: 0x1EA9C, offset: 0x2767C8, size: 0x8, addend: 0x0, symName: __ZN10robin_hood6detail5TableILb1ELm80ENSt3__112basic_stringIcNS2_11char_traitsIcEENS2_9allocatorIcEEEENS2_3setIPKN3tns10MemberMetaENS2_4lessISD_EENS6_ISD_EEEENS_4hashIS8_vEENS2_8equal_toIS8_EEE7destroyEv, symObjAddr: 0x3856, symBinAddr: 0x3C3A6, symSize: 0x3C }
  - { offsetInCU: 0x1F0B5, offset: 0x276DE1, size: 0x8, addend: 0x0, symName: __ZN10robin_hood6detail5TableILb1ELm80ENSt3__112basic_stringIcNS2_11char_traitsIcEENS2_9allocatorIcEEEENS2_3setIPKN3tns10MemberMetaENS2_4lessISD_EENS6_ISD_EEEENS_4hashIS8_vEENS2_8equal_toIS8_EEE25insertKeyPrepareEmptySpotIRS8_EENS2_4pairImNSM_14InsertionStateEEEOT_, symObjAddr: 0x39F0, symBinAddr: 0x3C4C0, symSize: 0x160 }
  - { offsetInCU: 0x1F1FD, offset: 0x276F29, size: 0x8, addend: 0x0, symName: __ZNK10robin_hood6detail5TableILb1ELm80ENSt3__112basic_stringIcNS2_11char_traitsIcEENS2_9allocatorIcEEEENS2_3setIPKN3tns10MemberMetaENS2_4lessISD_EENS6_ISD_EEEENS_4hashIS8_vEENS2_8equal_toIS8_EEE18throwOverflowErrorEv, symObjAddr: 0x3B50, symBinAddr: 0x3C620, symSize: 0x4C }
  - { offsetInCU: 0x1F30D, offset: 0x277039, size: 0x8, addend: 0x0, symName: __ZNK3tns4Meta11isAvailableEv, symObjAddr: 0x352, symBinAddr: 0x399C2, symSize: 0xD8 }
  - { offsetInCU: 0x1F510, offset: 0x27723C, size: 0x8, addend: 0x0, symName: __ZNK10robin_hood6detail5TableILb1ELm80EP10objc_classP11objc_objectNS_4hashIS3_vEENSt3__18equal_toIS3_EEE7findIdxIS3_EEmRKT_, symObjAddr: 0x46C2, symBinAddr: 0x3CFD2, symSize: 0xD0 }
  - { offsetInCU: 0x1F690, offset: 0x2773BC, size: 0x8, addend: 0x0, symName: __ZN10robin_hood6detail5TableILb1ELm80EP10objc_classP11objc_objectNS_4hashIS3_vEENSt3__18equal_toIS3_EEE7emplaceIJRS3_S5_EEENS8_4pairINSB_4IterILb0EEEbEEDpOT_, symObjAddr: 0x886, symBinAddr: 0x39D06, symSize: 0x92 }
  - { offsetInCU: 0x1FA65, offset: 0x277791, size: 0x8, addend: 0x0, symName: __ZNK10robin_hood6detail5TableILb1ELm80EPKN3tns10MethodMetaEP13objc_selectorNS_4hashIS5_vEENSt3__18equal_toIS5_EEE7findIdxIS5_EEmRKT_, symObjAddr: 0x28DC, symBinAddr: 0x3BC6C, symSize: 0xD0 }
  - { offsetInCU: 0x1FD65, offset: 0x277A91, size: 0x8, addend: 0x0, symName: __ZN10robin_hood6detail5TableILb1ELm80EP10objc_classP11objc_objectNS_4hashIS3_vEENSt3__18equal_toIS3_EEED1Ev, symObjAddr: 0x85E, symBinAddr: 0x39CDE, symSize: 0x28 }
  - { offsetInCU: 0x1FFCA, offset: 0x277CF6, size: 0x8, addend: 0x0, symName: __ZN10robin_hood6detail5TableILb1ELm80EP10objc_classP11objc_objectNS_4hashIS3_vEENSt3__18equal_toIS3_EEE25insertKeyPrepareEmptySpotIRKS3_EENS8_4pairImNSB_14InsertionStateEEEOT_, symObjAddr: 0x4792, symBinAddr: 0x3D0A2, symSize: 0x160 }
  - { offsetInCU: 0x20164, offset: 0x277E90, size: 0x8, addend: 0x0, symName: __ZNK10robin_hood6detail5TableILb1ELm80EP10objc_classP11objc_objectNS_4hashIS3_vEENSt3__18equal_toIS3_EEE18throwOverflowErrorEv, symObjAddr: 0x48F2, symBinAddr: 0x3D202, symSize: 0x4C }
  - { offsetInCU: 0x202F4, offset: 0x278020, size: 0x8, addend: 0x0, symName: __ZNK3tns13BaseClassMeta12protocolsSetEv, symObjAddr: 0x918, symBinAddr: 0x39D98, symSize: 0x144 }
  - { offsetInCU: 0x20DCD, offset: 0x278AF9, size: 0x8, addend: 0x0, symName: __ZNK3tns11GlobalTableILNS_15GlobalTableTypeE0EE12findProtocolEPKc, symObjAddr: 0x27C0, symBinAddr: 0x3BC10, symSize: 0x42 }
  - { offsetInCU: 0x20E84, offset: 0x278BB0, size: 0x8, addend: 0x0, symName: __ZNSt3__16__treeIPKN3tns12ProtocolMetaENS_4lessIS4_EENS_9allocatorIS4_EEE25__emplace_unique_key_argsIS4_JRKS4_EEENS_4pairINS_15__tree_iteratorIS4_PNS_11__tree_nodeIS4_PvEElEEbEERKT_DpOT0_, symObjAddr: 0x4ED4, symBinAddr: 0x3D7E4, symSize: 0x92 }
  - { offsetInCU: 0x210D5, offset: 0x278E01, size: 0x8, addend: 0x0, symName: __ZNSt3__16__treeIPKN3tns12ProtocolMetaENS_4lessIS4_EENS_9allocatorIS4_EEE7destroyEPNS_11__tree_nodeIS4_PvEE, symObjAddr: 0x4EA0, symBinAddr: 0x3D7B0, symSize: 0x34 }
  - { offsetInCU: 0x2121A, offset: 0x278F46, size: 0x8, addend: 0x0, symName: __ZNK3tns13BaseClassMeta16deepProtocolsSetEv, symObjAddr: 0xA5C, symBinAddr: 0x39EDC, symSize: 0x42 }
  - { offsetInCU: 0x213CA, offset: 0x2790F6, size: 0x8, addend: 0x0, symName: __ZNK3tns13BaseClassMeta16deepProtocolsSetERNSt3__13setIPKNS_12ProtocolMetaENS1_4lessIS5_EENS1_9allocatorIS5_EEEE, symObjAddr: 0xA9E, symBinAddr: 0x39F1E, symSize: 0x1A0 }
  - { offsetInCU: 0x220BE, offset: 0x279DEA, size: 0x8, addend: 0x0, symName: __ZNK3tns13BaseClassMeta6memberEPKcmNS_10MemberTypeEbbRKNSt3__16vectorIPKNS_12ProtocolMetaENS4_9allocatorIS8_EEEE, symObjAddr: 0xC78, symBinAddr: 0x3A0C8, symSize: 0x5A }
  - { offsetInCU: 0x22CA9, offset: 0x27A9D5, size: 0x8, addend: 0x0, symName: __ZNSt3__16__treeINS_12__value_typeIiPKN3tns10MemberMetaEEENS_19__map_value_compareIiS6_NS_4lessIiEELb1EEENS_9allocatorIS6_EEE7destroyEPNS_11__tree_nodeIS6_PvEE, symObjAddr: 0x5226, symBinAddr: 0x3DAE6, symSize: 0x34 }
  - { offsetInCU: 0x22DEE, offset: 0x27AB1A, size: 0x8, addend: 0x0, symName: __ZNSt3__13setIPKN3tns10MemberMetaENS_4lessIS4_EENS_9allocatorIS4_EEE6insertB8ue170006INS_21__tree_const_iteratorIS4_PNS_11__tree_nodeIS4_PvEElEEEEvT_SH_, symObjAddr: 0x549E, symBinAddr: 0x3DD5E, symSize: 0x66 }
  - { offsetInCU: 0x2346D, offset: 0x27B199, size: 0x8, addend: 0x0, symName: __ZNK3tns5ArrayINS_5PtrToINS_10MemberMetaEEEE20binarySearchLeftmostENSt3__18functionIFiRKS3_EEE, symObjAddr: 0x1894, symBinAddr: 0x3ACE4, symSize: 0xE6 }
  - { offsetInCU: 0x236CA, offset: 0x27B3F6, size: 0x8, addend: 0x0, symName: __ZNSt3__110__function12__value_funcIFvPKN3tns10MemberMetaEEEC2B8ue170006ERKS7_, symObjAddr: 0x51DA, symBinAddr: 0x3DA9A, symSize: 0x4C }
  - { offsetInCU: 0x237E5, offset: 0x27B511, size: 0x8, addend: 0x0, symName: __ZNSt3__110__function12__value_funcIFiRKN3tns5PtrToINS2_10MemberMetaEEEEEC2B8ue170006ERKS9_, symObjAddr: 0x502C, symBinAddr: 0x3D93C, symSize: 0x4C }
  - { offsetInCU: 0x23838, offset: 0x27B564, size: 0x8, addend: 0x0, symName: __ZNK3tns5ArrayINS_5PtrToINS_10MemberMetaEEEE12binarySearchENSt3__18functionIFiRKS3_EEE, symObjAddr: 0x4FA4, symBinAddr: 0x3D8B4, symSize: 0x88 }
  - { offsetInCU: 0x23928, offset: 0x27B654, size: 0x8, addend: 0x0, symName: __ZNSt3__110__function12__value_funcIFiRKN3tns5PtrToINS2_10MemberMetaEEEEEC2B8ue170006ERKS9_, symObjAddr: 0x502C, symBinAddr: 0x3D93C, symSize: 0x4C }
  - { offsetInCU: 0x23A2B, offset: 0x27B757, size: 0x8, addend: 0x0, symName: __ZNK3tns13BaseClassMeta31instancePropertiesWithProtocolsERNSt3__16vectorIPKNS_12PropertyMetaENS1_9allocatorIS5_EEEENS_21KnownUnknownClassPairERKNS2_IPKNS_12ProtocolMetaENS6_ISD_EEEE, symObjAddr: 0x197A, symBinAddr: 0x3ADCA, symSize: 0x252 }
  - { offsetInCU: 0x24AAF, offset: 0x27C7DB, size: 0x8, addend: 0x0, symName: __ZNK3tns13BaseClassMeta18instancePropertiesERNSt3__16vectorIPKNS_12PropertyMetaENS1_9allocatorIS5_EEEENS_21KnownUnknownClassPairE, symObjAddr: 0x1BCC, symBinAddr: 0x3B01C, symSize: 0x2CA }
  - { offsetInCU: 0x25A04, offset: 0x27D730, size: 0x8, addend: 0x0, symName: __ZNK3tns13BaseClassMeta29staticPropertiesWithProtocolsERNSt3__16vectorIPKNS_12PropertyMetaENS1_9allocatorIS5_EEEENS_21KnownUnknownClassPairERKNS2_IPKNS_12ProtocolMetaENS6_ISD_EEEE, symObjAddr: 0x1E96, symBinAddr: 0x3B2E6, symSize: 0x252 }
  - { offsetInCU: 0x25A0F, offset: 0x27D73B, size: 0x8, addend: 0x0, symName: __ZNSt3__16vectorIPKN3tns12PropertyMetaENS_9allocatorIS4_EEE16__init_with_sizeB8ue170006IPS4_S9_EEvT_T0_m, symObjAddr: 0x37B8, symBinAddr: 0x3C308, symSize: 0x64 }
  - { offsetInCU: 0x26329, offset: 0x27E055, size: 0x8, addend: 0x0, symName: __ZNK3tns12PropertyMeta20isImplementedInClassEP10objc_classb, symObjAddr: 0x3660, symBinAddr: 0x3C1E0, symSize: 0x11A }
  - { offsetInCU: 0x267D6, offset: 0x27E502, size: 0x8, addend: 0x0, symName: __ZNK3tns13BaseClassMeta29staticPropertiesWithProtocolsERNSt3__16vectorIPKNS_12PropertyMetaENS1_9allocatorIS5_EEEENS_21KnownUnknownClassPairERKNS2_IPKNS_12ProtocolMetaENS6_ISD_EEEE, symObjAddr: 0x1E96, symBinAddr: 0x3B2E6, symSize: 0x252 }
  - { offsetInCU: 0x277F6, offset: 0x27F522, size: 0x8, addend: 0x0, symName: __ZNK3tns13BaseClassMeta16staticPropertiesERNSt3__16vectorIPKNS_12PropertyMetaENS1_9allocatorIS5_EEEENS_21KnownUnknownClassPairE, symObjAddr: 0x20E8, symBinAddr: 0x3B538, symSize: 0x2D0 }
  - { offsetInCU: 0x2874B, offset: 0x280477, size: 0x8, addend: 0x0, symName: __ZNK3tns13BaseClassMeta12initializersERNSt3__16vectorIPKNS_10MethodMetaENS1_9allocatorIS5_EEEENS_21KnownUnknownClassPairE, symObjAddr: 0x23B8, symBinAddr: 0x3B808, symSize: 0x20A }
  - { offsetInCU: 0x28C04, offset: 0x280930, size: 0x8, addend: 0x0, symName: __ZNK3tns13BaseClassMeta12initializersERNSt3__16vectorIPKNS_10MethodMetaENS1_9allocatorIS5_EEEENS_21KnownUnknownClassPairE, symObjAddr: 0x23B8, symBinAddr: 0x3B808, symSize: 0x20A }
  - { offsetInCU: 0x2956F, offset: 0x28129B, size: 0x8, addend: 0x0, symName: __ZNK3tns13BaseClassMeta25initializersWithProtocolsERNSt3__16vectorIPKNS_10MethodMetaENS1_9allocatorIS5_EEEENS_21KnownUnknownClassPairERKNS2_IPKNS_12ProtocolMetaENS6_ISD_EEEE, symObjAddr: 0x25C2, symBinAddr: 0x3BA12, symSize: 0x1F0 }
  - { offsetInCU: 0x298CA, offset: 0x2815F6, size: 0x8, addend: 0x0, symName: __ZNK3tns13BaseClassMeta25initializersWithProtocolsERNSt3__16vectorIPKNS_10MethodMetaENS1_9allocatorIS5_EEEENS_21KnownUnknownClassPairERKNS2_IPKNS_12ProtocolMetaENS6_ISD_EEEE, symObjAddr: 0x25C2, symBinAddr: 0x3BA12, symSize: 0x1F0 }
  - { offsetInCU: 0x2A59C, offset: 0x2822C8, size: 0x8, addend: 0x0, symName: __ZN3tns8MetaFile8instanceEv, symObjAddr: 0x27B2, symBinAddr: 0x3BC02, symSize: 0xE }
  - { offsetInCU: 0x2A6A1, offset: 0x2823CD, size: 0x8, addend: 0x0, symName: __ZNK3tns11GlobalTableILNS_15GlobalTableTypeE0EE8findMetaEPKcmjb, symObjAddr: 0x3380, symBinAddr: 0x3BFC0, symSize: 0x1B8 }
  - { offsetInCU: 0x2AF06, offset: 0x282C32, size: 0x8, addend: 0x0, symName: __ZN3tns8MetaFile11setInstanceEPv, symObjAddr: 0x2802, symBinAddr: 0x3BC52, symSize: 0x10 }
  - { offsetInCU: 0x2B0F3, offset: 0x282E1F, size: 0x8, addend: 0x0, symName: __ZN10robin_hood6detail5TableILb1ELm80EPKN3tns10MethodMetaEP13objc_selectorNS_4hashIS5_vEENSt3__18equal_toIS5_EEE25insertKeyPrepareEmptySpotIRKS5_EENSA_4pairImNSD_14InsertionStateEEEOT_, symObjAddr: 0x29AC, symBinAddr: 0x3BD3C, symSize: 0x160 }
  - { offsetInCU: 0x2B28D, offset: 0x282FB9, size: 0x8, addend: 0x0, symName: __ZNK10robin_hood6detail5TableILb1ELm80EPKN3tns10MethodMetaEP13objc_selectorNS_4hashIS5_vEENSt3__18equal_toIS5_EEE18throwOverflowErrorEv, symObjAddr: 0x2B0C, symBinAddr: 0x3BE9C, symSize: 0x4C }
  - { offsetInCU: 0x2B450, offset: 0x28317C, size: 0x8, addend: 0x0, symName: __ZN10robin_hood6detail5TableILb1ELm80EPKN3tns10MethodMetaEP13objc_selectorNS_4hashIS5_vEENSt3__18equal_toIS5_EEE7shiftUpEmm, symObjAddr: 0x2C60, symBinAddr: 0x3BEF0, symSize: 0x8E }
  - { offsetInCU: 0x2C1A0, offset: 0x283ECC, size: 0x8, addend: 0x0, symName: __ZNKSt3__112basic_stringIcNS_11char_traitsIcEENS_9allocatorIcEEE20__throw_length_errorB8ue170006Ev, symObjAddr: 0x35B0, symBinAddr: 0x3C180, symSize: 0x10 }
  - { offsetInCU: 0x2C1C9, offset: 0x283EF5, size: 0x8, addend: 0x0, symName: __ZNSt3__120__throw_length_errorB8ue170006EPKc, symObjAddr: 0x35C0, symBinAddr: 0x3C190, symSize: 0x4C }
  - { offsetInCU: 0x2C414, offset: 0x284140, size: 0x8, addend: 0x0, symName: __ZNSt3__16vectorIPKN3tns12PropertyMetaENS_9allocatorIS4_EEE11__vallocateB8ue170006Em, symObjAddr: 0x381C, symBinAddr: 0x3C36C, symSize: 0x3A }
  - { offsetInCU: 0x2C4B3, offset: 0x2841DF, size: 0x8, addend: 0x0, symName: __ZNK10robin_hood6detail5TableILb1ELm80ENSt3__112basic_stringIcNS2_11char_traitsIcEENS2_9allocatorIcEEEENS2_3setIPKN3tns10MemberMetaENS2_4lessISD_EENS6_ISD_EEEENS_4hashIS8_vEENS2_8equal_toIS8_EEE9DestroyerISM_Lb0EE20nodesDoNotDeallocateERSM_, symObjAddr: 0x3892, symBinAddr: 0x3C3E2, symSize: 0xDE }
  - { offsetInCU: 0x2CA7F, offset: 0x2847AB, size: 0x8, addend: 0x0, symName: __ZN10robin_hood6detail5TableILb1ELm80ENSt3__112basic_stringIcNS2_11char_traitsIcEENS2_9allocatorIcEEEENS2_3setIPKN3tns10MemberMetaENS2_4lessISD_EENS6_ISD_EEEENS_4hashIS8_vEENS2_8equal_toIS8_EEE13increase_sizeEv, symObjAddr: 0x3C28, symBinAddr: 0x3C678, symSize: 0x108 }
  - { offsetInCU: 0x2CB3A, offset: 0x284866, size: 0x8, addend: 0x0, symName: __ZN10robin_hood6detail5TableILb1ELm80ENSt3__112basic_stringIcNS2_11char_traitsIcEENS2_9allocatorIcEEEENS2_3setIPKN3tns10MemberMetaENS2_4lessISD_EENS6_ISD_EEEENS_4hashIS8_vEENS2_8equal_toIS8_EEE7shiftUpEmm, symObjAddr: 0x3D30, symBinAddr: 0x3C780, symSize: 0x150 }
  - { offsetInCU: 0x2CE4A, offset: 0x284B76, size: 0x8, addend: 0x0, symName: __ZN10robin_hood6detail5TableILb1ELm80ENSt3__112basic_stringIcNS2_11char_traitsIcEENS2_9allocatorIcEEEENS2_3setIPKN3tns10MemberMetaENS2_4lessISD_EENS6_ISD_EEEENS_4hashIS8_vEENS2_8equal_toIS8_EEE17try_increase_infoEv, symObjAddr: 0x4084, symBinAddr: 0x3C9C4, symSize: 0xE8 }
  - { offsetInCU: 0x2CF39, offset: 0x284C65, size: 0x8, addend: 0x0, symName: __ZN10robin_hood6detail5TableILb1ELm80ENSt3__112basic_stringIcNS2_11char_traitsIcEENS2_9allocatorIcEEEENS2_3setIPKN3tns10MemberMetaENS2_4lessISD_EENS6_ISD_EEEENS_4hashIS8_vEENS2_8equal_toIS8_EEE8initDataEm, symObjAddr: 0x3F9C, symBinAddr: 0x3C8DC, symSize: 0xE8 }
  - { offsetInCU: 0x2D018, offset: 0x284D44, size: 0x8, addend: 0x0, symName: __ZN10robin_hood6detail5TableILb1ELm80ENSt3__112basic_stringIcNS2_11char_traitsIcEENS2_9allocatorIcEEEENS2_3setIPKN3tns10MemberMetaENS2_4lessISD_EENS6_ISD_EEEENS_4hashIS8_vEENS2_8equal_toIS8_EEE17try_increase_infoEv, symObjAddr: 0x4084, symBinAddr: 0x3C9C4, symSize: 0xE8 }
  - { offsetInCU: 0x2D023, offset: 0x284D4F, size: 0x8, addend: 0x0, symName: __ZN10robin_hood6detail5TableILb1ELm80ENSt3__112basic_stringIcNS2_11char_traitsIcEENS2_9allocatorIcEEEENS2_3setIPKN3tns10MemberMetaENS2_4lessISD_EENS6_ISD_EEEENS_4hashIS8_vEENS2_8equal_toIS8_EEE16rehashPowerOfTwoEmb, symObjAddr: 0x416C, symBinAddr: 0x3CAAC, symSize: 0x10E }
  - { offsetInCU: 0x2D520, offset: 0x28524C, size: 0x8, addend: 0x0, symName: __ZNSt3__16__treeIPKN3tns10MemberMetaENS_4lessIS4_EENS_9allocatorIS4_EEE13__move_assignERS9_NS_17integral_constantIbLb1EEE, symObjAddr: 0x4402, symBinAddr: 0x3CD42, symSize: 0x5A }
  - { offsetInCU: 0x2D5BC, offset: 0x2852E8, size: 0x8, addend: 0x0, symName: __ZN10robin_hood6detail5TableILb1ELm80ENSt3__112basic_stringIcNS2_11char_traitsIcEENS2_9allocatorIcEEEENS2_3setIPKN3tns10MemberMetaENS2_4lessISD_EENS6_ISD_EEEENS_4hashIS8_vEENS2_8equal_toIS8_EEE11insert_moveEONSM_8DataNodeISM_Lb1EEE, symObjAddr: 0x427A, symBinAddr: 0x3CBBA, symSize: 0x188 }
  - { offsetInCU: 0x2DC14, offset: 0x285940, size: 0x8, addend: 0x0, symName: __ZNSt3__16__treeIPKN3tns10MemberMetaENS_4lessIS4_EENS_9allocatorIS4_EEE16__insert_node_atEPNS_15__tree_end_nodeIPNS_16__tree_node_baseIPvEEEERSE_SE_, symObjAddr: 0x4522, symBinAddr: 0x3CE32, symSize: 0x3E }
  - { offsetInCU: 0x2DDC5, offset: 0x285AF1, size: 0x8, addend: 0x0, symName: __ZN10robin_hood6detail5TableILb1ELm80EP10objc_classP11objc_objectNS_4hashIS3_vEENSt3__18equal_toIS3_EEE13increase_sizeEv, symObjAddr: 0x493E, symBinAddr: 0x3D24E, symSize: 0x108 }
  - { offsetInCU: 0x2DE80, offset: 0x285BAC, size: 0x8, addend: 0x0, symName: __ZN10robin_hood6detail5TableILb1ELm80EP10objc_classP11objc_objectNS_4hashIS3_vEENSt3__18equal_toIS3_EEE7shiftUpEmm, symObjAddr: 0x4A46, symBinAddr: 0x3D356, symSize: 0x8E }
  - { offsetInCU: 0x2DF0B, offset: 0x285C37, size: 0x8, addend: 0x0, symName: __ZN10robin_hood6detail5TableILb1ELm80EP10objc_classP11objc_objectNS_4hashIS3_vEENSt3__18equal_toIS3_EEE17try_increase_infoEv, symObjAddr: 0x4BBC, symBinAddr: 0x3D4CC, symSize: 0xE8 }
  - { offsetInCU: 0x2DFFA, offset: 0x285D26, size: 0x8, addend: 0x0, symName: __ZN10robin_hood6detail5TableILb1ELm80EP10objc_classP11objc_objectNS_4hashIS3_vEENSt3__18equal_toIS3_EEE8initDataEm, symObjAddr: 0x4AD4, symBinAddr: 0x3D3E4, symSize: 0xE8 }
  - { offsetInCU: 0x2E0D9, offset: 0x285E05, size: 0x8, addend: 0x0, symName: __ZN10robin_hood6detail5TableILb1ELm80EP10objc_classP11objc_objectNS_4hashIS3_vEENSt3__18equal_toIS3_EEE17try_increase_infoEv, symObjAddr: 0x4BBC, symBinAddr: 0x3D4CC, symSize: 0xE8 }
  - { offsetInCU: 0x2E0E4, offset: 0x285E10, size: 0x8, addend: 0x0, symName: __ZN10robin_hood6detail5TableILb1ELm80EP10objc_classP11objc_objectNS_4hashIS3_vEENSt3__18equal_toIS3_EEE16rehashPowerOfTwoEmb, symObjAddr: 0x4CA4, symBinAddr: 0x3D5B4, symSize: 0xF2 }
  - { offsetInCU: 0x2E22A, offset: 0x285F56, size: 0x8, addend: 0x0, symName: __ZN10robin_hood6detail5TableILb1ELm80EP10objc_classP11objc_objectNS_4hashIS3_vEENSt3__18equal_toIS3_EEE11insert_moveEONSB_8DataNodeISB_Lb1EEE, symObjAddr: 0x4D96, symBinAddr: 0x3D6A6, symSize: 0x10A }
  - { offsetInCU: 0x2E586, offset: 0x2862B2, size: 0x8, addend: 0x0, symName: __ZNSt3__16__treeIPKN3tns12ProtocolMetaENS_4lessIS4_EENS_9allocatorIS4_EEE16__insert_node_atEPNS_15__tree_end_nodeIPNS_16__tree_node_baseIPvEEEERSE_SE_, symObjAddr: 0x4F66, symBinAddr: 0x3D876, symSize: 0x3E }
  - { offsetInCU: 0x2E630, offset: 0x28635C, size: 0x8, addend: 0x0, symName: '__ZNSt3__110__function6__funcIZN3tns30collectInheritanceChainMembersEPKcmNS2_10MemberTypeEbPKNS2_13BaseClassMetaENS_8functionIFvPKNS2_10MemberMetaEEEEE3$_2NS_9allocatorISF_EEFiRKNS2_5PtrToISA_EEEED1Ev', symObjAddr: 0x50D0, symBinAddr: 0x3D990, symSize: 0x6 }
  - { offsetInCU: 0x2E65A, offset: 0x286386, size: 0x8, addend: 0x0, symName: '__ZNSt3__110__function6__funcIZN3tns30collectInheritanceChainMembersEPKcmNS2_10MemberTypeEbPKNS2_13BaseClassMetaENS_8functionIFvPKNS2_10MemberMetaEEEEE3$_2NS_9allocatorISF_EEFiRKNS2_5PtrToISA_EEEED0Ev', symObjAddr: 0x50D6, symBinAddr: 0x3D996, symSize: 0xA }
  - { offsetInCU: 0x2E860, offset: 0x28658C, size: 0x8, addend: 0x0, symName: '__ZNKSt3__110__function6__funcIZN3tns30collectInheritanceChainMembersEPKcmNS2_10MemberTypeEbPKNS2_13BaseClassMetaENS_8functionIFvPKNS2_10MemberMetaEEEEE3$_2NS_9allocatorISF_EEFiRKNS2_5PtrToISA_EEEE7__cloneEv', symObjAddr: 0x50E0, symBinAddr: 0x3D9A0, symSize: 0x2C }
  - { offsetInCU: 0x2EB80, offset: 0x2868AC, size: 0x8, addend: 0x0, symName: '__ZNKSt3__110__function6__funcIZN3tns30collectInheritanceChainMembersEPKcmNS2_10MemberTypeEbPKNS2_13BaseClassMetaENS_8functionIFvPKNS2_10MemberMetaEEEEE3$_2NS_9allocatorISF_EEFiRKNS2_5PtrToISA_EEEE7__cloneEPNS0_6__baseISM_EE', symObjAddr: 0x510C, symBinAddr: 0x3D9CC, symSize: 0x18 }
  - { offsetInCU: 0x2ECFB, offset: 0x286A27, size: 0x8, addend: 0x0, symName: '__ZNSt3__110__function6__funcIZN3tns30collectInheritanceChainMembersEPKcmNS2_10MemberTypeEbPKNS2_13BaseClassMetaENS_8functionIFvPKNS2_10MemberMetaEEEEE3$_2NS_9allocatorISF_EEFiRKNS2_5PtrToISA_EEEE7destroyEv', symObjAddr: 0x5124, symBinAddr: 0x3D9E4, symSize: 0x6 }
  - { offsetInCU: 0x2ED4C, offset: 0x286A78, size: 0x8, addend: 0x0, symName: '__ZNSt3__110__function6__funcIZN3tns30collectInheritanceChainMembersEPKcmNS2_10MemberTypeEbPKNS2_13BaseClassMetaENS_8functionIFvPKNS2_10MemberMetaEEEEE3$_2NS_9allocatorISF_EEFiRKNS2_5PtrToISA_EEEE18destroy_deallocateEv', symObjAddr: 0x512A, symBinAddr: 0x3D9EA, symSize: 0xA }
  - { offsetInCU: 0x2EEB0, offset: 0x286BDC, size: 0x8, addend: 0x0, symName: '__ZNSt3__110__function6__funcIZN3tns30collectInheritanceChainMembersEPKcmNS2_10MemberTypeEbPKNS2_13BaseClassMetaENS_8functionIFvPKNS2_10MemberMetaEEEEE3$_2NS_9allocatorISF_EEFiRKNS2_5PtrToISA_EEEEclESL_', symObjAddr: 0x5134, symBinAddr: 0x3D9F4, symSize: 0xA6 }
  - { offsetInCU: 0x2F35D, offset: 0x287089, size: 0x8, addend: 0x0, symName: '__ZNSt3__110__function6__funcIZNK3tns13BaseClassMeta7membersEPKcmNS2_10MemberTypeEbbRKNS_6vectorIPKNS2_12ProtocolMetaENS_9allocatorISA_EEEEE3$_3NSB_ISG_EEFvPKNS2_10MemberMetaEEED1Ev', symObjAddr: 0x525A, symBinAddr: 0x3DB1A, symSize: 0x6 }
  - { offsetInCU: 0x2F387, offset: 0x2870B3, size: 0x8, addend: 0x0, symName: '__ZNSt3__110__function6__funcIZNK3tns13BaseClassMeta7membersEPKcmNS2_10MemberTypeEbbRKNS_6vectorIPKNS2_12ProtocolMetaENS_9allocatorISA_EEEEE3$_3NSB_ISG_EEFvPKNS2_10MemberMetaEEED0Ev', symObjAddr: 0x5260, symBinAddr: 0x3DB20, symSize: 0xA }
  - { offsetInCU: 0x2F58D, offset: 0x2872B9, size: 0x8, addend: 0x0, symName: '__ZNKSt3__110__function6__funcIZNK3tns13BaseClassMeta7membersEPKcmNS2_10MemberTypeEbbRKNS_6vectorIPKNS2_12ProtocolMetaENS_9allocatorISA_EEEEE3$_3NSB_ISG_EEFvPKNS2_10MemberMetaEEE7__cloneEv', symObjAddr: 0x526A, symBinAddr: 0x3DB2A, symSize: 0x2C }
  - { offsetInCU: 0x2F8AD, offset: 0x2875D9, size: 0x8, addend: 0x0, symName: '__ZNKSt3__110__function6__funcIZNK3tns13BaseClassMeta7membersEPKcmNS2_10MemberTypeEbbRKNS_6vectorIPKNS2_12ProtocolMetaENS_9allocatorISA_EEEEE3$_3NSB_ISG_EEFvPKNS2_10MemberMetaEEE7__cloneEPNS0_6__baseISL_EE', symObjAddr: 0x5296, symBinAddr: 0x3DB56, symSize: 0x18 }
  - { offsetInCU: 0x2FA28, offset: 0x287754, size: 0x8, addend: 0x0, symName: '__ZNSt3__110__function6__funcIZNK3tns13BaseClassMeta7membersEPKcmNS2_10MemberTypeEbbRKNS_6vectorIPKNS2_12ProtocolMetaENS_9allocatorISA_EEEEE3$_3NSB_ISG_EEFvPKNS2_10MemberMetaEEE7destroyEv', symObjAddr: 0x52AE, symBinAddr: 0x3DB6E, symSize: 0x6 }
  - { offsetInCU: 0x2FA79, offset: 0x2877A5, size: 0x8, addend: 0x0, symName: '__ZNSt3__110__function6__funcIZNK3tns13BaseClassMeta7membersEPKcmNS2_10MemberTypeEbbRKNS_6vectorIPKNS2_12ProtocolMetaENS_9allocatorISA_EEEEE3$_3NSB_ISG_EEFvPKNS2_10MemberMetaEEE18destroy_deallocateEv', symObjAddr: 0x52B4, symBinAddr: 0x3DB74, symSize: 0xA }
  - { offsetInCU: 0x2FCA9, offset: 0x2879D5, size: 0x8, addend: 0x0, symName: '__ZNSt3__110__function6__funcIZNK3tns13BaseClassMeta7membersEPKcmNS2_10MemberTypeEbbRKNS_6vectorIPKNS2_12ProtocolMetaENS_9allocatorISA_EEEEE3$_3NSB_ISG_EEFvPKNS2_10MemberMetaEEEclEOSK_', symObjAddr: 0x52BE, symBinAddr: 0x3DB7E, symSize: 0x7C }
  - { offsetInCU: 0x30082, offset: 0x287DAE, size: 0x8, addend: 0x0, symName: __ZNSt3__16__treeINS_12__value_typeIiPKN3tns10MemberMetaEEENS_19__map_value_compareIiS6_NS_4lessIiEELb1EEENS_9allocatorIS6_EEE25__emplace_unique_key_argsIiJRiRS5_EEENS_4pairINS_15__tree_iteratorIS6_PNS_11__tree_nodeIS6_PvEElEEbEERKT_DpOT0_, symObjAddr: 0x533A, symBinAddr: 0x3DBFA, symSize: 0x9E }
  - { offsetInCU: 0x3060B, offset: 0x288337, size: 0x8, addend: 0x0, symName: __ZNSt3__16__treeINS_12__value_typeIiPKN3tns10MemberMetaEEENS_19__map_value_compareIiS6_NS_4lessIiEELb1EEENS_9allocatorIS6_EEE16__insert_node_atEPNS_15__tree_end_nodeIPNS_16__tree_node_baseIPvEEEERSI_SI_, symObjAddr: 0x53D8, symBinAddr: 0x3DC98, symSize: 0x3E }
  - { offsetInCU: 0x30671, offset: 0x28839D, size: 0x8, addend: 0x0, symName: '__ZNSt3__110__function6__funcIZNK3tns13BaseClassMeta7membersEPKcmNS2_10MemberTypeEbbRKNS_6vectorIPKNS2_12ProtocolMetaENS_9allocatorISA_EEEEE3$_4NSB_ISG_EEFvPKNS2_10MemberMetaEEED1Ev', symObjAddr: 0x5416, symBinAddr: 0x3DCD6, symSize: 0x6 }
  - { offsetInCU: 0x3069B, offset: 0x2883C7, size: 0x8, addend: 0x0, symName: '__ZNSt3__110__function6__funcIZNK3tns13BaseClassMeta7membersEPKcmNS2_10MemberTypeEbbRKNS_6vectorIPKNS2_12ProtocolMetaENS_9allocatorISA_EEEEE3$_4NSB_ISG_EEFvPKNS2_10MemberMetaEEED0Ev', symObjAddr: 0x541C, symBinAddr: 0x3DCDC, symSize: 0xA }
  - { offsetInCU: 0x308A1, offset: 0x2885CD, size: 0x8, addend: 0x0, symName: '__ZNKSt3__110__function6__funcIZNK3tns13BaseClassMeta7membersEPKcmNS2_10MemberTypeEbbRKNS_6vectorIPKNS2_12ProtocolMetaENS_9allocatorISA_EEEEE3$_4NSB_ISG_EEFvPKNS2_10MemberMetaEEE7__cloneEv', symObjAddr: 0x5426, symBinAddr: 0x3DCE6, symSize: 0x2C }
  - { offsetInCU: 0x30BC1, offset: 0x2888ED, size: 0x8, addend: 0x0, symName: '__ZNKSt3__110__function6__funcIZNK3tns13BaseClassMeta7membersEPKcmNS2_10MemberTypeEbbRKNS_6vectorIPKNS2_12ProtocolMetaENS_9allocatorISA_EEEEE3$_4NSB_ISG_EEFvPKNS2_10MemberMetaEEE7__cloneEPNS0_6__baseISL_EE', symObjAddr: 0x5452, symBinAddr: 0x3DD12, symSize: 0x18 }
  - { offsetInCU: 0x30D3C, offset: 0x288A68, size: 0x8, addend: 0x0, symName: '__ZNSt3__110__function6__funcIZNK3tns13BaseClassMeta7membersEPKcmNS2_10MemberTypeEbbRKNS_6vectorIPKNS2_12ProtocolMetaENS_9allocatorISA_EEEEE3$_4NSB_ISG_EEFvPKNS2_10MemberMetaEEE7destroyEv', symObjAddr: 0x546A, symBinAddr: 0x3DD2A, symSize: 0x6 }
  - { offsetInCU: 0x30D8D, offset: 0x288AB9, size: 0x8, addend: 0x0, symName: '__ZNSt3__110__function6__funcIZNK3tns13BaseClassMeta7membersEPKcmNS2_10MemberTypeEbbRKNS_6vectorIPKNS2_12ProtocolMetaENS_9allocatorISA_EEEEE3$_4NSB_ISG_EEFvPKNS2_10MemberMetaEEE18destroy_deallocateEv', symObjAddr: 0x5470, symBinAddr: 0x3DD30, symSize: 0xA }
  - { offsetInCU: 0x30EDB, offset: 0x288C07, size: 0x8, addend: 0x0, symName: '__ZNSt3__110__function6__funcIZNK3tns13BaseClassMeta7membersEPKcmNS2_10MemberTypeEbbRKNS_6vectorIPKNS2_12ProtocolMetaENS_9allocatorISA_EEEEE3$_4NSB_ISG_EEFvPKNS2_10MemberMetaEEEclEOSK_', symObjAddr: 0x547A, symBinAddr: 0x3DD3A, symSize: 0x24 }
  - { offsetInCU: 0x31055, offset: 0x288D81, size: 0x8, addend: 0x0, symName: __ZNSt3__16__treeIPKN3tns10MemberMetaENS_4lessIS4_EENS_9allocatorIS4_EEE30__emplace_hint_unique_key_argsIS4_JRKS4_EEENS_4pairINS_15__tree_iteratorIS4_PNS_11__tree_nodeIS4_PvEElEEbEENS_21__tree_const_iteratorIS4_SI_lEERKT_DpOT0_, symObjAddr: 0x5504, symBinAddr: 0x3DDC4, symSize: 0x6C }
  - { offsetInCU: 0x3125B, offset: 0x288F87, size: 0x8, addend: 0x0, symName: __ZNSt3__16__treeIPKN3tns10MemberMetaENS_4lessIS4_EENS_9allocatorIS4_EEE12__find_equalIS4_EERPNS_16__tree_node_baseIPvEENS_21__tree_const_iteratorIS4_PNS_11__tree_nodeIS4_SC_EElEERPNS_15__tree_end_nodeISE_EESF_RKT_, symObjAddr: 0x5570, symBinAddr: 0x3DE30, symSize: 0x12E }
  - { offsetInCU: 0x26, offset: 0x28976F, size: 0x8, addend: 0x0, symName: __ZN4rnv815createV8RuntimeEv, symObjAddr: 0x0, symBinAddr: 0x3DF5E, symSize: 0x3D }
  - { offsetInCU: 0x5024, offset: 0x28E76D, size: 0x8, addend: 0x0, symName: __ZN4rnv815createV8RuntimeEv, symObjAddr: 0x0, symBinAddr: 0x3DF5E, symSize: 0x3D }
  - { offsetInCU: 0x11EF7, offset: 0x2A28FD, size: 0x8, addend: 0x0, symName: '-[DictionaryAdapterMapKeysEnumerator initWithMap:isolate:cache:]', symObjAddr: 0x0, symBinAddr: 0x3DFA0, symSize: 0xF8 }
  - { offsetInCU: 0x12680, offset: 0x2A3086, size: 0x8, addend: 0x0, symName: '-[DictionaryAdapterMapKeysEnumerator nextObject]', symObjAddr: 0x14E, symBinAddr: 0x3E09E, symSize: 0x20F }
  - { offsetInCU: 0x12F81, offset: 0x2A3987, size: 0x8, addend: 0x0, symName: '-[DictionaryAdapterMapKeysEnumerator dealloc]', symObjAddr: 0x423, symBinAddr: 0x3E2B3, symSize: 0x93 }
  - { offsetInCU: 0x131B7, offset: 0x2A3BBD, size: 0x8, addend: 0x0, symName: '-[DictionaryAdapterMapKeysEnumerator .cxx_destruct]', symObjAddr: 0x500, symBinAddr: 0x3E350, symSize: 0x11 }
  - { offsetInCU: 0x13213, offset: 0x2A3C19, size: 0x8, addend: 0x0, symName: __ZNSt3__110shared_ptrIN2v810PersistentINS1_5ValueENS1_27NonCopyablePersistentTraitsIS3_EEEEED2B8ue170006Ev, symObjAddr: 0x1E80, symBinAddr: 0x3F960, symSize: 0x40 }
  - { offsetInCU: 0x132C0, offset: 0x2A3CC6, size: 0x8, addend: 0x0, symName: '-[DictionaryAdapterMapKeysEnumerator .cxx_construct]', symObjAddr: 0x511, symBinAddr: 0x3E361, symSize: 0x17 }
  - { offsetInCU: 0x1331F, offset: 0x2A3D25, size: 0x8, addend: 0x0, symName: '-[DictionaryAdapterObjectKeysEnumerator initWithProperties:isolate:cache:]', symObjAddr: 0x528, symBinAddr: 0x3E378, symSize: 0xF9 }
  - { offsetInCU: 0x136C2, offset: 0x2A40C8, size: 0x8, addend: 0x0, symName: '-[DictionaryAdapterObjectKeysEnumerator getProperties]', symObjAddr: 0x621, symBinAddr: 0x3E471, symSize: 0x1B9 }
  - { offsetInCU: 0x13F04, offset: 0x2A490A, size: 0x8, addend: 0x0, symName: '-[DictionaryAdapterObjectKeysEnumerator nextObject]', symObjAddr: 0x7DA, symBinAddr: 0x3E62A, symSize: 0x23A }
  - { offsetInCU: 0x1493C, offset: 0x2A5342, size: 0x8, addend: 0x0, symName: '-[DictionaryAdapterObjectKeysEnumerator allObjects]', symObjAddr: 0xAC8, symBinAddr: 0x3E868, symSize: 0x265 }
  - { offsetInCU: 0x15153, offset: 0x2A5B59, size: 0x8, addend: 0x0, symName: '-[DictionaryAdapterObjectKeysEnumerator dealloc]', symObjAddr: 0xD2D, symBinAddr: 0x3EACD, symSize: 0x93 }
  - { offsetInCU: 0x1527C, offset: 0x2A5C82, size: 0x8, addend: 0x0, symName: '-[DictionaryAdapterObjectKeysEnumerator .cxx_destruct]', symObjAddr: 0xDC0, symBinAddr: 0x3EB60, symSize: 0x11 }
  - { offsetInCU: 0x152D8, offset: 0x2A5CDE, size: 0x8, addend: 0x0, symName: '-[DictionaryAdapterObjectKeysEnumerator .cxx_construct]', symObjAddr: 0xDD1, symBinAddr: 0x3EB71, symSize: 0x17 }
  - { offsetInCU: 0x153C1, offset: 0x2A5DC7, size: 0x8, addend: 0x0, symName: '-[DictionaryAdapter initWithJSObject:isolate:]', symObjAddr: 0xDE8, symBinAddr: 0x3EB88, symSize: 0x224 }
  - { offsetInCU: 0x15A3F, offset: 0x2A6445, size: 0x8, addend: 0x0, symName: __ZN10robin_hood6detail5TableILb1ELm80EP11objc_objectNSt3__110shared_ptrIN2v810PersistentINS6_5ValueENS6_27NonCopyablePersistentTraitsIS8_EEEEEENS_4hashIS3_vEENS4_8equal_toIS3_EEE7emplaceIJRP17DictionaryAdapterRSC_EEENS4_4pairINSH_4IterILb0EEEbEEDpOT_, symObjAddr: 0x100C, symBinAddr: 0x3EDAC, symSize: 0x11D }
  - { offsetInCU: 0x16251, offset: 0x2A6C57, size: 0x8, addend: 0x0, symName: __ZN10robin_hood6detail5TableILb1ELm80EP11objc_objectNSt3__110shared_ptrIN2v810PersistentINS6_5ValueENS6_27NonCopyablePersistentTraitsIS8_EEEEEENS_4hashIS3_vEENS4_8equal_toIS3_EEE25insertKeyPrepareEmptySpotIRKS3_EENS4_4pairImNSH_14InsertionStateEEEOT_, symObjAddr: 0x2000, symBinAddr: 0x3F9B0, symSize: 0x160 }
  - { offsetInCU: 0x163EB, offset: 0x2A6DF1, size: 0x8, addend: 0x0, symName: __ZNK10robin_hood6detail5TableILb1ELm80EP11objc_objectNSt3__110shared_ptrIN2v810PersistentINS6_5ValueENS6_27NonCopyablePersistentTraitsIS8_EEEEEENS_4hashIS3_vEENS4_8equal_toIS3_EEE18throwOverflowErrorEv, symObjAddr: 0x2160, symBinAddr: 0x3FB10, symSize: 0x4C }
  - { offsetInCU: 0x1641F, offset: 0x2A6E25, size: 0x8, addend: 0x0, symName: '-[DictionaryAdapter count]', symObjAddr: 0x1129, symBinAddr: 0x3EEC9, symSize: 0x1EE }
  - { offsetInCU: 0x16BCD, offset: 0x2A75D3, size: 0x8, addend: 0x0, symName: '-[DictionaryAdapter objectForKey:]', symObjAddr: 0x1317, symBinAddr: 0x3F0B7, symSize: 0x35A }
  - { offsetInCU: 0x17892, offset: 0x2A8298, size: 0x8, addend: 0x0, symName: '-[DictionaryAdapter keyEnumerator]', symObjAddr: 0x1671, symBinAddr: 0x3F411, symSize: 0x2E7 }
  - { offsetInCU: 0x180C2, offset: 0x2A8AC8, size: 0x8, addend: 0x0, symName: '-[DictionaryAdapter dealloc]', symObjAddr: 0x1958, symBinAddr: 0x3F6F8, symSize: 0x22A }
  - { offsetInCU: 0x1887B, offset: 0x2A9281, size: 0x8, addend: 0x0, symName: '-[DictionaryAdapter .cxx_destruct]', symObjAddr: 0x1C31, symBinAddr: 0x3F931, symSize: 0x11 }
  - { offsetInCU: 0x188D7, offset: 0x2A92DD, size: 0x8, addend: 0x0, symName: '-[DictionaryAdapter .cxx_construct]', symObjAddr: 0x1C42, symBinAddr: 0x3F942, symSize: 0x17 }
  - { offsetInCU: 0x19210, offset: 0x2A9C16, size: 0x8, addend: 0x0, symName: __ZNSt3__120__shared_ptr_emplaceIN2v810PersistentINS1_5ValueENS1_27NonCopyablePersistentTraitsIS3_EEEENS_9allocatorIS6_EEE16__on_zero_sharedEv, symObjAddr: 0x1FF0, symBinAddr: 0x3F9A0, symSize: 0x6 }
  - { offsetInCU: 0x1951C, offset: 0x2A9F22, size: 0x8, addend: 0x0, symName: __ZN10robin_hood6detail5TableILb1ELm80EP11objc_objectNSt3__110shared_ptrIN2v810PersistentINS6_5ValueENS6_27NonCopyablePersistentTraitsIS8_EEEEEENS_4hashIS3_vEENS4_8equal_toIS3_EEE16rehashPowerOfTwoEmb, symObjAddr: 0x2550, symBinAddr: 0x3FB60, symSize: 0xFB }
  - { offsetInCU: 0x80FD, offset: 0x2B24B4, size: 0x8, addend: 0x0, symName: __ZNSt3__142__uninitialized_allocator_move_if_noexceptB8ue170006INS_9allocatorINS_10unique_ptrIvPFvPKvEEEEENS_16reverse_iteratorIPS7_EESB_SB_EET2_RT_T0_T1_SC_, symObjAddr: 0x1DD6, symBinAddr: 0x41786, symSize: 0x80 }
  - { offsetInCU: 0x82A8, offset: 0x2B265F, size: 0x8, addend: 0x0, symName: __ZNSt3__115allocate_sharedB8ue170006INS_6vectorINS_10shared_ptrIN2v810PersistentINS3_5ValueENS3_27NonCopyablePersistentTraitsIS5_EEEEEENS_9allocatorIS9_EEEENSA_ISC_EEJRiEvEENS2_IT_EERKT0_DpOT1_, symObjAddr: 0x20CF, symBinAddr: 0x419DF, symSize: 0x57 }
  - { offsetInCU: 0x86BF, offset: 0x2B2A76, size: 0x8, addend: 0x0, symName: __ZNSt3__115allocate_sharedB8ue170006IN3tns9TimerTaskENS_9allocatorIS2_EEJRPN2v87IsolateERNS5_5LocalINS5_8FunctionEEERlRbRNS_10shared_ptrINS_6vectorINSF_INS5_10PersistentINS5_5ValueENS5_27NonCopyablePersistentTraitsISI_EEEEEENS3_ISM_EEEEEERidEvEENSF_IT_EERKT0_DpOT1_, symObjAddr: 0x2416, symBinAddr: 0x41BB6, symSize: 0x82 }
  - { offsetInCU: 0x8D69, offset: 0x2B3120, size: 0x8, addend: 0x0, symName: __ZNSt3__142__uninitialized_allocator_move_if_noexceptB8ue170006INS_9allocatorINS_10unique_ptrIvPFvPKvEEEEENS_16reverse_iteratorIPS7_EESB_SB_EET2_RT_T0_T1_SC_, symObjAddr: 0x1DD6, symBinAddr: 0x41786, symSize: 0x80 }
  - { offsetInCU: 0x91F0, offset: 0x2B35A7, size: 0x8, addend: 0x0, symName: __ZNSt3__120__throw_out_of_rangeB8ue170006EPKc, symObjAddr: 0x2060, symBinAddr: 0x41990, symSize: 0x4C }
  - { offsetInCU: 0xA3FB, offset: 0x2B47B2, size: 0x8, addend: 0x0, symName: __ZN3tns13TimerCallbackEP16__CFRunLoopTimerPv, symObjAddr: 0x4F3, symBinAddr: 0x40153, symSize: 0x2CD }
  - { offsetInCU: 0x111B0, offset: 0x2BB567, size: 0x8, addend: 0x0, symName: __ZNSt3__16vectorINS_10unique_ptrIvPFvPKvEEENS_9allocatorIS6_EEE26__swap_out_circular_bufferERNS_14__split_bufferIS6_RS8_EE, symObjAddr: 0x1CB0, symBinAddr: 0x41700, symSize: 0x7A }
  - { offsetInCU: 0x13791, offset: 0x2BDB48, size: 0x8, addend: 0x0, symName: __ZN3tns6Timers4InitEPN2v87IsolateENS1_5LocalINS1_14ObjectTemplateEEE, symObjAddr: 0x0, symBinAddr: 0x3FC60, symSize: 0x2D2 }
  - { offsetInCU: 0x13FAF, offset: 0x2BE366, size: 0x8, addend: 0x0, symName: __ZN3tns6Caches24registerCacheBoundObjectINS_10TimerStateEEEvPT_, symObjAddr: 0x2D2, symBinAddr: 0x3FF32, symSize: 0x136 }
  - { offsetInCU: 0x14AC3, offset: 0x2BEE7A, size: 0x8, addend: 0x0, symName: __ZZN3tns6Caches11unique_voidINS_10TimerStateEEENSt3__110unique_ptrIvPFvPKvEEEPT_ENUlS6_E_8__invokeES6_, symObjAddr: 0x1F22, symBinAddr: 0x41852, symSize: 0x3C }
  - { offsetInCU: 0x14B71, offset: 0x2BEF28, size: 0x8, addend: 0x0, symName: __ZN3tns6Timers18SetTimeoutCallbackERKN2v820FunctionCallbackInfoINS1_5ValueEEE, symObjAddr: 0x408, symBinAddr: 0x40068, symSize: 0xC }
  - { offsetInCU: 0x14BA2, offset: 0x2BEF59, size: 0x8, addend: 0x0, symName: __ZN3tns6Timers8SetTimerERKN2v820FunctionCallbackInfoINS1_5ValueEEEb, symObjAddr: 0x7C0, symBinAddr: 0x40420, symSize: 0x518 }
  - { offsetInCU: 0x15A15, offset: 0x2BFDCC, size: 0x8, addend: 0x0, symName: __ZN3tns6Timers19SetIntervalCallbackERKN2v820FunctionCallbackInfoINS1_5ValueEEE, symObjAddr: 0x414, symBinAddr: 0x40074, symSize: 0x10 }
  - { offsetInCU: 0x15CE1, offset: 0x2C0098, size: 0x8, addend: 0x0, symName: __ZN3tns6Timers20ClearTimeoutCallbackERKN2v820FunctionCallbackInfoINS1_5ValueEEE, symObjAddr: 0x424, symBinAddr: 0x40084, symSize: 0xCF }
  - { offsetInCU: 0x1600D, offset: 0x2C03C4, size: 0x8, addend: 0x0, symName: __ZN3tns10TimerState10removeTaskERKi, symObjAddr: 0xDBA, symBinAddr: 0x40A1A, symSize: 0xA9 }
  - { offsetInCU: 0x16531, offset: 0x2C08E8, size: 0x8, addend: 0x0, symName: __ZNKSt3__16vectorINS_10shared_ptrIN2v810PersistentINS2_5ValueENS2_27NonCopyablePersistentTraitsIS4_EEEEEENS_9allocatorIS8_EEE20__throw_out_of_rangeB8ue170006Ev, symObjAddr: 0x2050, symBinAddr: 0x41980, symSize: 0x10 }
  - { offsetInCU: 0x1655B, offset: 0x2C0912, size: 0x8, addend: 0x0, symName: __ZNSt3__120__throw_out_of_rangeB8ue170006EPKc, symObjAddr: 0x2060, symBinAddr: 0x41990, symSize: 0x4C }
  - { offsetInCU: 0x16565, offset: 0x2C091C, size: 0x8, addend: 0x0, symName: __ZNSt3__110shared_ptrIN3tns9TimerTaskEED2B8ue170006Ev, symObjAddr: 0x1C70, symBinAddr: 0x416C0, symSize: 0x40 }
  - { offsetInCU: 0x168B5, offset: 0x2C0C6C, size: 0x8, addend: 0x0, symName: __ZNSt3__110shared_ptrIN2v810PersistentINS1_5ValueENS1_27NonCopyablePersistentTraitsIS3_EEEEEaSB8ue170006EOS7_, symObjAddr: 0xCD8, symBinAddr: 0x40938, symSize: 0x4A }
  - { offsetInCU: 0x16A30, offset: 0x2C0DE7, size: 0x8, addend: 0x0, symName: __ZNSt3__110shared_ptrIN3tns9TimerTaskEEaSB8ue170006ERKS3_, symObjAddr: 0xD22, symBinAddr: 0x40982, symSize: 0x56 }
  - { offsetInCU: 0x16CDC, offset: 0x2C1093, size: 0x8, addend: 0x0, symName: __ZN10robin_hood6detail5TableILb1ELm80EiNSt3__110shared_ptrIN3tns9TimerTaskEEENS_4hashIivEENS2_8equal_toIiEEE7emplaceIJRiRS6_EEENS2_4pairINSB_4IterILb0EEEbEEDpOT_, symObjAddr: 0x107E, symBinAddr: 0x40B9E, symSize: 0x118 }
  - { offsetInCU: 0x171E6, offset: 0x2C159D, size: 0x8, addend: 0x0, symName: __ZN3tns12TimerContext12TimerReleaseEPKv, symObjAddr: 0xD84, symBinAddr: 0x409E4, symSize: 0x36 }
  - { offsetInCU: 0x172AE, offset: 0x2C1665, size: 0x8, addend: 0x0, symName: __ZNSt3__110shared_ptrINS_6vectorINS0_IN2v810PersistentINS2_5ValueENS2_27NonCopyablePersistentTraitsIS4_EEEEEENS_9allocatorIS8_EEEEED2B8ue170006Ev, symObjAddr: 0x1C30, symBinAddr: 0x41680, symSize: 0x40 }
  - { offsetInCU: 0x173C3, offset: 0x2C177A, size: 0x8, addend: 0x0, symName: __ZN3tns12TimerContext11TimerRetainEPKv, symObjAddr: 0xD78, symBinAddr: 0x409D8, symSize: 0xC }
  - { offsetInCU: 0x174B3, offset: 0x2C186A, size: 0x8, addend: 0x0, symName: __ZN3tns12TimerContextD2Ev, symObjAddr: 0xFCC, symBinAddr: 0x40AEC, symSize: 0x6C }
  - { offsetInCU: 0x17661, offset: 0x2C1A18, size: 0x8, addend: 0x0, symName: __ZNK10robin_hood6detail5TableILb1ELm80EiNSt3__110shared_ptrIN3tns9TimerTaskEEENS_4hashIivEENS2_8equal_toIiEEE7findIdxIiEEmRKT_, symObjAddr: 0x1A44, symBinAddr: 0x41514, symSize: 0xE0 }
  - { offsetInCU: 0x177DD, offset: 0x2C1B94, size: 0x8, addend: 0x0, symName: __ZNSt3__110shared_ptrINS_6vectorINS0_IN2v810PersistentINS2_5ValueENS2_27NonCopyablePersistentTraitsIS4_EEEEEENS_9allocatorIS8_EEEEE5resetB8ue170006Ev, symObjAddr: 0x1038, symBinAddr: 0x40B58, symSize: 0x46 }
  - { offsetInCU: 0x178D4, offset: 0x2C1C8B, size: 0x8, addend: 0x0, symName: __ZN10robin_hood6detail5TableILb1ELm80EiNSt3__110shared_ptrIN3tns9TimerTaskEEENS_4hashIivEENS2_8equal_toIiEEE5eraseENSB_4IterILb0EEE, symObjAddr: 0x19B8, symBinAddr: 0x41488, symSize: 0x8C }
  - { offsetInCU: 0x17982, offset: 0x2C1D39, size: 0x8, addend: 0x0, symName: __Z24_register_isolate_timersPN2v87IsolateENS_5LocalINS_16FunctionTemplateEEE, symObjAddr: 0xE63, symBinAddr: 0x40AC3, symSize: 0x22 }
  - { offsetInCU: 0x18019, offset: 0x2C23D0, size: 0x8, addend: 0x0, symName: __ZN10robin_hood6detail5TableILb1ELm80EiNSt3__110shared_ptrIN3tns9TimerTaskEEENS_4hashIivEENS2_8equal_toIiEEE25insertKeyPrepareEmptySpotIRKiEENS2_4pairImNSB_14InsertionStateEEEOT_, symObjAddr: 0x1196, symBinAddr: 0x40CB6, symSize: 0x160 }
  - { offsetInCU: 0x181B3, offset: 0x2C256A, size: 0x8, addend: 0x0, symName: __ZNSt3__110shared_ptrIN3tns9TimerTaskEEaSB8ue170006EOS3_, symObjAddr: 0x194A, symBinAddr: 0x4143A, symSize: 0x4A }
  - { offsetInCU: 0x1830C, offset: 0x2C26C3, size: 0x8, addend: 0x0, symName: __ZNK10robin_hood6detail5TableILb1ELm80EiNSt3__110shared_ptrIN3tns9TimerTaskEEENS_4hashIivEENS2_8equal_toIiEEE18throwOverflowErrorEv, symObjAddr: 0x12F6, symBinAddr: 0x40E16, symSize: 0x4C }
  - { offsetInCU: 0x1844D, offset: 0x2C2804, size: 0x8, addend: 0x0, symName: __ZN10robin_hood6detail5TableILb1ELm80EiNSt3__110shared_ptrIN3tns9TimerTaskEEENS_4hashIivEENS2_8equal_toIiEEE13increase_sizeEv, symObjAddr: 0x1342, symBinAddr: 0x40E62, symSize: 0x108 }
  - { offsetInCU: 0x18508, offset: 0x2C28BF, size: 0x8, addend: 0x0, symName: __ZN10robin_hood6detail5TableILb1ELm80EiNSt3__110shared_ptrIN3tns9TimerTaskEEENS_4hashIivEENS2_8equal_toIiEEE7shiftUpEmm, symObjAddr: 0x144A, symBinAddr: 0x40F6A, symSize: 0xCA }
  - { offsetInCU: 0x1868A, offset: 0x2C2A41, size: 0x8, addend: 0x0, symName: __ZN10robin_hood6detail5TableILb1ELm80EiNSt3__110shared_ptrIN3tns9TimerTaskEEENS_4hashIivEENS2_8equal_toIiEEE17try_increase_infoEv, symObjAddr: 0x15FA, symBinAddr: 0x4111A, symSize: 0xE8 }
  - { offsetInCU: 0x18779, offset: 0x2C2B30, size: 0x8, addend: 0x0, symName: __ZN10robin_hood6detail5TableILb1ELm80EiNSt3__110shared_ptrIN3tns9TimerTaskEEENS_4hashIivEENS2_8equal_toIiEEE8initDataEm, symObjAddr: 0x1514, symBinAddr: 0x41034, symSize: 0xE6 }
  - { offsetInCU: 0x18851, offset: 0x2C2C08, size: 0x8, addend: 0x0, symName: __ZN10robin_hood6detail5TableILb1ELm80EiNSt3__110shared_ptrIN3tns9TimerTaskEEENS_4hashIivEENS2_8equal_toIiEEE17try_increase_infoEv, symObjAddr: 0x15FA, symBinAddr: 0x4111A, symSize: 0xE8 }
  - { offsetInCU: 0x1885B, offset: 0x2C2C12, size: 0x8, addend: 0x0, symName: __ZN10robin_hood6detail5TableILb1ELm80EiNSt3__110shared_ptrIN3tns9TimerTaskEEENS_4hashIivEENS2_8equal_toIiEEE16rehashPowerOfTwoEmb, symObjAddr: 0x16E2, symBinAddr: 0x41202, symSize: 0xFB }
  - { offsetInCU: 0x18AAD, offset: 0x2C2E64, size: 0x8, addend: 0x0, symName: __ZN10robin_hood6detail5TableILb1ELm80EiNSt3__110shared_ptrIN3tns9TimerTaskEEENS_4hashIivEENS2_8equal_toIiEEE11insert_moveEONSB_8DataNodeISB_Lb1EEE, symObjAddr: 0x180E, symBinAddr: 0x412FE, symSize: 0x13C }
  - { offsetInCU: 0x18DCC, offset: 0x2C3183, size: 0x8, addend: 0x0, symName: __ZN10robin_hood6detail5TableILb1ELm80EiNSt3__110shared_ptrIN3tns9TimerTaskEEENS_4hashIivEENS2_8equal_toIiEEE9shiftDownEm, symObjAddr: 0x1B24, symBinAddr: 0x415F4, symSize: 0x8C }
  - { offsetInCU: 0x190FE, offset: 0x2C34B5, size: 0x8, addend: 0x0, symName: __ZNKSt3__129_AllocatorDestroyRangeReverseINS_9allocatorINS_10unique_ptrIvPFvPKvEEEEENS_16reverse_iteratorIPS7_EEEclB8ue170006Ev, symObjAddr: 0x1E70, symBinAddr: 0x41810, symSize: 0x42 }
  - { offsetInCU: 0x19483, offset: 0x2C383A, size: 0x8, addend: 0x0, symName: __ZN10robin_hood6detail5TableILb1ELm80EiNSt3__110shared_ptrIN3tns9TimerTaskEEENS_4hashIivEENS2_8equal_toIiEEE7destroyEv, symObjAddr: 0x1F5E, symBinAddr: 0x4188E, symSize: 0x3C }
  - { offsetInCU: 0x194C2, offset: 0x2C3879, size: 0x8, addend: 0x0, symName: __ZNK10robin_hood6detail5TableILb1ELm80EiNSt3__110shared_ptrIN3tns9TimerTaskEEENS_4hashIivEENS2_8equal_toIiEEE9DestroyerISB_Lb0EE20nodesDoNotDeallocateERSB_, symObjAddr: 0x1F9A, symBinAddr: 0x418CA, symSize: 0xB6 }
  - { offsetInCU: 0x198B0, offset: 0x2C3C67, size: 0x8, addend: 0x0, symName: __ZNSt3__120__shared_ptr_emplaceINS_6vectorINS_10shared_ptrIN2v810PersistentINS3_5ValueENS3_27NonCopyablePersistentTraitsIS5_EEEEEENS_9allocatorIS9_EEEENSA_ISC_EEEC2B8ue170006IJRiEEESD_DpOT_, symObjAddr: 0x2126, symBinAddr: 0x41A36, symSize: 0x44 }
  - { offsetInCU: 0x199BD, offset: 0x2C3D74, size: 0x8, addend: 0x0, symName: __ZNSt3__16vectorINS_10shared_ptrIN2v810PersistentINS2_5ValueENS2_27NonCopyablePersistentTraitsIS4_EEEEEENS_9allocatorIS8_EEEC2Em, symObjAddr: 0x21D8, symBinAddr: 0x41AE8, symSize: 0x6E }
  - { offsetInCU: 0x19C0A, offset: 0x2C3FC1, size: 0x8, addend: 0x0, symName: __ZNSt3__120__shared_ptr_emplaceINS_6vectorINS_10shared_ptrIN2v810PersistentINS3_5ValueENS3_27NonCopyablePersistentTraitsIS5_EEEEEENS_9allocatorIS9_EEEENSA_ISC_EEED1Ev, symObjAddr: 0x216A, symBinAddr: 0x41A7A, symSize: 0x18 }
  - { offsetInCU: 0x19C64, offset: 0x2C401B, size: 0x8, addend: 0x0, symName: __ZNSt3__120__shared_ptr_emplaceINS_6vectorINS_10shared_ptrIN2v810PersistentINS3_5ValueENS3_27NonCopyablePersistentTraitsIS5_EEEEEENS_9allocatorIS9_EEEENSA_ISC_EEED0Ev, symObjAddr: 0x2182, symBinAddr: 0x41A92, symSize: 0x2A }
  - { offsetInCU: 0x19D52, offset: 0x2C4109, size: 0x8, addend: 0x0, symName: __ZNSt3__120__shared_ptr_emplaceINS_6vectorINS_10shared_ptrIN2v810PersistentINS3_5ValueENS3_27NonCopyablePersistentTraitsIS5_EEEEEENS_9allocatorIS9_EEEENSA_ISC_EEE16__on_zero_sharedEv, symObjAddr: 0x21AC, symBinAddr: 0x41ABC, symSize: 0x22 }
  - { offsetInCU: 0x19E2F, offset: 0x2C41E6, size: 0x8, addend: 0x0, symName: __ZNSt3__16vectorINS_10shared_ptrIN2v810PersistentINS2_5ValueENS2_27NonCopyablePersistentTraitsIS4_EEEEEENS_9allocatorIS8_EEE16__destroy_vectorclB8ue170006Ev, symObjAddr: 0x22C0, symBinAddr: 0x41B60, symSize: 0x56 }
  - { offsetInCU: 0x19FB5, offset: 0x2C436C, size: 0x8, addend: 0x0, symName: __ZNSt3__120__shared_ptr_emplaceINS_6vectorINS_10shared_ptrIN2v810PersistentINS3_5ValueENS3_27NonCopyablePersistentTraitsIS5_EEEEEENS_9allocatorIS9_EEEENSA_ISC_EEE21__on_zero_shared_weakEv, symObjAddr: 0x21CE, symBinAddr: 0x41ADE, symSize: 0xA }
  - { offsetInCU: 0x1AAD0, offset: 0x2C4E87, size: 0x8, addend: 0x0, symName: __ZNSt3__120__shared_ptr_emplaceIN3tns9TimerTaskENS_9allocatorIS2_EEEC2B8ue170006IJRPN2v87IsolateERNS7_5LocalINS7_8FunctionEEERlRbRNS_10shared_ptrINS_6vectorINSH_INS7_10PersistentINS7_5ValueENS7_27NonCopyablePersistentTraitsISK_EEEEEENS3_ISO_EEEEEERidEEES4_DpOT_, symObjAddr: 0x2498, symBinAddr: 0x41C38, symSize: 0x66 }
  - { offsetInCU: 0x1ACBB, offset: 0x2C5072, size: 0x8, addend: 0x0, symName: __ZN3tns9TimerTaskC2EPN2v87IsolateERKNS1_5LocalINS1_8FunctionEEEdbRKNSt3__110shared_ptrINS9_6vectorINSA_INS1_10PersistentINS1_5ValueENS1_27NonCopyablePersistentTraitsISD_EEEEEENS9_9allocatorISH_EEEEEEid, symObjAddr: 0x2558, symBinAddr: 0x41CF8, symSize: 0x13B }
  - { offsetInCU: 0x1B130, offset: 0x2C54E7, size: 0x8, addend: 0x0, symName: __ZNSt3__120__shared_ptr_emplaceIN3tns9TimerTaskENS_9allocatorIS2_EEED1Ev, symObjAddr: 0x24FE, symBinAddr: 0x41C9E, symSize: 0x18 }
  - { offsetInCU: 0x1B18A, offset: 0x2C5541, size: 0x8, addend: 0x0, symName: __ZNSt3__120__shared_ptr_emplaceIN3tns9TimerTaskENS_9allocatorIS2_EEED0Ev, symObjAddr: 0x2516, symBinAddr: 0x41CB6, symSize: 0x2A }
  - { offsetInCU: 0x1B22A, offset: 0x2C55E1, size: 0x8, addend: 0x0, symName: __ZNSt3__120__shared_ptr_emplaceIN3tns9TimerTaskENS_9allocatorIS2_EEE16__on_zero_sharedEv, symObjAddr: 0x2540, symBinAddr: 0x41CE0, symSize: 0xE }
  - { offsetInCU: 0x1B2B7, offset: 0x2C566E, size: 0x8, addend: 0x0, symName: __ZNSt3__120__shared_ptr_emplaceIN3tns9TimerTaskENS_9allocatorIS2_EEE21__on_zero_shared_weakEv, symObjAddr: 0x254E, symBinAddr: 0x41CEE, symSize: 0xA }
  - { offsetInCU: 0x26, offset: 0x2C5948, size: 0x8, addend: 0x0, symName: __ZN3tns9TSHelpers4InitEN2v85LocalINS1_7ContextEEE, symObjAddr: 0x0, symBinAddr: 0x41E34, symSize: 0x206 }
  - { offsetInCU: 0xD61B, offset: 0x2D2F3D, size: 0x8, addend: 0x0, symName: __ZN3tns9TSHelpers4InitEN2v85LocalINS1_7ContextEEE, symObjAddr: 0x0, symBinAddr: 0x41E34, symSize: 0x206 }
  - { offsetInCU: 0xD512, offset: 0x2E129F, size: 0x8, addend: 0x0, symName: __ZN3tns15InlineFunctions4InitEN2v85LocalINS1_7ContextEEE, symObjAddr: 0x0, symBinAddr: 0x42040, symSize: 0x166 }
  - { offsetInCU: 0xE0E8, offset: 0x2E1E75, size: 0x8, addend: 0x0, symName: __ZN3tns15InlineFunctions16IsGlobalFunctionENSt3__112basic_stringIcNS1_11char_traitsIcEENS1_9allocatorIcEEEE, symObjAddr: 0x166, symBinAddr: 0x421A6, symSize: 0x2C6 }
  - { offsetInCU: 0xE96A, offset: 0x2E26F7, size: 0x8, addend: 0x0, symName: __ZNSt12out_of_rangeC1B8ue170006EPKc, symObjAddr: 0x608, symBinAddr: 0x42478, symSize: 0x23 }
  - { offsetInCU: 0x26D1, offset: 0x2E4E53, size: 0x8, addend: 0x0, symName: __ZN3tns8ToStringEPN2v87IsolateERKNS0_5LocalINS0_5ValueEEE, symObjAddr: 0xE28, symBinAddr: 0x43278, symSize: 0xB4 }
  - { offsetInCU: 0x11F1C, offset: 0x2F469E, size: 0x8, addend: 0x0, symName: __ZNSt3__119__allocate_at_leastB8ue170006INS_9allocatorINS_10unique_ptrIvPFvPKvEEEEEEENS_19__allocation_resultINS_16allocator_traitsIT_E7pointerEEERSB_m, symObjAddr: 0xCD30, symBinAddr: 0x4D9C0, symSize: 0x2D }
  - { offsetInCU: 0x1210B, offset: 0x2F488D, size: 0x8, addend: 0x0, symName: __ZNSt3__111__find_implB8ue170006IPNS_12basic_stringIcNS_11char_traitsIcEENS_9allocatorIcEEEES7_S6_NS_10__identityEEET_S9_T0_RKT1_RT2_, symObjAddr: 0xCEB9, symBinAddr: 0x4DA79, symSize: 0x99 }
  - { offsetInCU: 0x1223D, offset: 0x2F49BF, size: 0x8, addend: 0x0, symName: __ZNSt3__111make_uniqueB8ue170006IN2v810PersistentINS1_8FunctionENS1_27NonCopyablePersistentTraitsIS3_EEEEJRPNS1_7IsolateERNS1_5LocalIS3_EEEEENS_11__unique_ifIT_E15__unique_singleEDpOT0_, symObjAddr: 0x17C8, symBinAddr: 0x43BB8, symSize: 0x5C }
  - { offsetInCU: 0x12BA9, offset: 0x2F532B, size: 0x8, addend: 0x0, symName: __ZNSt3__115allocate_sharedB8ue170006IN2v810PersistentINS1_5ValueENS1_27NonCopyablePersistentTraitsIS3_EEEENS_9allocatorIS6_EEJRPNS1_7IsolateENS1_5LocalIS3_EEEvEENS_10shared_ptrIT_EERKT0_DpOT1_, symObjAddr: 0x10C04, symBinAddr: 0x50944, symSize: 0x5C }
  - { offsetInCU: 0x137A7, offset: 0x2F5F29, size: 0x8, addend: 0x0, symName: __ZNSt3__115allocate_sharedB8ue170006IN2v810PersistentINS1_5ValueENS1_27NonCopyablePersistentTraitsIS3_EEEENS_9allocatorIS6_EEJRPNS1_7IsolateERNS1_5LocalIS3_EEEvEENS_10shared_ptrIT_EERKT0_DpOT1_, symObjAddr: 0x116C8, symBinAddr: 0x512B8, symSize: 0x5C }
  - { offsetInCU: 0x13A3B, offset: 0x2F61BD, size: 0x8, addend: 0x0, symName: __ZNSt3__1plB8ue170006IcNS_11char_traitsIcEENS_9allocatorIcEEEENS_12basic_stringIT_T0_T1_EERKS9_SB_, symObjAddr: 0xAAE2, symBinAddr: 0x4C992, symSize: 0xC2 }
  - { offsetInCU: 0x14C88, offset: 0x2F740A, size: 0x8, addend: 0x0, symName: __ZNSt3__119__allocate_at_leastB8ue170006INS_9allocatorINS_10shared_ptrIN2v810PersistentINS3_5ValueENS3_27NonCopyablePersistentTraitsIS5_EEEEEEEEEENS_19__allocation_resultINS_16allocator_traitsIT_E7pointerEEERSD_m, symObjAddr: 0x10D14, symBinAddr: 0x50A04, symSize: 0x2E }
  - { offsetInCU: 0x153DA, offset: 0x2F7B5C, size: 0x8, addend: 0x0, symName: __ZNSt3__119__allocate_at_leastB8ue170006INS_9allocatorIN3tns11StructFieldEEEEENS_19__allocation_resultINS_16allocator_traitsIT_E7pointerEEERS7_m, symObjAddr: 0xAF40, symBinAddr: 0x4CB10, symSize: 0x37 }
  - { offsetInCU: 0x164FA, offset: 0x2F8C7C, size: 0x8, addend: 0x0, symName: __ZNSt3__119__allocate_at_leastB8ue170006INS_9allocatorIN2v85LocalINS2_5ValueEEEEEEENS_19__allocation_resultINS_16allocator_traitsIT_E7pointerEEERS9_m, symObjAddr: 0x113B8, symBinAddr: 0x51028, symSize: 0x2E }
  - { offsetInCU: 0x207F6, offset: 0x302F78, size: 0x8, addend: 0x0, symName: __ZN3tns15MetadataBuilder17CFunctionCallbackERKN2v820FunctionCallbackInfoINS1_5ValueEEE, symObjAddr: 0x1206, symBinAddr: 0x435F6, symSize: 0x434 }
  - { offsetInCU: 0x21A69, offset: 0x3041EB, size: 0x8, addend: 0x0, symName: __ZN3tns15MetadataBuilder30SwizzledInstanceMethodCallbackEN2v85LocalINS1_4NameEEENS2_INS1_5ValueEEERKNS1_20PropertyCallbackInfoIS5_EE, symObjAddr: 0x5FCA, symBinAddr: 0x480BA, symSize: 0x79A }
  - { offsetInCU: 0x245DB, offset: 0x306D5D, size: 0x8, addend: 0x0, symName: __ZN3tns15MetadataBuilder24SwizzledPropertyCallbackEN2v85LocalINS1_4NameEEERKNS1_18PropertyDescriptorERKNS1_20PropertyCallbackInfoINS1_5ValueEEE, symObjAddr: 0x6764, symBinAddr: 0x48854, symSize: 0xC5C }
  - { offsetInCU: 0x2A7AC, offset: 0x30CF2E, size: 0x8, addend: 0x0, symName: __ZN3tns15MetadataBuilder31RegisterConstantsOnGlobalObjectEPN2v87IsolateENS1_5LocalINS1_14ObjectTemplateEEEb, symObjAddr: 0x0, symBinAddr: 0x424A0, symSize: 0xFE }
  - { offsetInCU: 0x2AB2F, offset: 0x30D2B1, size: 0x8, addend: 0x0, symName: __ZN3tns6Caches24registerCacheBoundObjectINS_15MetadataBuilder20GlobalHandlerContextEEEvPT_, symObjAddr: 0x14E, symBinAddr: 0x4259E, symSize: 0x12E }
  - { offsetInCU: 0x2B699, offset: 0x30DE1B, size: 0x8, addend: 0x0, symName: __ZNSt3__114__split_bufferINS_10unique_ptrIvPFvPKvEEERNS_9allocatorIS6_EEED2Ev, symObjAddr: 0xCE38, symBinAddr: 0x4D9F8, symSize: 0x28 }
  - { offsetInCU: 0x2B772, offset: 0x30DEF4, size: 0x8, addend: 0x0, symName: __ZNKSt3__16vectorINS_10unique_ptrIvPFvPKvEEENS_9allocatorIS6_EEE20__throw_length_errorB8ue170006Ev, symObjAddr: 0xCD20, symBinAddr: 0x4D9B0, symSize: 0x10 }
  - { offsetInCU: 0x2B79B, offset: 0x30DF1D, size: 0x8, addend: 0x0, symName: __ZNSt3__119__allocate_at_leastB8ue170006INS_9allocatorINS_10unique_ptrIvPFvPKvEEEEEEENS_19__allocation_resultINS_16allocator_traitsIT_E7pointerEEERSB_m, symObjAddr: 0xCD30, symBinAddr: 0x4D9C0, symSize: 0x2D }
  - { offsetInCU: 0x2C297, offset: 0x30EA19, size: 0x8, addend: 0x0, symName: __ZN3tns15MetadataBuilder20GlobalPropertyGetterEN2v85LocalINS1_4NameEEERKNS1_20PropertyCallbackInfoINS1_5ValueEEE, symObjAddr: 0x27C, symBinAddr: 0x426CC, symSize: 0xBAC }
  - { offsetInCU: 0x2F44B, offset: 0x311BCD, size: 0x8, addend: 0x0, symName: __ZN3tns10StructInfoC1ERKS0_, symObjAddr: 0x1F0A, symBinAddr: 0x442BA, symSize: 0x92 }
  - { offsetInCU: 0x2F6B9, offset: 0x311E3B, size: 0x8, addend: 0x0, symName: __ZN3tns15MetadataBuilder29GetOrCreateStructCtorFunctionEN2v85LocalINS1_7ContextEEENS_10StructInfoE, symObjAddr: 0x1A82, symBinAddr: 0x43E32, symSize: 0x488 }
  - { offsetInCU: 0x30DE6, offset: 0x313568, size: 0x8, addend: 0x0, symName: __ZNK3tns4Meta4nameEv, symObjAddr: 0xEDC, symBinAddr: 0x4332C, symSize: 0xDA }
  - { offsetInCU: 0x3122E, offset: 0x3139B0, size: 0x8, addend: 0x0, symName: __ZNK3tns10JsCodeMeta6jsCodeEv, symObjAddr: 0x19DA, symBinAddr: 0x43DCA, symSize: 0x66 }
  - { offsetInCU: 0x3163A, offset: 0x313DBC, size: 0x8, addend: 0x0, symName: __ZNK3tns7VarMeta8encodingEv, symObjAddr: 0x1974, symBinAddr: 0x43D64, symSize: 0x66 }
  - { offsetInCU: 0x31939, offset: 0x3140BB, size: 0x8, addend: 0x0, symName: __ZN3tns6Caches24registerCacheBoundObjectINS_15MetadataBuilder9CacheItemINS_12FunctionMetaEEEEEvPT_, symObjAddr: 0x10D0, symBinAddr: 0x434C0, symSize: 0x136 }
  - { offsetInCU: 0x31DFF, offset: 0x314581, size: 0x8, addend: 0x0, symName: __ZNK3tns12FunctionMeta9encodingsEv, symObjAddr: 0x1762, symBinAddr: 0x43B52, symSize: 0x66 }
  - { offsetInCU: 0x3209E, offset: 0x314820, size: 0x8, addend: 0x0, symName: __ZN3tns15MetadataBuilder28DefineFunctionLengthPropertyEN2v85LocalINS1_7ContextEEEPKNS_17TypeEncodingsListIiEENS2_INS1_8FunctionEEE, symObjAddr: 0x163A, symBinAddr: 0x43A2A, symSize: 0x128 }
  - { offsetInCU: 0x324CE, offset: 0x314C50, size: 0x8, addend: 0x0, symName: __ZN10robin_hood6detail5TableILb1ELm80ENSt3__112basic_stringIcNS2_11char_traitsIcEENS2_9allocatorIcEEEENS2_10unique_ptrIN2v810PersistentINSA_8FunctionENSA_27NonCopyablePersistentTraitsISC_EEEENS2_14default_deleteISF_EEEENS_4hashIS8_vEENS2_8equal_toIS8_EEE7emplaceIJRS8_SI_EEENS2_4pairINSN_4IterILb0EEEbEEDpOT_, symObjAddr: 0x1824, symBinAddr: 0x43C14, symSize: 0x150 }
  - { offsetInCU: 0x32C40, offset: 0x3153C2, size: 0x8, addend: 0x0, symName: __ZN3tns15MetadataBuilder38GetOrCreateConstructorFunctionTemplateEN2v85LocalINS1_7ContextEEEPKNS_13BaseClassMetaENS_21KnownUnknownClassPairERKNSt3__16vectorINS9_12basic_stringIcNS9_11char_traitsIcEENS9_9allocatorIcEEEENSE_ISG_EEEE, symObjAddr: 0xFB6, symBinAddr: 0x43406, symSize: 0xB4 }
  - { offsetInCU: 0x32E72, offset: 0x3155F4, size: 0x8, addend: 0x0, symName: __ZNSt3__16vectorINS_12basic_stringIcNS_11char_traitsIcEENS_9allocatorIcEEEENS4_IS6_EEE16__destroy_vectorclB8ue170006Ev, symObjAddr: 0xCC30, symBinAddr: 0x4D970, symSize: 0x32 }
  - { offsetInCU: 0x33340, offset: 0x315AC2, size: 0x8, addend: 0x0, symName: __ZN3tns15MetadataBuilder46GetOrCreateConstructorFunctionTemplateInternalEN2v85LocalINS1_7ContextEEEPKNS_13BaseClassMetaENS_21KnownUnknownClassPairERN10robin_hood6detail5TableILb1ELm80ENSt3__112basic_stringIcNSC_11char_traitsIcEENSC_9allocatorIcEEEEhNS9_4hashISI_vEENSC_8equal_toISI_EEEESO_RKNSC_6vectorISI_NSG_ISI_EEEE, symObjAddr: 0x2D7C, symBinAddr: 0x44ECC, symSize: 0x17E6 }
  - { offsetInCU: 0x391EA, offset: 0x31B96C, size: 0x8, addend: 0x0, symName: __ZN10robin_hood6detail5TableILb1ELm80ENSt3__112basic_stringIcNS2_11char_traitsIcEENS2_9allocatorIcEEEEhNS_4hashIS8_vEENS2_8equal_toIS8_EEE7destroyEv, symObjAddr: 0xEA0C, symBinAddr: 0x4ECFC, symSize: 0x3C }
  - { offsetInCU: 0x39271, offset: 0x31B9F3, size: 0x8, addend: 0x0, symName: __ZZN3tns6Caches11unique_voidINS_15MetadataBuilder9CacheItemINS_12FunctionMetaEEEEENSt3__110unique_ptrIvPFvPKvEEEPT_ENUlS9_E_8__invokeES9_, symObjAddr: 0xD264, symBinAddr: 0x4DB14, symSize: 0x2C }
  - { offsetInCU: 0x3929C, offset: 0x31BA1E, size: 0x8, addend: 0x0, symName: __ZZN3tns6Caches11unique_voidINS_15MetadataBuilder9CacheItemINS_12FunctionMetaEEEEENSt3__110unique_ptrIvPFvPKvEEEPT_ENUlS9_E_8__invokeES9_, symObjAddr: 0xD264, symBinAddr: 0x4DB14, symSize: 0x2C }
  - { offsetInCU: 0x39D64, offset: 0x31C4E6, size: 0x8, addend: 0x0, symName: __ZNSt3__16vectorINS_10shared_ptrIN2v810PersistentINS2_5ValueENS2_27NonCopyablePersistentTraitsIS4_EEEEEENS_9allocatorIS8_EEE9push_backB8ue170006EOS8_, symObjAddr: 0xA71E, symBinAddr: 0x4C7CE, symSize: 0x134 }
  - { offsetInCU: 0x3A2A0, offset: 0x31CA22, size: 0x8, addend: 0x0, symName: __ZNK3tns5ArrayINS_5PtrToINS_10MethodMetaEEEE12binarySearchENSt3__18functionIFiRKS3_EEE, symObjAddr: 0xA852, symBinAddr: 0x4C902, symSize: 0x88 }
  - { offsetInCU: 0x3A2AB, offset: 0x31CA2D, size: 0x8, addend: 0x0, symName: __ZNSt3__16vectorINS_10shared_ptrIN2v810PersistentINS2_5ValueENS2_27NonCopyablePersistentTraitsIS4_EEEEEENS_9allocatorIS8_EEE16__init_with_sizeB8ue170006IPS8_SD_EEvT_T0_m, symObjAddr: 0x10D82, symBinAddr: 0x50A72, symSize: 0x7A }
  - { offsetInCU: 0x3AF75, offset: 0x31D6F7, size: 0x8, addend: 0x0, symName: __ZN10robin_hood6detail5TableILb1ELm80ENSt3__112basic_stringIcNS2_11char_traitsIcEENS2_9allocatorIcEEEENS2_10unique_ptrIN2v810PersistentINSA_8FunctionENSA_27NonCopyablePersistentTraitsISC_EEEENS2_14default_deleteISF_EEEENS_4hashIS8_vEENS2_8equal_toIS8_EEE25insertKeyPrepareEmptySpotIRKS8_EENS2_4pairImNSN_14InsertionStateEEEOT_, symObjAddr: 0xD290, symBinAddr: 0x4DB40, symSize: 0x15C }
  - { offsetInCU: 0x3B0DF, offset: 0x31D861, size: 0x8, addend: 0x0, symName: __ZN10robin_hood6detail5TableILb1ELm80ENSt3__112basic_stringIcNS2_11char_traitsIcEENS2_9allocatorIcEEEENS2_10unique_ptrIN2v810PersistentINSA_8FunctionENSA_27NonCopyablePersistentTraitsISC_EEEENS2_14default_deleteISF_EEEENS_4hashIS8_vEENS2_8equal_toIS8_EEE8DataNodeISN_Lb1EED1Ev, symObjAddr: 0xD438, symBinAddr: 0x4DCA8, symSize: 0x3A }
  - { offsetInCU: 0x3B648, offset: 0x31DDCA, size: 0x8, addend: 0x0, symName: __ZN3tns17StructTypeWrapperC2ENS_10StructInfoE, symObjAddr: 0xB120, symBinAddr: 0x4CB90, symSize: 0xB2 }
  - { offsetInCU: 0x3B9A0, offset: 0x31E122, size: 0x8, addend: 0x0, symName: __ZN10robin_hood6detail5TableILb1ELm80ENSt3__112basic_stringIcNS2_11char_traitsIcEENS2_9allocatorIcEEEENS2_10unique_ptrIN2v810PersistentINSA_8FunctionENSA_27NonCopyablePersistentTraitsISC_EEEENS2_14default_deleteISF_EEEENS_4hashIS8_vEENS2_8equal_toIS8_EEE7emplaceIJS8_SI_EEENS2_4pairINSN_4IterILb0EEEbEEDpOT_, symObjAddr: 0x287C, symBinAddr: 0x44C0C, symSize: 0x162 }
  - { offsetInCU: 0x3C538, offset: 0x31ECBA, size: 0x8, addend: 0x0, symName: __ZN3tns15MetadataBuilder25StructConstructorCallbackERKN2v820FunctionCallbackInfoINS1_5ValueEEE, symObjAddr: 0x1FCA, symBinAddr: 0x4435A, symSize: 0x5B2 }
  - { offsetInCU: 0x3E6BF, offset: 0x320E41, size: 0x8, addend: 0x0, symName: __ZN3tns15MetadataBuilder20StructEqualsCallbackERKN2v820FunctionCallbackInfoINS1_5ValueEEE, symObjAddr: 0x257C, symBinAddr: 0x4490C, symSize: 0x300 }
  - { offsetInCU: 0x3F01D, offset: 0x32179F, size: 0x8, addend: 0x0, symName: __ZN3tns15MetadataBuilder13GetStructDataEN2v85LocalINS1_7ContextEEENS2_INS1_6ObjectEEENS_10StructInfoE, symObjAddr: 0x2C2C, symBinAddr: 0x44D7C, symSize: 0x150 }
  - { offsetInCU: 0x3FB7D, offset: 0x3222FF, size: 0x8, addend: 0x0, symName: __ZNSt3__14pairIPvNS_12basic_stringIcNS_11char_traitsIcEENS_9allocatorIcEEEEEC2B8ue170006ERKS8_, symObjAddr: 0xDD00, symBinAddr: 0x4E530, symSize: 0x36 }
  - { offsetInCU: 0x3FC43, offset: 0x3223C5, size: 0x8, addend: 0x0, symName: __ZN10robin_hood6detail5TableILb1ELm80ENSt3__14pairIPvNS2_12basic_stringIcNS2_11char_traitsIcEENS2_9allocatorIcEEEEEENS2_10shared_ptrIN2v810PersistentINSD_5ValueENSD_27NonCopyablePersistentTraitsISF_EEEEEEN3tns9pair_hashENS2_8equal_toISB_EEE25insertKeyPrepareEmptySpotIRKSB_EENS3_ImNSO_14InsertionStateEEEOT_, symObjAddr: 0xDB26, symBinAddr: 0x4E356, symSize: 0x160 }
  - { offsetInCU: 0x3FE4C, offset: 0x3225CE, size: 0x8, addend: 0x0, symName: __ZNK10robin_hood6detail5TableILb1ELm80ENSt3__14pairIPvNS2_12basic_stringIcNS2_11char_traitsIcEENS2_9allocatorIcEEEEEENS2_10shared_ptrIN2v810PersistentINSD_5ValueENSD_27NonCopyablePersistentTraitsISF_EEEEEEN3tns9pair_hashENS2_8equal_toISB_EEE18throwOverflowErrorEv, symObjAddr: 0xDC86, symBinAddr: 0x4E4B6, symSize: 0x4C }
  - { offsetInCU: 0x3FE80, offset: 0x322602, size: 0x8, addend: 0x0, symName: __ZN10robin_hood6detail5TableILb1ELm80ENSt3__14pairIPvNS2_12basic_stringIcNS2_11char_traitsIcEENS2_9allocatorIcEEEEEENS2_10shared_ptrIN2v810PersistentINSD_5ValueENSD_27NonCopyablePersistentTraitsISF_EEEEEEN3tns9pair_hashENS2_8equal_toISB_EEE8DataNodeISO_Lb1EED1Ev, symObjAddr: 0xDCD2, symBinAddr: 0x4E502, symSize: 0x2E }
  - { offsetInCU: 0x407CD, offset: 0x322F4F, size: 0x8, addend: 0x0, symName: __ZNK10robin_hood6detail5TableILb1ELm80EPKN3tns13BaseClassMetaENSt3__110unique_ptrIN2v810PersistentINS8_16FunctionTemplateENS8_27NonCopyablePersistentTraitsISA_EEEENS6_14default_deleteISD_EEEENS_4hashIS5_vEENS6_8equal_toIS5_EEE7findIdxIS5_EEmRKT_, symObjAddr: 0xEB06, symBinAddr: 0x4EDF6, symSize: 0xD0 }
  - { offsetInCU: 0x40947, offset: 0x3230C9, size: 0x8, addend: 0x0, symName: __ZN3tns6Caches24registerCacheBoundObjectINS_15MetadataBuilder9CacheItemINS_13BaseClassMetaEEEEEvPT_, symObjAddr: 0x4562, symBinAddr: 0x466B2, symSize: 0x136 }
  - { offsetInCU: 0x40F79, offset: 0x3236FB, size: 0x8, addend: 0x0, symName: __ZN3tns15MetadataBuilder26RegisterInstancePropertiesEN2v85LocalINS1_7ContextEEENS2_INS1_16FunctionTemplateEEEPKNS_13BaseClassMetaENSt3__112basic_stringIcNSA_11char_traitsIcEENSA_9allocatorIcEEEENS_21KnownUnknownClassPairERN10robin_hood6detail5TableILb1ELm80ESG_hNSI_4hashISG_vEENSA_8equal_toISG_EEEE, symObjAddr: 0x48DE, symBinAddr: 0x469CE, symSize: 0x64C }
  - { offsetInCU: 0x42B8E, offset: 0x325310, size: 0x8, addend: 0x0, symName: __ZN3tns15MetadataBuilder23RegisterInstanceMethodsEN2v85LocalINS1_7ContextEEENS2_INS1_16FunctionTemplateEEEPKNS_13BaseClassMetaENS_21KnownUnknownClassPairERN10robin_hood6detail5TableILb1ELm80ENSt3__112basic_stringIcNSE_11char_traitsIcEENSE_9allocatorIcEEEEhNSB_4hashISK_vEENSE_8equal_toISK_EEEE, symObjAddr: 0x4F2A, symBinAddr: 0x4701A, symSize: 0x682 }
  - { offsetInCU: 0x44AC4, offset: 0x327246, size: 0x8, addend: 0x0, symName: __ZN3tns15MetadataBuilder25RegisterInstanceProtocolsEN2v85LocalINS1_7ContextEEENS2_INS1_16FunctionTemplateEEEPKNS_13BaseClassMetaENSt3__112basic_stringIcNSA_11char_traitsIcEENSA_9allocatorIcEEEENS_21KnownUnknownClassPairERN10robin_hood6detail5TableILb1ELm80ESG_hNSI_4hashISG_vEENSA_8equal_toISG_EEEE, symObjAddr: 0x55AC, symBinAddr: 0x4769C, symSize: 0x30C }
  - { offsetInCU: 0x45CB2, offset: 0x328434, size: 0x8, addend: 0x0, symName: __ZN3tns15MetadataBuilder27RegisterAdditionalProtocolsEN2v85LocalINS1_7ContextEEENS2_INS1_16FunctionTemplateEEENS_21KnownUnknownClassPairERKNSt3__16vectorINS8_12basic_stringIcNS8_11char_traitsIcEENS8_9allocatorIcEEEENSD_ISF_EEEERN10robin_hood6detail5TableILb1ELm80ESF_hNSK_4hashISF_vEENS8_8equal_toISF_EEEE, symObjAddr: 0x58B8, symBinAddr: 0x479A8, symSize: 0x47A }
  - { offsetInCU: 0x476B6, offset: 0x329E38, size: 0x8, addend: 0x0, symName: __ZN3tns15MetadataBuilder19RegisterAllocMethodEPN2v87IsolateENS1_5LocalINS1_16FunctionTemplateEEEPKNS_13InterfaceMetaE, symObjAddr: 0x5E3A, symBinAddr: 0x47F2A, symSize: 0x190 }
  - { offsetInCU: 0x47D35, offset: 0x32A4B7, size: 0x8, addend: 0x0, symName: __ZN10robin_hood6detail5TableILb1ELm80EPKN3tns13BaseClassMetaENSt3__110unique_ptrIN2v810PersistentINS8_16FunctionTemplateENS8_27NonCopyablePersistentTraitsISA_EEEENS6_14default_deleteISD_EEEENS_4hashIS5_vEENS6_8equal_toIS5_EEE7emplaceIJRS5_SG_EEENS6_4pairINSL_4IterILb0EEEbEEDpOT_, symObjAddr: 0x73C0, symBinAddr: 0x494B0, symSize: 0x116 }
  - { offsetInCU: 0x48389, offset: 0x32AB0B, size: 0x8, addend: 0x0, symName: __ZN10robin_hood6detail5TableILb1ELm80ENSt3__112basic_stringIcNS2_11char_traitsIcEENS2_9allocatorIcEEEENS2_10unique_ptrIN2v810PersistentINSA_8FunctionENSA_27NonCopyablePersistentTraitsISC_EEEENS2_14default_deleteISF_EEEENS_4hashIS8_vEENS2_8equal_toIS8_EEE7emplaceIJPKcPSF_EEENS2_4pairINSN_4IterILb0EEEbEEDpOT_, symObjAddr: 0x74D6, symBinAddr: 0x495C6, symSize: 0x158 }
  - { offsetInCU: 0x48C12, offset: 0x32B394, size: 0x8, addend: 0x0, symName: __ZN10robin_hood6detail5TableILb1ELm80ENSt3__112basic_stringIcNS2_11char_traitsIcEENS2_9allocatorIcEEEENS2_10unique_ptrIN2v810PersistentINSA_8FunctionENSA_27NonCopyablePersistentTraitsISC_EEEENS2_14default_deleteISF_EEEENS_4hashIS8_vEENS2_8equal_toIS8_EEE7emplaceIJPKcSI_EEENS2_4pairINSN_4IterILb0EEEbEEDpOT_, symObjAddr: 0x762E, symBinAddr: 0x4971E, symSize: 0x15E }
  - { offsetInCU: 0x494CE, offset: 0x32BC50, size: 0x8, addend: 0x0, symName: __ZN3tns15MetadataBuilder21RegisterStaticMethodsEN2v85LocalINS1_7ContextEEENS2_INS1_8FunctionEEEPKNS_13BaseClassMetaENS_21KnownUnknownClassPairERN10robin_hood6detail5TableILb1ELm80ENSt3__112basic_stringIcNSE_11char_traitsIcEENSE_9allocatorIcEEEEhNSB_4hashISK_vEENSE_8equal_toISK_EEEE, symObjAddr: 0x778C, symBinAddr: 0x4987C, symSize: 0x8DE }
  - { offsetInCU: 0x4BF0B, offset: 0x32E68D, size: 0x8, addend: 0x0, symName: __ZN3tns15MetadataBuilder24RegisterStaticPropertiesEN2v85LocalINS1_7ContextEEENS2_INS1_8FunctionEEEPKNS_13BaseClassMetaENSt3__112basic_stringIcNSA_11char_traitsIcEENSA_9allocatorIcEEEENS_21KnownUnknownClassPairERN10robin_hood6detail5TableILb1ELm80ESG_hNSI_4hashISG_vEENSA_8equal_toISG_EEEE, symObjAddr: 0x806A, symBinAddr: 0x4A15A, symSize: 0x624 }
  - { offsetInCU: 0x4DC5D, offset: 0x3303DF, size: 0x8, addend: 0x0, symName: __ZN3tns15MetadataBuilder23RegisterStaticProtocolsEN2v85LocalINS1_7ContextEEENS2_INS1_8FunctionEEEPKNS_13BaseClassMetaENSt3__112basic_stringIcNSA_11char_traitsIcEENSA_9allocatorIcEEEENS_21KnownUnknownClassPairERN10robin_hood6detail5TableILb1ELm80ESG_hNSI_4hashISG_vEENSA_8equal_toISG_EEEE, symObjAddr: 0x868E, symBinAddr: 0x4A77E, symSize: 0x2C4 }
  - { offsetInCU: 0x4ECB7, offset: 0x331439, size: 0x8, addend: 0x0, symName: __ZN10robin_hood6detail5TableILb1ELm80EPKN3tns4MetaENSt3__110unique_ptrIN2v810PersistentINS8_5ValueENS8_27NonCopyablePersistentTraitsISA_EEEENS6_14default_deleteISD_EEEENS_4hashIS5_vEENS6_8equal_toIS5_EEE7emplaceIJRPKNS2_13BaseClassMetaERPSD_EEENS6_4pairINSL_4IterILb0EEEbEEDpOT_, symObjAddr: 0x8952, symBinAddr: 0x4AA42, symSize: 0x110 }
  - { offsetInCU: 0x4F2E6, offset: 0x331A68, size: 0x8, addend: 0x0, symName: __ZZN3tns6Caches11unique_voidINS_15MetadataBuilder9CacheItemINS_13BaseClassMetaEEEEENSt3__110unique_ptrIvPFvPKvEEEPT_ENUlS9_E_8__invokeES9_, symObjAddr: 0xEBD6, symBinAddr: 0x4EEC6, symSize: 0x2C }
  - { offsetInCU: 0x4F311, offset: 0x331A93, size: 0x8, addend: 0x0, symName: __ZZN3tns6Caches11unique_voidINS_15MetadataBuilder9CacheItemINS_13BaseClassMetaEEEEENSt3__110unique_ptrIvPFvPKvEEEPT_ENUlS9_E_8__invokeES9_, symObjAddr: 0xEBD6, symBinAddr: 0x4EEC6, symSize: 0x2C }
  - { offsetInCU: 0x4F47F, offset: 0x331C01, size: 0x8, addend: 0x0, symName: __ZN3tns15MetadataBuilder24ClassConstructorCallbackERKN2v820FunctionCallbackInfoINS1_5ValueEEE, symObjAddr: 0x4698, symBinAddr: 0x467E8, symSize: 0x1E0 }
  - { offsetInCU: 0x501AF, offset: 0x332931, size: 0x8, addend: 0x0, symName: __ZNK10robin_hood6detail5TableILb1ELm80ENSt3__112basic_stringIcNS2_11char_traitsIcEENS2_9allocatorIcEEEEhNS_4hashIS8_vEENS2_8equal_toIS8_EEE7findIdxIS8_EEmRKT_, symObjAddr: 0xFB6E, symBinAddr: 0x4FE5E, symSize: 0xEA }
  - { offsetInCU: 0x502D2, offset: 0x332A54, size: 0x8, addend: 0x0, symName: __ZN3tns6Caches24registerCacheBoundObjectINS_15MetadataBuilder9CacheItemINS_12PropertyMetaEEEEEvPT_, symObjAddr: 0x927C, symBinAddr: 0x4B36C, symSize: 0x136 }
  - { offsetInCU: 0x50798, offset: 0x332F1A, size: 0x8, addend: 0x0, symName: __ZN10robin_hood6detail5TableILb1ELm80ENSt3__112basic_stringIcNS2_11char_traitsIcEENS2_9allocatorIcEEEEhNS_4hashIS8_vEENS2_8equal_toIS8_EEE7emplaceIJRS8_RhEEENS2_4pairINSD_4IterILb0EEEbEEDpOT_, symObjAddr: 0x978C, symBinAddr: 0x4B87C, symSize: 0x142 }
  - { offsetInCU: 0x511AC, offset: 0x33392E, size: 0x8, addend: 0x0, symName: __ZN3tns6Caches24registerCacheBoundObjectINS_15MetadataBuilder9CacheItemINS_10MethodMetaEEEEEvPT_, symObjAddr: 0x8DFA, symBinAddr: 0x4AEEA, symSize: 0x136 }
  - { offsetInCU: 0x51672, offset: 0x333DF4, size: 0x8, addend: 0x0, symName: __ZN10robin_hood6detail5TableILb1ELm80ENSt3__112basic_stringIcNS2_11char_traitsIcEENS2_9allocatorIcEEEEhNS_4hashIS8_vEENS2_8equal_toIS8_EEE7emplaceIJRS8_iEEENS2_4pairINSD_4IterILb0EEEbEEDpOT_, symObjAddr: 0x913A, symBinAddr: 0x4B22A, symSize: 0x142 }
  - { offsetInCU: 0x52115, offset: 0x334897, size: 0x8, addend: 0x0, symName: __ZNSt3__16vectorINS_12basic_stringIcNS_11char_traitsIcEENS_9allocatorIcEEEENS4_IS6_EEE21__push_back_slow_pathIRKS6_EEvOT_, symObjAddr: 0x10486, symBinAddr: 0x50776, symSize: 0x114 }
  - { offsetInCU: 0x52471, offset: 0x334BF3, size: 0x8, addend: 0x0, symName: __ZN3tns15MetadataBuilder24ToStringFunctionCallbackERKN2v820FunctionCallbackInfoINS1_5ValueEEE, symObjAddr: 0x5D32, symBinAddr: 0x47E22, symSize: 0x108 }
  - { offsetInCU: 0x529C1, offset: 0x335143, size: 0x8, addend: 0x0, symName: __ZN3tns6Caches24registerCacheBoundObjectINS_15MetadataBuilder9CacheItemINS_13InterfaceMetaEEEEEvPT_, symObjAddr: 0x8A62, symBinAddr: 0x4AB52, symSize: 0x136 }
  - { offsetInCU: 0x53420, offset: 0x335BA2, size: 0x8, addend: 0x0, symName: __ZNK3tns5ArrayINS_5PtrToINS_10MethodMetaEEEE12binarySearchENSt3__18functionIFiRKS3_EEE, symObjAddr: 0xA852, symBinAddr: 0x4C902, symSize: 0x88 }
  - { offsetInCU: 0x5351B, offset: 0x335C9D, size: 0x8, addend: 0x0, symName: __ZN3tns21MethodCallbackWrapperC2EPN2v87IsolateENSt3__110shared_ptrINS1_10PersistentINS1_5ValueENS1_27NonCopyablePersistentTraitsIS7_EEEEEEhhPKNS_12TypeEncodingE, symObjAddr: 0xB608, symBinAddr: 0x4CDF8, symSize: 0xE2 }
  - { offsetInCU: 0x53FCA, offset: 0x33674C, size: 0x8, addend: 0x0, symName: __ZNK3tns5ArrayINS_5PtrToINS_12PropertyMetaEEEE12binarySearchENSt3__18functionIFiRKS3_EEE, symObjAddr: 0xABA4, symBinAddr: 0x4CA54, symSize: 0x88 }
  - { offsetInCU: 0x540C5, offset: 0x336847, size: 0x8, addend: 0x0, symName: __ZNSt3__110shared_ptrIN2v810PersistentINS1_8FunctionENS1_27NonCopyablePersistentTraitsIS3_EEEEED2B8ue170006Ev, symObjAddr: 0xCB00, symBinAddr: 0x4D930, symSize: 0x40 }
  - { offsetInCU: 0x545BC, offset: 0x336D3E, size: 0x8, addend: 0x0, symName: __ZN10robin_hood6detail5TableILb1ELm80EPKN3tns13BaseClassMetaENSt3__110unique_ptrIN2v810PersistentINS8_16FunctionTemplateENS8_27NonCopyablePersistentTraitsISA_EEEENS6_14default_deleteISD_EEEENS_4hashIS5_vEENS6_8equal_toIS5_EEE25insertKeyPrepareEmptySpotIRKS5_EENS6_4pairImNSL_14InsertionStateEEEOT_, symObjAddr: 0xEC02, symBinAddr: 0x4EEF2, symSize: 0x160 }
  - { offsetInCU: 0x54756, offset: 0x336ED8, size: 0x8, addend: 0x0, symName: __ZNK10robin_hood6detail5TableILb1ELm80EPKN3tns13BaseClassMetaENSt3__110unique_ptrIN2v810PersistentINS8_16FunctionTemplateENS8_27NonCopyablePersistentTraitsISA_EEEENS6_14default_deleteISD_EEEENS_4hashIS5_vEENS6_8equal_toIS5_EEE18throwOverflowErrorEv, symObjAddr: 0xED62, symBinAddr: 0x4F052, symSize: 0x4C }
  - { offsetInCU: 0x55074, offset: 0x3377F6, size: 0x8, addend: 0x0, symName: __ZN10robin_hood6detail5TableILb1ELm80EPKN3tns4MetaENSt3__110unique_ptrIN2v810PersistentINS8_5ValueENS8_27NonCopyablePersistentTraitsISA_EEEENS6_14default_deleteISD_EEEENS_4hashIS5_vEENS6_8equal_toIS5_EEE25insertKeyPrepareEmptySpotIRKS5_EENS6_4pairImNSL_14InsertionStateEEEOT_, symObjAddr: 0xF3A2, symBinAddr: 0x4F692, symSize: 0x160 }
  - { offsetInCU: 0x5520E, offset: 0x337990, size: 0x8, addend: 0x0, symName: __ZNK10robin_hood6detail5TableILb1ELm80EPKN3tns4MetaENSt3__110unique_ptrIN2v810PersistentINS8_5ValueENS8_27NonCopyablePersistentTraitsISA_EEEENS6_14default_deleteISD_EEEENS_4hashIS5_vEENS6_8equal_toIS5_EEE18throwOverflowErrorEv, symObjAddr: 0xF502, symBinAddr: 0x4F7F2, symSize: 0x4C }
  - { offsetInCU: 0x55269, offset: 0x3379EB, size: 0x8, addend: 0x0, symName: __ZZN3tns6Caches11unique_voidINS_15MetadataBuilder9CacheItemINS_13InterfaceMetaEEEEENSt3__110unique_ptrIvPFvPKvEEEPT_ENUlS9_E_8__invokeES9_, symObjAddr: 0xFB42, symBinAddr: 0x4FE32, symSize: 0x2C }
  - { offsetInCU: 0x55294, offset: 0x337A16, size: 0x8, addend: 0x0, symName: __ZZN3tns6Caches11unique_voidINS_15MetadataBuilder9CacheItemINS_13InterfaceMetaEEEEENSt3__110unique_ptrIvPFvPKvEEEPT_ENUlS9_E_8__invokeES9_, symObjAddr: 0xFB42, symBinAddr: 0x4FE32, symSize: 0x2C }
  - { offsetInCU: 0x55470, offset: 0x337BF2, size: 0x8, addend: 0x0, symName: __ZN3tns15MetadataBuilder13AllocCallbackERKN2v820FunctionCallbackInfoINS1_5ValueEEE, symObjAddr: 0x8B98, symBinAddr: 0x4AC88, symSize: 0x262 }
  - { offsetInCU: 0x55EE8, offset: 0x33866A, size: 0x8, addend: 0x0, symName: __ZZN3tns6Caches11unique_voidINS_15MetadataBuilder9CacheItemINS_10MethodMetaEEEEENSt3__110unique_ptrIvPFvPKvEEEPT_ENUlS9_E_8__invokeES9_, symObjAddr: 0xFC58, symBinAddr: 0x4FF48, symSize: 0x2C }
  - { offsetInCU: 0x55F13, offset: 0x338695, size: 0x8, addend: 0x0, symName: __ZZN3tns6Caches11unique_voidINS_15MetadataBuilder9CacheItemINS_10MethodMetaEEEEENSt3__110unique_ptrIvPFvPKvEEEPT_ENUlS9_E_8__invokeES9_, symObjAddr: 0xFC58, symBinAddr: 0x4FF48, symSize: 0x2C }
  - { offsetInCU: 0x560A3, offset: 0x338825, size: 0x8, addend: 0x0, symName: __ZN3tns15MetadataBuilder14MethodCallbackERKN2v820FunctionCallbackInfoINS1_5ValueEEE, symObjAddr: 0x8F30, symBinAddr: 0x4B020, symSize: 0x20A }
  - { offsetInCU: 0x5690B, offset: 0x33908D, size: 0x8, addend: 0x0, symName: __ZN3tns15MetadataBuilder12InvokeMethodEN2v85LocalINS1_7ContextEEEPKNS_10MethodMetaENS2_INS1_6ObjectEEERNS_6V8ArgsENSt3__112basic_stringIcNSC_11char_traitsIcEENSC_9allocatorIcEEEEb, symObjAddr: 0x9C9A, symBinAddr: 0x4BD4A, symSize: 0xA2 }
  - { offsetInCU: 0x56DB5, offset: 0x339537, size: 0x8, addend: 0x0, symName: __ZN10robin_hood6detail5TableILb1ELm80ENSt3__112basic_stringIcNS2_11char_traitsIcEENS2_9allocatorIcEEEEhNS_4hashIS8_vEENS2_8equal_toIS8_EEE25insertKeyPrepareEmptySpotIRKS8_EENS2_4pairImNSD_14InsertionStateEEEOT_, symObjAddr: 0xFC84, symBinAddr: 0x4FF74, symSize: 0x15C }
  - { offsetInCU: 0x56EFD, offset: 0x33967F, size: 0x8, addend: 0x0, symName: __ZNK10robin_hood6detail5TableILb1ELm80ENSt3__112basic_stringIcNS2_11char_traitsIcEENS2_9allocatorIcEEEEhNS_4hashIS8_vEENS2_8equal_toIS8_EEE18throwOverflowErrorEv, symObjAddr: 0xFDE0, symBinAddr: 0x500D0, symSize: 0x4C }
  - { offsetInCU: 0x56F58, offset: 0x3396DA, size: 0x8, addend: 0x0, symName: __ZZN3tns6Caches11unique_voidINS_15MetadataBuilder9CacheItemINS_12PropertyMetaEEEEENSt3__110unique_ptrIvPFvPKvEEEPT_ENUlS9_E_8__invokeES9_, symObjAddr: 0x1045A, symBinAddr: 0x5074A, symSize: 0x2C }
  - { offsetInCU: 0x56F83, offset: 0x339705, size: 0x8, addend: 0x0, symName: __ZZN3tns6Caches11unique_voidINS_15MetadataBuilder9CacheItemINS_12PropertyMetaEEEEENSt3__110unique_ptrIvPFvPKvEEEPT_ENUlS9_E_8__invokeES9_, symObjAddr: 0x1045A, symBinAddr: 0x5074A, symSize: 0x2C }
  - { offsetInCU: 0x57140, offset: 0x3398C2, size: 0x8, addend: 0x0, symName: __ZN3tns15MetadataBuilder22PropertyGetterCallbackERKN2v820FunctionCallbackInfoINS1_5ValueEEE, symObjAddr: 0x93B2, symBinAddr: 0x4B4A2, symSize: 0x1E4 }
  - { offsetInCU: 0x57AEF, offset: 0x33A271, size: 0x8, addend: 0x0, symName: __ZN3tns15MetadataBuilder22PropertySetterCallbackERKN2v820FunctionCallbackInfoINS1_5ValueEEE, symObjAddr: 0x9596, symBinAddr: 0x4B686, symSize: 0x1F6 }
  - { offsetInCU: 0x583B4, offset: 0x33AB36, size: 0x8, addend: 0x0, symName: __ZN3tns15MetadataBuilder26PropertyNameGetterCallbackEN2v85LocalINS1_4NameEEERKNS1_20PropertyCallbackInfoINS1_5ValueEEE, symObjAddr: 0x98CE, symBinAddr: 0x4B9BE, symSize: 0x1C2 }
  - { offsetInCU: 0x58D17, offset: 0x33B499, size: 0x8, addend: 0x0, symName: __ZN3tns15MetadataBuilder26PropertyNameSetterCallbackEN2v85LocalINS1_4NameEEENS2_INS1_5ValueEEERKNS1_20PropertyCallbackInfoIvEE, symObjAddr: 0x9A90, symBinAddr: 0x4BB80, symSize: 0x1C8 }
  - { offsetInCU: 0x5999E, offset: 0x33C120, size: 0x8, addend: 0x0, symName: __ZN3tns15MetadataBuilder28StructPropertyGetterCallbackEN2v85LocalINS1_4NameEEERKNS1_20PropertyCallbackInfoINS1_5ValueEEE, symObjAddr: 0x9D3C, symBinAddr: 0x4BDEC, symSize: 0x5E4 }
  - { offsetInCU: 0x5B8DE, offset: 0x33E060, size: 0x8, addend: 0x0, symName: __ZNSt3__110shared_ptrIN2v810PersistentINS1_5ValueENS1_27NonCopyablePersistentTraitsIS3_EEEEEaSB8ue170006ERKS7_, symObjAddr: 0xA320, symBinAddr: 0x4C3D0, symSize: 0x56 }
  - { offsetInCU: 0x5BAC4, offset: 0x33E246, size: 0x8, addend: 0x0, symName: __ZN3tns15MetadataBuilder28StructPropertySetterCallbackEN2v85LocalINS1_4NameEEENS2_INS1_5ValueEEERKNS1_20PropertyCallbackInfoIS5_EE, symObjAddr: 0xA376, symBinAddr: 0x4C426, symSize: 0x3A8 }
  - { offsetInCU: 0x5D234, offset: 0x33F9B6, size: 0x8, addend: 0x0, symName: __ZNSt3__114__split_bufferINS_10shared_ptrIN2v810PersistentINS2_5ValueENS2_27NonCopyablePersistentTraitsIS4_EEEEEERNS_9allocatorIS8_EEED2Ev, symObjAddr: 0x10D42, symBinAddr: 0x50A32, symSize: 0x40 }
  - { offsetInCU: 0x5D3D3, offset: 0x33FB55, size: 0x8, addend: 0x0, symName: __ZNKSt3__16vectorINS_10shared_ptrIN2v810PersistentINS2_5ValueENS2_27NonCopyablePersistentTraitsIS4_EEEEEENS_9allocatorIS8_EEE20__throw_length_errorB8ue170006Ev, symObjAddr: 0x10D04, symBinAddr: 0x509F4, symSize: 0x10 }
  - { offsetInCU: 0x5D3FC, offset: 0x33FB7E, size: 0x8, addend: 0x0, symName: __ZNSt3__119__allocate_at_leastB8ue170006INS_9allocatorINS_10shared_ptrIN2v810PersistentINS3_5ValueENS3_27NonCopyablePersistentTraitsIS5_EEEEEEEEEENS_19__allocation_resultINS_16allocator_traitsIT_E7pointerEEERSD_m, symObjAddr: 0x10D14, symBinAddr: 0x50A04, symSize: 0x2E }
  - { offsetInCU: 0x5DA47, offset: 0x3401C9, size: 0x8, addend: 0x0, symName: '__ZNSt3__110__function6__funcIZN3tns15MetadataBuilder24SwizzledPropertyCallbackEN2v85LocalINS4_4NameEEERKNS4_18PropertyDescriptorERKNS4_20PropertyCallbackInfoINS4_5ValueEEEE3$_4NS_9allocatorISG_EEFiRKNS2_5PtrToINS2_12PropertyMetaEEEEED1Ev', symObjAddr: 0x117DA, symBinAddr: 0x5131A, symSize: 0x20 }
  - { offsetInCU: 0x5DF1B, offset: 0x34069D, size: 0x8, addend: 0x0, symName: __ZN3tns15FunctionWrapperD1Ev, symObjAddr: 0xAE5C, symBinAddr: 0x4CADC, symSize: 0x6 }
  - { offsetInCU: 0x5DF47, offset: 0x3406C9, size: 0x8, addend: 0x0, symName: __ZN3tns15FunctionWrapperD0Ev, symObjAddr: 0xAE62, symBinAddr: 0x4CAE2, symSize: 0xA }
  - { offsetInCU: 0x5DF73, offset: 0x3406F5, size: 0x8, addend: 0x0, symName: __ZN3tns15FunctionWrapper4TypeEv, symObjAddr: 0xAE6C, symBinAddr: 0x4CAEC, symSize: 0xC }
  - { offsetInCU: 0x5E1AF, offset: 0x340931, size: 0x8, addend: 0x0, symName: __ZNKSt3__16vectorIN3tns11StructFieldENS_9allocatorIS2_EEE20__throw_length_errorB8ue170006Ev, symObjAddr: 0xAF30, symBinAddr: 0x4CB00, symSize: 0x10 }
  - { offsetInCU: 0x5E1BA, offset: 0x34093C, size: 0x8, addend: 0x0, symName: __ZNKSt3__16vectorIN3tns11StructFieldENS_9allocatorIS2_EEE20__throw_length_errorB8ue170006Ev, symObjAddr: 0xAF30, symBinAddr: 0x4CB00, symSize: 0x10 }
  - { offsetInCU: 0x5E1E3, offset: 0x340965, size: 0x8, addend: 0x0, symName: __ZNSt3__119__allocate_at_leastB8ue170006INS_9allocatorIN3tns11StructFieldEEEEENS_19__allocation_resultINS_16allocator_traitsIT_E7pointerEEERS7_m, symObjAddr: 0xAF40, symBinAddr: 0x4CB10, symSize: 0x37 }
  - { offsetInCU: 0x5E3AE, offset: 0x340B30, size: 0x8, addend: 0x0, symName: __ZNKSt3__129_AllocatorDestroyRangeReverseINS_9allocatorIN3tns11StructFieldEEEPS3_EclB8ue170006Ev, symObjAddr: 0xB070, symBinAddr: 0x4CB50, symSize: 0x3A }
  - { offsetInCU: 0x5E85A, offset: 0x340FDC, size: 0x8, addend: 0x0, symName: __ZN3tns17StructTypeWrapperD0Ev, symObjAddr: 0xB210, symBinAddr: 0x4CC50, symSize: 0x46 }
  - { offsetInCU: 0x5EABF, offset: 0x341241, size: 0x8, addend: 0x0, symName: __ZN3tns13StructWrapperD1Ev, symObjAddr: 0xB380, symBinAddr: 0x4CCA0, symSize: 0x54 }
  - { offsetInCU: 0x5ED42, offset: 0x3414C4, size: 0x8, addend: 0x0, symName: __ZN3tns13StructWrapperD0Ev, symObjAddr: 0xB3D4, symBinAddr: 0x4CCF4, symSize: 0x5C }
  - { offsetInCU: 0x5EFD1, offset: 0x341753, size: 0x8, addend: 0x0, symName: __ZN3tns13StructWrapper4TypeEv, symObjAddr: 0xB430, symBinAddr: 0x4CD50, symSize: 0xC }
  - { offsetInCU: 0x5EFF6, offset: 0x341778, size: 0x8, addend: 0x0, symName: __ZN3tns19ObjCProtocolWrapperD1Ev, symObjAddr: 0xB43C, symBinAddr: 0x4CD5C, symSize: 0x6 }
  - { offsetInCU: 0x5F022, offset: 0x3417A4, size: 0x8, addend: 0x0, symName: __ZN3tns19ObjCProtocolWrapperD0Ev, symObjAddr: 0xB442, symBinAddr: 0x4CD62, symSize: 0xA }
  - { offsetInCU: 0x5F04E, offset: 0x3417D0, size: 0x8, addend: 0x0, symName: __ZN3tns19ObjCProtocolWrapper4TypeEv, symObjAddr: 0xB44C, symBinAddr: 0x4CD6C, symSize: 0xC }
  - { offsetInCU: 0x5F073, offset: 0x3417F5, size: 0x8, addend: 0x0, symName: __ZN3tns20ObjCAllocDataWrapperD1Ev, symObjAddr: 0xB58C, symBinAddr: 0x4CD7C, symSize: 0x6 }
  - { offsetInCU: 0x5F09F, offset: 0x341821, size: 0x8, addend: 0x0, symName: __ZN3tns20ObjCAllocDataWrapperD0Ev, symObjAddr: 0xB592, symBinAddr: 0x4CD82, symSize: 0xA }
  - { offsetInCU: 0x5F0CB, offset: 0x34184D, size: 0x8, addend: 0x0, symName: __ZN3tns20ObjCAllocDataWrapper4TypeEv, symObjAddr: 0xB59C, symBinAddr: 0x4CD8C, symSize: 0xC }
  - { offsetInCU: 0x5F0F0, offset: 0x341872, size: 0x8, addend: 0x0, symName: __ZNK3tns22V8FunctionCallbackArgsixEi, symObjAddr: 0xB5A8, symBinAddr: 0x4CD98, symSize: 0x28 }
  - { offsetInCU: 0x5F166, offset: 0x3418E8, size: 0x8, addend: 0x0, symName: __ZNK3tns22V8FunctionCallbackArgs6LengthEv, symObjAddr: 0xB5D0, symBinAddr: 0x4CDC0, symSize: 0xE }
  - { offsetInCU: 0x5F1A7, offset: 0x341929, size: 0x8, addend: 0x0, symName: __ZNK3tns16V8EmptyValueArgsixEi, symObjAddr: 0xB5DE, symBinAddr: 0x4CDCE, symSize: 0x8 }
  - { offsetInCU: 0x5F1D9, offset: 0x34195B, size: 0x8, addend: 0x0, symName: __ZNK3tns16V8EmptyValueArgs6LengthEv, symObjAddr: 0xB5E6, symBinAddr: 0x4CDD6, symSize: 0x8 }
  - { offsetInCU: 0x5F1FE, offset: 0x341980, size: 0x8, addend: 0x0, symName: __ZNK3tns17V8SimpleValueArgsixEi, symObjAddr: 0xB5EE, symBinAddr: 0x4CDDE, symSize: 0xE }
  - { offsetInCU: 0x5F230, offset: 0x3419B2, size: 0x8, addend: 0x0, symName: __ZNK3tns17V8SimpleValueArgs6LengthEv, symObjAddr: 0xB5FC, symBinAddr: 0x4CDEC, symSize: 0xC }
  - { offsetInCU: 0x5F6BE, offset: 0x341E40, size: 0x8, addend: 0x0, symName: __ZN10robin_hood6detail5TableILb1ELm80EPKN3tns10MethodMetaEP13objc_selectorNS_4hashIS5_vEENSt3__18equal_toIS5_EEE13increase_sizeEv, symObjAddr: 0xBA20, symBinAddr: 0x4CEE0, symSize: 0x108 }
  - { offsetInCU: 0x5FF0E, offset: 0x342690, size: 0x8, addend: 0x0, symName: '__ZZN3tns15MetadataBuilder24SwizzledPropertyCallbackEN2v85LocalINS1_4NameEEERKNS1_18PropertyDescriptorERKNS1_20PropertyCallbackInfoINS1_5ValueEEEEN3$_58__invokeEP7ffi_cifPvPSG_SG_', symObjAddr: 0xBFD8, symBinAddr: 0x4CFE8, symSize: 0x44C }
  - { offsetInCU: 0x61555, offset: 0x343CD7, size: 0x8, addend: 0x0, symName: '__ZZN3tns15MetadataBuilder24SwizzledPropertyCallbackEN2v85LocalINS1_4NameEEERKNS1_18PropertyDescriptorERKNS1_20PropertyCallbackInfoINS1_5ValueEEEEN3$_68__invokeEP7ffi_cifPvPSG_SG_', symObjAddr: 0xC520, symBinAddr: 0x4D440, symSize: 0x4E4 }
  - { offsetInCU: 0x62DD4, offset: 0x345556, size: 0x8, addend: 0x0, symName: __ZNSt3__114__split_bufferINS_10unique_ptrIvPFvPKvEEERNS_9allocatorIS6_EEE17__destruct_at_endB8ue170006EPS6_, symObjAddr: 0xCE60, symBinAddr: 0x4DA20, symSize: 0x48 }
  - { offsetInCU: 0x62EE3, offset: 0x345665, size: 0x8, addend: 0x0, symName: __ZZN3tns6Caches11unique_voidINS_15MetadataBuilder20GlobalHandlerContextEEENSt3__110unique_ptrIvPFvPKvEEEPT_ENUlS7_E_8__invokeES7_, symObjAddr: 0xCEA8, symBinAddr: 0x4DA68, symSize: 0x11 }
  - { offsetInCU: 0x631BD, offset: 0x34593F, size: 0x8, addend: 0x0, symName: __ZN10robin_hood6detail5TableILb1ELm80ENSt3__112basic_stringIcNS2_11char_traitsIcEENS2_9allocatorIcEEEENS2_10unique_ptrIN2v810PersistentINSA_8FunctionENSA_27NonCopyablePersistentTraitsISC_EEEENS2_14default_deleteISF_EEEENS_4hashIS8_vEENS2_8equal_toIS8_EEE13increase_sizeEv, symObjAddr: 0xD4B8, symBinAddr: 0x4DCE8, symSize: 0x108 }
  - { offsetInCU: 0x63278, offset: 0x3459FA, size: 0x8, addend: 0x0, symName: __ZN10robin_hood6detail5TableILb1ELm80ENSt3__112basic_stringIcNS2_11char_traitsIcEENS2_9allocatorIcEEEENS2_10unique_ptrIN2v810PersistentINSA_8FunctionENSA_27NonCopyablePersistentTraitsISC_EEEENS2_14default_deleteISF_EEEENS_4hashIS8_vEENS2_8equal_toIS8_EEE7shiftUpEmm, symObjAddr: 0xD5C0, symBinAddr: 0x4DDF0, symSize: 0x120 }
  - { offsetInCU: 0x635A1, offset: 0x345D23, size: 0x8, addend: 0x0, symName: __ZN10robin_hood6detail5TableILb1ELm80ENSt3__112basic_stringIcNS2_11char_traitsIcEENS2_9allocatorIcEEEENS2_10unique_ptrIN2v810PersistentINSA_8FunctionENSA_27NonCopyablePersistentTraitsISC_EEEENS2_14default_deleteISF_EEEENS_4hashIS8_vEENS2_8equal_toIS8_EEE17try_increase_infoEv, symObjAddr: 0xD7C8, symBinAddr: 0x4DFF8, symSize: 0xE8 }
  - { offsetInCU: 0x63690, offset: 0x345E12, size: 0x8, addend: 0x0, symName: __ZN10robin_hood6detail5TableILb1ELm80ENSt3__112basic_stringIcNS2_11char_traitsIcEENS2_9allocatorIcEEEENS2_10unique_ptrIN2v810PersistentINSA_8FunctionENSA_27NonCopyablePersistentTraitsISC_EEEENS2_14default_deleteISF_EEEENS_4hashIS8_vEENS2_8equal_toIS8_EEE8initDataEm, symObjAddr: 0xD6E0, symBinAddr: 0x4DF10, symSize: 0xE8 }
  - { offsetInCU: 0x6376F, offset: 0x345EF1, size: 0x8, addend: 0x0, symName: __ZN10robin_hood6detail5TableILb1ELm80ENSt3__112basic_stringIcNS2_11char_traitsIcEENS2_9allocatorIcEEEENS2_10unique_ptrIN2v810PersistentINSA_8FunctionENSA_27NonCopyablePersistentTraitsISC_EEEENS2_14default_deleteISF_EEEENS_4hashIS8_vEENS2_8equal_toIS8_EEE17try_increase_infoEv, symObjAddr: 0xD7C8, symBinAddr: 0x4DFF8, symSize: 0xE8 }
  - { offsetInCU: 0x6377A, offset: 0x345EFC, size: 0x8, addend: 0x0, symName: __ZN10robin_hood6detail5TableILb1ELm80ENSt3__112basic_stringIcNS2_11char_traitsIcEENS2_9allocatorIcEEEENS2_10unique_ptrIN2v810PersistentINSA_8FunctionENSA_27NonCopyablePersistentTraitsISC_EEEENS2_14default_deleteISF_EEEENS_4hashIS8_vEENS2_8equal_toIS8_EEE16rehashPowerOfTwoEmb, symObjAddr: 0xD8B0, symBinAddr: 0x4E0E0, symSize: 0x118 }
  - { offsetInCU: 0x63BA0, offset: 0x346322, size: 0x8, addend: 0x0, symName: __ZN10robin_hood6detail5TableILb1ELm80ENSt3__112basic_stringIcNS2_11char_traitsIcEENS2_9allocatorIcEEEENS2_10unique_ptrIN2v810PersistentINSA_8FunctionENSA_27NonCopyablePersistentTraitsISC_EEEENS2_14default_deleteISF_EEEENS_4hashIS8_vEENS2_8equal_toIS8_EEE11insert_moveEONSN_8DataNodeISN_Lb1EEE, symObjAddr: 0xD9C8, symBinAddr: 0x4E1F8, symSize: 0x15E }
  - { offsetInCU: 0x64332, offset: 0x346AB4, size: 0x8, addend: 0x0, symName: __ZN10robin_hood6detail5TableILb1ELm80ENSt3__14pairIPvNS2_12basic_stringIcNS2_11char_traitsIcEENS2_9allocatorIcEEEEEENS2_10shared_ptrIN2v810PersistentINSD_5ValueENSD_27NonCopyablePersistentTraitsISF_EEEEEEN3tns9pair_hashENS2_8equal_toISB_EEE13increase_sizeEv, symObjAddr: 0xDDCE, symBinAddr: 0x4E56E, symSize: 0x108 }
  - { offsetInCU: 0x643ED, offset: 0x346B6F, size: 0x8, addend: 0x0, symName: __ZN10robin_hood6detail5TableILb1ELm80ENSt3__14pairIPvNS2_12basic_stringIcNS2_11char_traitsIcEENS2_9allocatorIcEEEEEENS2_10shared_ptrIN2v810PersistentINSD_5ValueENSD_27NonCopyablePersistentTraitsISF_EEEEEEN3tns9pair_hashENS2_8equal_toISB_EEE7shiftUpEmm, symObjAddr: 0xDED6, symBinAddr: 0x4E676, symSize: 0x12C }
  - { offsetInCU: 0x646B9, offset: 0x346E3B, size: 0x8, addend: 0x0, symName: __ZN10robin_hood6detail5TableILb1ELm80ENSt3__14pairIPvNS2_12basic_stringIcNS2_11char_traitsIcEENS2_9allocatorIcEEEEEENS2_10shared_ptrIN2v810PersistentINSD_5ValueENSD_27NonCopyablePersistentTraitsISF_EEEEEEN3tns9pair_hashENS2_8equal_toISB_EEE17try_increase_infoEv, symObjAddr: 0xE64E, symBinAddr: 0x4E97E, symSize: 0xE8 }
  - { offsetInCU: 0x647A8, offset: 0x346F2A, size: 0x8, addend: 0x0, symName: __ZN10robin_hood6detail5TableILb1ELm80ENSt3__14pairIPvNS2_12basic_stringIcNS2_11char_traitsIcEENS2_9allocatorIcEEEEEENS2_10shared_ptrIN2v810PersistentINSD_5ValueENSD_27NonCopyablePersistentTraitsISF_EEEEEEN3tns9pair_hashENS2_8equal_toISB_EEE8initDataEm, symObjAddr: 0xE566, symBinAddr: 0x4E896, symSize: 0xE8 }
  - { offsetInCU: 0x64887, offset: 0x347009, size: 0x8, addend: 0x0, symName: __ZN10robin_hood6detail5TableILb1ELm80ENSt3__14pairIPvNS2_12basic_stringIcNS2_11char_traitsIcEENS2_9allocatorIcEEEEEENS2_10shared_ptrIN2v810PersistentINSD_5ValueENSD_27NonCopyablePersistentTraitsISF_EEEEEEN3tns9pair_hashENS2_8equal_toISB_EEE17try_increase_infoEv, symObjAddr: 0xE64E, symBinAddr: 0x4E97E, symSize: 0xE8 }
  - { offsetInCU: 0x64892, offset: 0x347014, size: 0x8, addend: 0x0, symName: __ZN10robin_hood6detail5TableILb1ELm80ENSt3__14pairIPvNS2_12basic_stringIcNS2_11char_traitsIcEENS2_9allocatorIcEEEEEENS2_10shared_ptrIN2v810PersistentINSD_5ValueENSD_27NonCopyablePersistentTraitsISF_EEEEEEN3tns9pair_hashENS2_8equal_toISB_EEE16rehashPowerOfTwoEmb, symObjAddr: 0xE736, symBinAddr: 0x4EA66, symSize: 0x110 }
  - { offsetInCU: 0x65280, offset: 0x347A02, size: 0x8, addend: 0x0, symName: __ZNSt3__121__murmur2_or_cityhashImLm64EE18__hash_len_0_to_16B8ue170006EPKcm, symObjAddr: 0xE318, symBinAddr: 0x4E7A8, symSize: 0xE2 }
  - { offsetInCU: 0x656C3, offset: 0x347E45, size: 0x8, addend: 0x0, symName: __ZN10robin_hood6detail5TableILb1ELm80ENSt3__14pairIPvNS2_12basic_stringIcNS2_11char_traitsIcEENS2_9allocatorIcEEEEEENS2_10shared_ptrIN2v810PersistentINSD_5ValueENSD_27NonCopyablePersistentTraitsISF_EEEEEEN3tns9pair_hashENS2_8equal_toISB_EEE11insert_moveEONSO_8DataNodeISO_Lb1EEE, symObjAddr: 0xE846, symBinAddr: 0x4EB76, symSize: 0x17C }
  - { offsetInCU: 0x65B7C, offset: 0x3482FE, size: 0x8, addend: 0x0, symName: __ZNK10robin_hood6detail5TableILb1ELm80ENSt3__112basic_stringIcNS2_11char_traitsIcEENS2_9allocatorIcEEEEhNS_4hashIS8_vEENS2_8equal_toIS8_EEE9DestroyerISD_Lb0EE20nodesDoNotDeallocateERSD_, symObjAddr: 0xEA48, symBinAddr: 0x4ED38, symSize: 0xBE }
  - { offsetInCU: 0x65FEC, offset: 0x34876E, size: 0x8, addend: 0x0, symName: __ZN10robin_hood6detail5TableILb1ELm80EPKN3tns13BaseClassMetaENSt3__110unique_ptrIN2v810PersistentINS8_16FunctionTemplateENS8_27NonCopyablePersistentTraitsISA_EEEENS6_14default_deleteISD_EEEENS_4hashIS5_vEENS6_8equal_toIS5_EEE13increase_sizeEv, symObjAddr: 0xEDAE, symBinAddr: 0x4F09E, symSize: 0x108 }
  - { offsetInCU: 0x660A7, offset: 0x348829, size: 0x8, addend: 0x0, symName: __ZN10robin_hood6detail5TableILb1ELm80EPKN3tns13BaseClassMetaENSt3__110unique_ptrIN2v810PersistentINS8_16FunctionTemplateENS8_27NonCopyablePersistentTraitsISA_EEEENS6_14default_deleteISD_EEEENS_4hashIS5_vEENS6_8equal_toIS5_EEE7shiftUpEmm, symObjAddr: 0xEEB6, symBinAddr: 0x4F1A6, symSize: 0xD2 }
  - { offsetInCU: 0x6624E, offset: 0x3489D0, size: 0x8, addend: 0x0, symName: __ZN10robin_hood6detail5TableILb1ELm80EPKN3tns13BaseClassMetaENSt3__110unique_ptrIN2v810PersistentINS8_16FunctionTemplateENS8_27NonCopyablePersistentTraitsISA_EEEENS6_14default_deleteISD_EEEENS_4hashIS5_vEENS6_8equal_toIS5_EEE17try_increase_infoEv, symObjAddr: 0xF070, symBinAddr: 0x4F360, symSize: 0xE8 }
  - { offsetInCU: 0x6633D, offset: 0x348ABF, size: 0x8, addend: 0x0, symName: __ZN10robin_hood6detail5TableILb1ELm80EPKN3tns13BaseClassMetaENSt3__110unique_ptrIN2v810PersistentINS8_16FunctionTemplateENS8_27NonCopyablePersistentTraitsISA_EEEENS6_14default_deleteISD_EEEENS_4hashIS5_vEENS6_8equal_toIS5_EEE8initDataEm, symObjAddr: 0xEF88, symBinAddr: 0x4F278, symSize: 0xE8 }
  - { offsetInCU: 0x6641C, offset: 0x348B9E, size: 0x8, addend: 0x0, symName: __ZN10robin_hood6detail5TableILb1ELm80EPKN3tns13BaseClassMetaENSt3__110unique_ptrIN2v810PersistentINS8_16FunctionTemplateENS8_27NonCopyablePersistentTraitsISA_EEEENS6_14default_deleteISD_EEEENS_4hashIS5_vEENS6_8equal_toIS5_EEE17try_increase_infoEv, symObjAddr: 0xF070, symBinAddr: 0x4F360, symSize: 0xE8 }
  - { offsetInCU: 0x66427, offset: 0x348BA9, size: 0x8, addend: 0x0, symName: __ZN10robin_hood6detail5TableILb1ELm80EPKN3tns13BaseClassMetaENSt3__110unique_ptrIN2v810PersistentINS8_16FunctionTemplateENS8_27NonCopyablePersistentTraitsISA_EEEENS6_14default_deleteISD_EEEENS_4hashIS5_vEENS6_8equal_toIS5_EEE16rehashPowerOfTwoEmb, symObjAddr: 0xF158, symBinAddr: 0x4F448, symSize: 0x108 }
  - { offsetInCU: 0x666F7, offset: 0x348E79, size: 0x8, addend: 0x0, symName: __ZN10robin_hood6detail5TableILb1ELm80EPKN3tns13BaseClassMetaENSt3__110unique_ptrIN2v810PersistentINS8_16FunctionTemplateENS8_27NonCopyablePersistentTraitsISA_EEEENS6_14default_deleteISD_EEEENS_4hashIS5_vEENS6_8equal_toIS5_EEE11insert_moveEONSL_8DataNodeISL_Lb1EEE, symObjAddr: 0xF260, symBinAddr: 0x4F550, symSize: 0x142 }
  - { offsetInCU: 0x66BD2, offset: 0x349354, size: 0x8, addend: 0x0, symName: __ZN10robin_hood6detail5TableILb1ELm80EPKN3tns4MetaENSt3__110unique_ptrIN2v810PersistentINS8_5ValueENS8_27NonCopyablePersistentTraitsISA_EEEENS6_14default_deleteISD_EEEENS_4hashIS5_vEENS6_8equal_toIS5_EEE13increase_sizeEv, symObjAddr: 0xF54E, symBinAddr: 0x4F83E, symSize: 0x108 }
  - { offsetInCU: 0x66C8D, offset: 0x34940F, size: 0x8, addend: 0x0, symName: __ZN10robin_hood6detail5TableILb1ELm80EPKN3tns4MetaENSt3__110unique_ptrIN2v810PersistentINS8_5ValueENS8_27NonCopyablePersistentTraitsISA_EEEENS6_14default_deleteISD_EEEENS_4hashIS5_vEENS6_8equal_toIS5_EEE7shiftUpEmm, symObjAddr: 0xF656, symBinAddr: 0x4F946, symSize: 0xD2 }
  - { offsetInCU: 0x66E3A, offset: 0x3495BC, size: 0x8, addend: 0x0, symName: __ZN10robin_hood6detail5TableILb1ELm80EPKN3tns4MetaENSt3__110unique_ptrIN2v810PersistentINS8_5ValueENS8_27NonCopyablePersistentTraitsISA_EEEENS6_14default_deleteISD_EEEENS_4hashIS5_vEENS6_8equal_toIS5_EEE17try_increase_infoEv, symObjAddr: 0xF810, symBinAddr: 0x4FB00, symSize: 0xE8 }
  - { offsetInCU: 0x66F29, offset: 0x3496AB, size: 0x8, addend: 0x0, symName: __ZN10robin_hood6detail5TableILb1ELm80EPKN3tns4MetaENSt3__110unique_ptrIN2v810PersistentINS8_5ValueENS8_27NonCopyablePersistentTraitsISA_EEEENS6_14default_deleteISD_EEEENS_4hashIS5_vEENS6_8equal_toIS5_EEE8initDataEm, symObjAddr: 0xF728, symBinAddr: 0x4FA18, symSize: 0xE8 }
  - { offsetInCU: 0x67008, offset: 0x34978A, size: 0x8, addend: 0x0, symName: __ZN10robin_hood6detail5TableILb1ELm80EPKN3tns4MetaENSt3__110unique_ptrIN2v810PersistentINS8_5ValueENS8_27NonCopyablePersistentTraitsISA_EEEENS6_14default_deleteISD_EEEENS_4hashIS5_vEENS6_8equal_toIS5_EEE17try_increase_infoEv, symObjAddr: 0xF810, symBinAddr: 0x4FB00, symSize: 0xE8 }
  - { offsetInCU: 0x67013, offset: 0x349795, size: 0x8, addend: 0x0, symName: __ZN10robin_hood6detail5TableILb1ELm80EPKN3tns4MetaENSt3__110unique_ptrIN2v810PersistentINS8_5ValueENS8_27NonCopyablePersistentTraitsISA_EEEENS6_14default_deleteISD_EEEENS_4hashIS5_vEENS6_8equal_toIS5_EEE16rehashPowerOfTwoEmb, symObjAddr: 0xF8F8, symBinAddr: 0x4FBE8, symSize: 0x108 }
  - { offsetInCU: 0x672E3, offset: 0x349A65, size: 0x8, addend: 0x0, symName: __ZN10robin_hood6detail5TableILb1ELm80EPKN3tns4MetaENSt3__110unique_ptrIN2v810PersistentINS8_5ValueENS8_27NonCopyablePersistentTraitsISA_EEEENS6_14default_deleteISD_EEEENS_4hashIS5_vEENS6_8equal_toIS5_EEE11insert_moveEONSL_8DataNodeISL_Lb1EEE, symObjAddr: 0xFA00, symBinAddr: 0x4FCF0, symSize: 0x142 }
  - { offsetInCU: 0x67854, offset: 0x349FD6, size: 0x8, addend: 0x0, symName: __ZN10robin_hood6detail5TableILb1ELm80ENSt3__112basic_stringIcNS2_11char_traitsIcEENS2_9allocatorIcEEEEhNS_4hashIS8_vEENS2_8equal_toIS8_EEE13increase_sizeEv, symObjAddr: 0xFE2C, symBinAddr: 0x5011C, symSize: 0x108 }
  - { offsetInCU: 0x6790F, offset: 0x34A091, size: 0x8, addend: 0x0, symName: __ZN10robin_hood6detail5TableILb1ELm80ENSt3__112basic_stringIcNS2_11char_traitsIcEENS2_9allocatorIcEEEEhNS_4hashIS8_vEENS2_8equal_toIS8_EEE7shiftUpEmm, symObjAddr: 0xFF34, symBinAddr: 0x50224, symSize: 0x116 }
  - { offsetInCU: 0x67B53, offset: 0x34A2D5, size: 0x8, addend: 0x0, symName: __ZN10robin_hood6detail5TableILb1ELm80ENSt3__112basic_stringIcNS2_11char_traitsIcEENS2_9allocatorIcEEEEhNS_4hashIS8_vEENS2_8equal_toIS8_EEE17try_increase_infoEv, symObjAddr: 0x10132, symBinAddr: 0x50422, symSize: 0xE8 }
  - { offsetInCU: 0x67C42, offset: 0x34A3C4, size: 0x8, addend: 0x0, symName: __ZN10robin_hood6detail5TableILb1ELm80ENSt3__112basic_stringIcNS2_11char_traitsIcEENS2_9allocatorIcEEEEhNS_4hashIS8_vEENS2_8equal_toIS8_EEE8initDataEm, symObjAddr: 0x1004A, symBinAddr: 0x5033A, symSize: 0xE8 }
  - { offsetInCU: 0x67D21, offset: 0x34A4A3, size: 0x8, addend: 0x0, symName: __ZN10robin_hood6detail5TableILb1ELm80ENSt3__112basic_stringIcNS2_11char_traitsIcEENS2_9allocatorIcEEEEhNS_4hashIS8_vEENS2_8equal_toIS8_EEE17try_increase_infoEv, symObjAddr: 0x10132, symBinAddr: 0x50422, symSize: 0xE8 }
  - { offsetInCU: 0x67D2C, offset: 0x34A4AE, size: 0x8, addend: 0x0, symName: __ZN10robin_hood6detail5TableILb1ELm80ENSt3__112basic_stringIcNS2_11char_traitsIcEENS2_9allocatorIcEEEEhNS_4hashIS8_vEENS2_8equal_toIS8_EEE16rehashPowerOfTwoEmb, symObjAddr: 0x1021A, symBinAddr: 0x5050A, symSize: 0x102 }
  - { offsetInCU: 0x6806E, offset: 0x34A7F0, size: 0x8, addend: 0x0, symName: __ZN10robin_hood6detail5TableILb1ELm80ENSt3__112basic_stringIcNS2_11char_traitsIcEENS2_9allocatorIcEEEEhNS_4hashIS8_vEENS2_8equal_toIS8_EEE11insert_moveEONSD_8DataNodeISD_Lb1EEE, symObjAddr: 0x1031C, symBinAddr: 0x5060C, symSize: 0x13E }
  - { offsetInCU: 0x68BA5, offset: 0x34B327, size: 0x8, addend: 0x0, symName: __ZN3WTF12StringHasher28addCharactersAssumingAlignedIcXadL_ZNS0_16defaultConverterEcEEEEvPKT_, symObjAddr: 0x107B0, symBinAddr: 0x50890, symSize: 0x68 }
  - { offsetInCU: 0x68C69, offset: 0x34B3EB, size: 0x8, addend: 0x0, symName: __ZNK3WTF12StringHasher13avalancheBitsEv, symObjAddr: 0x10818, symBinAddr: 0x508F8, symSize: 0x46 }
  - { offsetInCU: 0x69332, offset: 0x34BAB4, size: 0x8, addend: 0x0, symName: __ZNSt3__120__shared_ptr_emplaceIN2v810PersistentINS1_5ValueENS1_27NonCopyablePersistentTraitsIS3_EEEENS_9allocatorIS6_EEEC2B8ue170006IJRPNS1_7IsolateENS1_5LocalIS3_EEEEES8_DpOT_, symObjAddr: 0x10C60, symBinAddr: 0x509A0, symSize: 0x52 }
  - { offsetInCU: 0x69766, offset: 0x34BEE8, size: 0x8, addend: 0x0, symName: __ZNSt3__16vectorINS_10shared_ptrIN2v810PersistentINS2_5ValueENS2_27NonCopyablePersistentTraitsIS4_EEEEEENS_9allocatorIS8_EEE11__vallocateB8ue170006Em, symObjAddr: 0x10DFC, symBinAddr: 0x50AEC, symSize: 0x3C }
  - { offsetInCU: 0x697D9, offset: 0x34BF5B, size: 0x8, addend: 0x0, symName: '__ZNSt3__110__function6__funcIZN3tns15MetadataBuilder17CFunctionCallbackERKN2v820FunctionCallbackInfoINS4_5ValueEEEE3$_2NS_9allocatorISA_EEFvvEED1Ev', symObjAddr: 0x10E38, symBinAddr: 0x50B28, symSize: 0x2C }
  - { offsetInCU: 0x698A3, offset: 0x34C025, size: 0x8, addend: 0x0, symName: '__ZNSt3__110__function6__funcIZN3tns15MetadataBuilder17CFunctionCallbackERKN2v820FunctionCallbackInfoINS4_5ValueEEEE3$_2NS_9allocatorISA_EEFvvEED1Ev', symObjAddr: 0x10E38, symBinAddr: 0x50B28, symSize: 0x2C }
  - { offsetInCU: 0x69A6C, offset: 0x34C1EE, size: 0x8, addend: 0x0, symName: '__ZNSt3__110__function6__funcIZN3tns15MetadataBuilder17CFunctionCallbackERKN2v820FunctionCallbackInfoINS4_5ValueEEEE3$_2NS_9allocatorISA_EEFvvEED0Ev', symObjAddr: 0x10E64, symBinAddr: 0x50B54, symSize: 0x32 }
  - { offsetInCU: 0x69F47, offset: 0x34C6C9, size: 0x8, addend: 0x0, symName: '__ZNKSt3__110__function6__funcIZN3tns15MetadataBuilder17CFunctionCallbackERKN2v820FunctionCallbackInfoINS4_5ValueEEEE3$_2NS_9allocatorISA_EEFvvEE7__cloneEv', symObjAddr: 0x10E96, symBinAddr: 0x50B86, symSize: 0x70 }
  - { offsetInCU: 0x6A42F, offset: 0x34CBB1, size: 0x8, addend: 0x0, symName: '__ZNKSt3__110__function6__funcIZN3tns15MetadataBuilder17CFunctionCallbackERKN2v820FunctionCallbackInfoINS4_5ValueEEEE3$_2NS_9allocatorISA_EEFvvEE7__cloneEPNS0_6__baseISD_EE', symObjAddr: 0x10F06, symBinAddr: 0x50BF6, symSize: 0x44 }
  - { offsetInCU: 0x6A68F, offset: 0x34CE11, size: 0x8, addend: 0x0, symName: '__ZNSt3__110__function6__funcIZN3tns15MetadataBuilder17CFunctionCallbackERKN2v820FunctionCallbackInfoINS4_5ValueEEEE3$_2NS_9allocatorISA_EEFvvEE7destroyEv', symObjAddr: 0x10F4A, symBinAddr: 0x50C3A, symSize: 0x22 }
  - { offsetInCU: 0x6A805, offset: 0x34CF87, size: 0x8, addend: 0x0, symName: '__ZNSt3__110__function6__funcIZN3tns15MetadataBuilder17CFunctionCallbackERKN2v820FunctionCallbackInfoINS4_5ValueEEEE3$_2NS_9allocatorISA_EEFvvEE18destroy_deallocateEv', symObjAddr: 0x10F6C, symBinAddr: 0x50C5C, symSize: 0x28 }
  - { offsetInCU: 0x6B05E, offset: 0x34D7E0, size: 0x8, addend: 0x0, symName: '__ZNSt3__110__function6__funcIZN3tns15MetadataBuilder17CFunctionCallbackERKN2v820FunctionCallbackInfoINS4_5ValueEEEE3$_2NS_9allocatorISA_EEFvvEEclEv', symObjAddr: 0x10F94, symBinAddr: 0x50C84, symSize: 0x386 }
  - { offsetInCU: 0x6C165, offset: 0x34E8E7, size: 0x8, addend: 0x0, symName: __ZNKSt3__16vectorIN2v85LocalINS1_5ValueEEENS_9allocatorIS4_EEE20__throw_length_errorB8ue170006Ev, symObjAddr: 0x113A8, symBinAddr: 0x51018, symSize: 0x10 }
  - { offsetInCU: 0x6C170, offset: 0x34E8F2, size: 0x8, addend: 0x0, symName: __ZNKSt3__16vectorIN2v85LocalINS1_5ValueEEENS_9allocatorIS4_EEE20__throw_length_errorB8ue170006Ev, symObjAddr: 0x113A8, symBinAddr: 0x51018, symSize: 0x10 }
  - { offsetInCU: 0x6C199, offset: 0x34E91B, size: 0x8, addend: 0x0, symName: __ZNSt3__119__allocate_at_leastB8ue170006INS_9allocatorIN2v85LocalINS2_5ValueEEEEEEENS_19__allocation_resultINS_16allocator_traitsIT_E7pointerEEERS9_m, symObjAddr: 0x113B8, symBinAddr: 0x51028, symSize: 0x2E }
  - { offsetInCU: 0x6C2C8, offset: 0x34EA4A, size: 0x8, addend: 0x0, symName: '__ZNSt3__110__function6__funcIZN3tns15MetadataBuilder30SwizzledInstanceMethodCallbackEN2v85LocalINS4_4NameEEENS5_INS4_5ValueEEERKNS4_20PropertyCallbackInfoIS8_EEE3$_3NS_9allocatorISE_EEFiRKNS2_5PtrToINS2_10MethodMetaEEEEED1Ev', symObjAddr: 0x11468, symBinAddr: 0x51058, symSize: 0x20 }
  - { offsetInCU: 0x6C4B2, offset: 0x34EC34, size: 0x8, addend: 0x0, symName: '__ZNSt3__110__function6__funcIZN3tns15MetadataBuilder30SwizzledInstanceMethodCallbackEN2v85LocalINS4_4NameEEENS5_INS4_5ValueEEERKNS4_20PropertyCallbackInfoIS8_EEE3$_3NS_9allocatorISE_EEFiRKNS2_5PtrToINS2_10MethodMetaEEEEED0Ev', symObjAddr: 0x11488, symBinAddr: 0x51078, symSize: 0x30 }
  - { offsetInCU: 0x6CA10, offset: 0x34F192, size: 0x8, addend: 0x0, symName: '__ZNKSt3__110__function6__funcIZN3tns15MetadataBuilder30SwizzledInstanceMethodCallbackEN2v85LocalINS4_4NameEEENS5_INS4_5ValueEEERKNS4_20PropertyCallbackInfoIS8_EEE3$_3NS_9allocatorISE_EEFiRKNS2_5PtrToINS2_10MethodMetaEEEEE7__cloneEv', symObjAddr: 0x114B8, symBinAddr: 0x510A8, symSize: 0x6C }
  - { offsetInCU: 0x6CE9D, offset: 0x34F61F, size: 0x8, addend: 0x0, symName: '__ZNKSt3__110__function6__funcIZN3tns15MetadataBuilder30SwizzledInstanceMethodCallbackEN2v85LocalINS4_4NameEEENS5_INS4_5ValueEEERKNS4_20PropertyCallbackInfoIS8_EEE3$_3NS_9allocatorISE_EEFiRKNS2_5PtrToINS2_10MethodMetaEEEEE7__cloneEPNS0_6__baseISM_EE', symObjAddr: 0x11524, symBinAddr: 0x51114, symSize: 0x40 }
  - { offsetInCU: 0x6D0B4, offset: 0x34F836, size: 0x8, addend: 0x0, symName: '__ZNSt3__110__function6__funcIZN3tns15MetadataBuilder30SwizzledInstanceMethodCallbackEN2v85LocalINS4_4NameEEENS5_INS4_5ValueEEERKNS4_20PropertyCallbackInfoIS8_EEE3$_3NS_9allocatorISE_EEFiRKNS2_5PtrToINS2_10MethodMetaEEEEE7destroyEv', symObjAddr: 0x11564, symBinAddr: 0x51154, symSize: 0x16 }
  - { offsetInCU: 0x6D25B, offset: 0x34F9DD, size: 0x8, addend: 0x0, symName: '__ZNSt3__110__function6__funcIZN3tns15MetadataBuilder30SwizzledInstanceMethodCallbackEN2v85LocalINS4_4NameEEENS5_INS4_5ValueEEERKNS4_20PropertyCallbackInfoIS8_EEE3$_3NS_9allocatorISE_EEFiRKNS2_5PtrToINS2_10MethodMetaEEEEE18destroy_deallocateEv', symObjAddr: 0x1157A, symBinAddr: 0x5116A, symSize: 0x26 }
  - { offsetInCU: 0x6D588, offset: 0x34FD0A, size: 0x8, addend: 0x0, symName: '__ZNSt3__110__function6__funcIZN3tns15MetadataBuilder30SwizzledInstanceMethodCallbackEN2v85LocalINS4_4NameEEENS5_INS4_5ValueEEERKNS4_20PropertyCallbackInfoIS8_EEE3$_3NS_9allocatorISE_EEFiRKNS2_5PtrToINS2_10MethodMetaEEEEEclESL_', symObjAddr: 0x115A0, symBinAddr: 0x51190, symSize: 0x128 }
  - { offsetInCU: 0x6DE5C, offset: 0x3505DE, size: 0x8, addend: 0x0, symName: '__ZNSt3__110__function6__funcIZN3tns15MetadataBuilder24SwizzledPropertyCallbackEN2v85LocalINS4_4NameEEERKNS4_18PropertyDescriptorERKNS4_20PropertyCallbackInfoINS4_5ValueEEEE3$_4NS_9allocatorISG_EEFiRKNS2_5PtrToINS2_12PropertyMetaEEEEED1Ev', symObjAddr: 0x117DA, symBinAddr: 0x5131A, symSize: 0x20 }
  - { offsetInCU: 0x6E046, offset: 0x3507C8, size: 0x8, addend: 0x0, symName: '__ZNSt3__110__function6__funcIZN3tns15MetadataBuilder24SwizzledPropertyCallbackEN2v85LocalINS4_4NameEEERKNS4_18PropertyDescriptorERKNS4_20PropertyCallbackInfoINS4_5ValueEEEE3$_4NS_9allocatorISG_EEFiRKNS2_5PtrToINS2_12PropertyMetaEEEEED0Ev', symObjAddr: 0x117FA, symBinAddr: 0x5133A, symSize: 0x30 }
  - { offsetInCU: 0x6E5A4, offset: 0x350D26, size: 0x8, addend: 0x0, symName: '__ZNKSt3__110__function6__funcIZN3tns15MetadataBuilder24SwizzledPropertyCallbackEN2v85LocalINS4_4NameEEERKNS4_18PropertyDescriptorERKNS4_20PropertyCallbackInfoINS4_5ValueEEEE3$_4NS_9allocatorISG_EEFiRKNS2_5PtrToINS2_12PropertyMetaEEEEE7__cloneEv', symObjAddr: 0x1182A, symBinAddr: 0x5136A, symSize: 0x6C }
  - { offsetInCU: 0x6EA31, offset: 0x3511B3, size: 0x8, addend: 0x0, symName: '__ZNKSt3__110__function6__funcIZN3tns15MetadataBuilder24SwizzledPropertyCallbackEN2v85LocalINS4_4NameEEERKNS4_18PropertyDescriptorERKNS4_20PropertyCallbackInfoINS4_5ValueEEEE3$_4NS_9allocatorISG_EEFiRKNS2_5PtrToINS2_12PropertyMetaEEEEE7__cloneEPNS0_6__baseISO_EE', symObjAddr: 0x11896, symBinAddr: 0x513D6, symSize: 0x40 }
  - { offsetInCU: 0x6EC48, offset: 0x3513CA, size: 0x8, addend: 0x0, symName: '__ZNSt3__110__function6__funcIZN3tns15MetadataBuilder24SwizzledPropertyCallbackEN2v85LocalINS4_4NameEEERKNS4_18PropertyDescriptorERKNS4_20PropertyCallbackInfoINS4_5ValueEEEE3$_4NS_9allocatorISG_EEFiRKNS2_5PtrToINS2_12PropertyMetaEEEEE7destroyEv', symObjAddr: 0x118D6, symBinAddr: 0x51416, symSize: 0x16 }
  - { offsetInCU: 0x6EDEF, offset: 0x351571, size: 0x8, addend: 0x0, symName: '__ZNSt3__110__function6__funcIZN3tns15MetadataBuilder24SwizzledPropertyCallbackEN2v85LocalINS4_4NameEEERKNS4_18PropertyDescriptorERKNS4_20PropertyCallbackInfoINS4_5ValueEEEE3$_4NS_9allocatorISG_EEFiRKNS2_5PtrToINS2_12PropertyMetaEEEEE18destroy_deallocateEv', symObjAddr: 0x118EC, symBinAddr: 0x5142C, symSize: 0x26 }
  - { offsetInCU: 0x6F11C, offset: 0x35189E, size: 0x8, addend: 0x0, symName: '__ZNSt3__110__function6__funcIZN3tns15MetadataBuilder24SwizzledPropertyCallbackEN2v85LocalINS4_4NameEEERKNS4_18PropertyDescriptorERKNS4_20PropertyCallbackInfoINS4_5ValueEEEE3$_4NS_9allocatorISG_EEFiRKNS2_5PtrToINS2_12PropertyMetaEEEEEclESN_', symObjAddr: 0x11912, symBinAddr: 0x51452, symSize: 0x128 }
  - { offsetInCU: 0x6FB50, offset: 0x3522D2, size: 0x8, addend: 0x0, symName: __ZNSt3__120__shared_ptr_emplaceIN2v810PersistentINS1_8FunctionENS1_27NonCopyablePersistentTraitsIS3_EEEENS_9allocatorIS6_EEED1Ev, symObjAddr: 0x11AE8, symBinAddr: 0x51588, symSize: 0x18 }
  - { offsetInCU: 0x6FBAA, offset: 0x35232C, size: 0x8, addend: 0x0, symName: __ZNSt3__120__shared_ptr_emplaceIN2v810PersistentINS1_8FunctionENS1_27NonCopyablePersistentTraitsIS3_EEEENS_9allocatorIS6_EEED0Ev, symObjAddr: 0x11B00, symBinAddr: 0x515A0, symSize: 0x2A }
  - { offsetInCU: 0x6FC12, offset: 0x352394, size: 0x8, addend: 0x0, symName: __ZNSt3__120__shared_ptr_emplaceIN2v810PersistentINS1_8FunctionENS1_27NonCopyablePersistentTraitsIS3_EEEENS_9allocatorIS6_EEE21__on_zero_shared_weakEv, symObjAddr: 0x11B30, symBinAddr: 0x515D0, symSize: 0xA }
  - { offsetInCU: 0xE650, offset: 0x360B9E, size: 0x8, addend: 0x0, symName: __ZN3tns9Reference8RegisterEN2v85LocalINS1_7ContextEEENS2_INS1_6ObjectEEE, symObjAddr: 0x0, symBinAddr: 0x515E0, symSize: 0x100 }
  - { offsetInCU: 0xEA61, offset: 0x360FAF, size: 0x8, addend: 0x0, symName: __ZN3tns9Reference27GetInteropReferenceCtorFuncEN2v85LocalINS1_7ContextEEE, symObjAddr: 0x100, symBinAddr: 0x516E0, symSize: 0x448 }
  - { offsetInCU: 0x102CE, offset: 0x36281C, size: 0x8, addend: 0x0, symName: __ZN3tns9Reference22RegisterToStringMethodEN2v85LocalINS1_7ContextEEENS2_INS1_6ObjectEEE, symObjAddr: 0xB8E, symBinAddr: 0x5216E, symSize: 0x16A }
  - { offsetInCU: 0x1099A, offset: 0x362EE8, size: 0x8, addend: 0x0, symName: __ZN3tns9Reference11FromPointerEN2v85LocalINS1_7ContextEEENS2_INS1_5ValueEEEPv, symObjAddr: 0x548, symBinAddr: 0x51B28, symSize: 0x154 }
  - { offsetInCU: 0x11174, offset: 0x3636C2, size: 0x8, addend: 0x0, symName: __ZN3tns9Reference28ReferenceConstructorCallbackERKN2v820FunctionCallbackInfoINS1_5ValueEEE, symObjAddr: 0x69C, symBinAddr: 0x51C7C, symSize: 0x266 }
  - { offsetInCU: 0x11D34, offset: 0x364282, size: 0x8, addend: 0x0, symName: __ZN3tns9Reference26IndexedPropertyGetCallbackEjRKN2v820PropertyCallbackInfoINS1_5ValueEEE, symObjAddr: 0x902, symBinAddr: 0x51EE2, symSize: 0xE4 }
  - { offsetInCU: 0x12004, offset: 0x364552, size: 0x8, addend: 0x0, symName: __ZN3tns9Reference23GetTypeEncodingDataPairEN2v85LocalINS1_6ObjectEEE, symObjAddr: 0xCF8, symBinAddr: 0x522D8, symSize: 0x212 }
  - { offsetInCU: 0x12C78, offset: 0x3651C6, size: 0x8, addend: 0x0, symName: __ZN3tns9Reference26IndexedPropertySetCallbackEjN2v85LocalINS1_5ValueEEERKNS1_20PropertyCallbackInfoIS3_EE, symObjAddr: 0x9E6, symBinAddr: 0x51FC6, symSize: 0x60 }
  - { offsetInCU: 0x12DB4, offset: 0x365302, size: 0x8, addend: 0x0, symName: __ZN3tns9Reference16GetValueCallbackEN2v85LocalINS1_4NameEEERKNS1_20PropertyCallbackInfoINS1_5ValueEEE, symObjAddr: 0xA46, symBinAddr: 0x52026, symSize: 0x44 }
  - { offsetInCU: 0x12EA1, offset: 0x3653EF, size: 0x8, addend: 0x0, symName: __ZN3tns9Reference16GetReferredValueEN2v85LocalINS1_7ContextEEENS2_INS1_5ValueEEE, symObjAddr: 0xF0A, symBinAddr: 0x524EA, symSize: 0x2F4 }
  - { offsetInCU: 0x1373E, offset: 0x365C8C, size: 0x8, addend: 0x0, symName: __ZN3tns9Reference16SetValueCallbackEN2v85LocalINS1_4NameEEENS2_INS1_5ValueEEERKNS1_20PropertyCallbackInfoIvEE, symObjAddr: 0xA8A, symBinAddr: 0x5206A, symSize: 0x104 }
  - { offsetInCU: 0x13F66, offset: 0x3664B4, size: 0x8, addend: 0x0, symName: __ZN3tns9Reference17GetWrappedPointerEN2v85LocalINS1_7ContextEEENS2_INS1_5ValueEEEPKNS_12TypeEncodingE, symObjAddr: 0x11FE, symBinAddr: 0x527DE, symSize: 0x2F0 }
  - { offsetInCU: 0x14B18, offset: 0x367066, size: 0x8, addend: 0x0, symName: __ZNSt3__16vectorIN3tns11StructFieldENS_9allocatorIS2_EEE16__init_with_sizeB8ue170006IPS2_S7_EEvT_T0_m, symObjAddr: 0x18A0, symBinAddr: 0x52B90, symSize: 0x72 }
  - { offsetInCU: 0x154DB, offset: 0x367A29, size: 0x8, addend: 0x0, symName: __ZN3tns20ReferenceTypeWrapperD1Ev, symObjAddr: 0x16FC, symBinAddr: 0x52ADC, symSize: 0x6 }
  - { offsetInCU: 0x15506, offset: 0x367A54, size: 0x8, addend: 0x0, symName: __ZN3tns20ReferenceTypeWrapperD0Ev, symObjAddr: 0x1702, symBinAddr: 0x52AE2, symSize: 0xA }
  - { offsetInCU: 0x15531, offset: 0x367A7F, size: 0x8, addend: 0x0, symName: __ZN3tns20ReferenceTypeWrapper4TypeEv, symObjAddr: 0x170C, symBinAddr: 0x52AEC, symSize: 0xC }
  - { offsetInCU: 0x15556, offset: 0x367AA4, size: 0x8, addend: 0x0, symName: __ZN3tns16ReferenceWrapperD1Ev, symObjAddr: 0x1718, symBinAddr: 0x52AF8, symSize: 0xA }
  - { offsetInCU: 0x15583, offset: 0x367AD1, size: 0x8, addend: 0x0, symName: __ZN3tns16ReferenceWrapperD2Ev, symObjAddr: 0x174A, symBinAddr: 0x52B2A, symSize: 0x66 }
  - { offsetInCU: 0x1560F, offset: 0x367B5D, size: 0x8, addend: 0x0, symName: __ZN3tns16ReferenceWrapperD0Ev, symObjAddr: 0x1722, symBinAddr: 0x52B02, symSize: 0x1C }
  - { offsetInCU: 0x15664, offset: 0x367BB2, size: 0x8, addend: 0x0, symName: __ZN3tns16ReferenceWrapper4TypeEv, symObjAddr: 0x173E, symBinAddr: 0x52B1E, symSize: 0xC }
  - { offsetInCU: 0x16134, offset: 0x368682, size: 0x8, addend: 0x0, symName: '__ZZN3tns9Reference22RegisterToStringMethodEN2v85LocalINS1_7ContextEEENS2_INS1_6ObjectEEEEN3$_08__invokeERKNS1_20FunctionCallbackInfoINS1_5ValueEEE', symObjAddr: 0x1B48, symBinAddr: 0x52C08, symSize: 0x184 }
  - { offsetInCU: 0x55, offset: 0x368D8A, size: 0x8, addend: 0x0, symName: __ZN3tns10SetTimeout6cache_E, symObjAddr: 0x1733C8, symBinAddr: 0x16C3A08, symSize: 0x0 }
  - { offsetInCU: 0x126, offset: 0x368E5B, size: 0x8, addend: 0x0, symName: __ZN3tns10SetTimeout6count_E, symObjAddr: 0x1733C0, symBinAddr: 0x16C3A00, symSize: 0x0 }
  - { offsetInCU: 0xE121, offset: 0x376E56, size: 0x8, addend: 0x0, symName: __ZN3tns10SetTimeout4InitEPN2v87IsolateENS1_5LocalINS1_14ObjectTemplateEEE, symObjAddr: 0x0, symBinAddr: 0x52D90, symSize: 0x186 }
  - { offsetInCU: 0xEB42, offset: 0x377877, size: 0x8, addend: 0x0, symName: __ZN3tns10SetTimeout18SetTimeoutCallbackERKN2v820FunctionCallbackInfoINS1_5ValueEEE, symObjAddr: 0x186, symBinAddr: 0x52F16, symSize: 0x22A }
  - { offsetInCU: 0xF2DA, offset: 0x37800F, size: 0x8, addend: 0x0, symName: __ZN10robin_hood6detail5TableILb1ELm80EjN3tns10SetTimeout10CacheEntryENS_4hashIjvEENSt3__18equal_toIjEEE7emplaceIJRjRS4_EEENS7_4pairINSA_4IterILb0EEEbEEDpOT_, symObjAddr: 0x6AA, symBinAddr: 0x5343A, symSize: 0x98 }
  - { offsetInCU: 0xF516, offset: 0x37824B, size: 0x8, addend: 0x0, symName: __ZN3tns10SetTimeout20ClearTimeoutCallbackERKN2v820FunctionCallbackInfoINS1_5ValueEEE, symObjAddr: 0x3B0, symBinAddr: 0x53140, symSize: 0x11E }
  - { offsetInCU: 0xF9DF, offset: 0x378714, size: 0x8, addend: 0x0, symName: __ZNK10robin_hood6detail5TableILb1ELm80EjN3tns10SetTimeout10CacheEntryENS_4hashIjvEENSt3__18equal_toIjEEE7findIdxIjEEmRKT_, symObjAddr: 0x1220, symBinAddr: 0x53D10, symSize: 0xD6 }
  - { offsetInCU: 0xFB59, offset: 0x37888E, size: 0x8, addend: 0x0, symName: __ZN3tns10SetTimeout9RemoveKeyEj, symObjAddr: 0x742, symBinAddr: 0x534D2, symSize: 0x70 }
  - { offsetInCU: 0xFC41, offset: 0x378976, size: 0x8, addend: 0x0, symName: ____ZN3tns10SetTimeout18SetTimeoutCallbackERKN2v820FunctionCallbackInfoINS1_5ValueEEE_block_invoke, symObjAddr: 0x4CE, symBinAddr: 0x5325E, symSize: 0xE }
  - { offsetInCU: 0xFC88, offset: 0x3789BD, size: 0x8, addend: 0x0, symName: __ZN3tns10SetTimeout7ElapsedEj, symObjAddr: 0x4DC, symBinAddr: 0x5326C, symSize: 0x1CE }
  - { offsetInCU: 0x10968, offset: 0x37969D, size: 0x8, addend: 0x0, symName: __ZN10robin_hood6detail5TableILb1ELm80EjN3tns10SetTimeout10CacheEntryENS_4hashIjvEENSt3__18equal_toIjEEE25insertKeyPrepareEmptySpotIRKjEENS7_4pairImNSA_14InsertionStateEEEOT_, symObjAddr: 0xABC, symBinAddr: 0x535FC, symSize: 0x158 }
  - { offsetInCU: 0x10B02, offset: 0x379837, size: 0x8, addend: 0x0, symName: __ZNK10robin_hood6detail5TableILb1ELm80EjN3tns10SetTimeout10CacheEntryENS_4hashIjvEENSt3__18equal_toIjEEE18throwOverflowErrorEv, symObjAddr: 0xC14, symBinAddr: 0x53754, symSize: 0x4C }
  - { offsetInCU: 0x10B64, offset: 0x379899, size: 0x8, addend: 0x0, symName: __ZN10robin_hood6detail5TableILb1ELm80EjN3tns10SetTimeout10CacheEntryENS_4hashIjvEENSt3__18equal_toIjEEE5eraseENSA_4IterILb0EEE, symObjAddr: 0x7B2, symBinAddr: 0x53542, symSize: 0x8C }
  - { offsetInCU: 0x10C4E, offset: 0x379983, size: 0x8, addend: 0x0, symName: __ZN10robin_hood6detail5TableILb1ELm80EjN3tns10SetTimeout10CacheEntryENS_4hashIjvEENSt3__18equal_toIjEEE9shiftDownEm, symObjAddr: 0x12F6, symBinAddr: 0x53DE6, symSize: 0x65 }
  - { offsetInCU: 0x10CE6, offset: 0x379A1B, size: 0x8, addend: 0x0, symName: __ZN10robin_hood6detail5TableILb1ELm80EjN3tns10SetTimeout10CacheEntryENS_4hashIjvEENSt3__18equal_toIjEEED1Ev, symObjAddr: 0x83E, symBinAddr: 0x535CE, symSize: 0x28 }
  - { offsetInCU: 0x113A8, offset: 0x37A0DD, size: 0x8, addend: 0x0, symName: __ZN10robin_hood6detail5TableILb1ELm80EjN3tns10SetTimeout10CacheEntryENS_4hashIjvEENSt3__18equal_toIjEEE13increase_sizeEv, symObjAddr: 0xC60, symBinAddr: 0x537A0, symSize: 0x108 }
  - { offsetInCU: 0x11463, offset: 0x37A198, size: 0x8, addend: 0x0, symName: __ZN10robin_hood6detail5TableILb1ELm80EjN3tns10SetTimeout10CacheEntryENS_4hashIjvEENSt3__18equal_toIjEEE7shiftUpEmm, symObjAddr: 0xD68, symBinAddr: 0x538A8, symSize: 0x9C }
  - { offsetInCU: 0x11526, offset: 0x37A25B, size: 0x8, addend: 0x0, symName: __ZN10robin_hood6detail5TableILb1ELm80EjN3tns10SetTimeout10CacheEntryENS_4hashIjvEENSt3__18equal_toIjEEE17try_increase_infoEv, symObjAddr: 0xEEA, symBinAddr: 0x53A2A, symSize: 0xE8 }
  - { offsetInCU: 0x11615, offset: 0x37A34A, size: 0x8, addend: 0x0, symName: __ZN10robin_hood6detail5TableILb1ELm80EjN3tns10SetTimeout10CacheEntryENS_4hashIjvEENSt3__18equal_toIjEEE8initDataEm, symObjAddr: 0xE04, symBinAddr: 0x53944, symSize: 0xE6 }
  - { offsetInCU: 0x116ED, offset: 0x37A422, size: 0x8, addend: 0x0, symName: __ZN10robin_hood6detail5TableILb1ELm80EjN3tns10SetTimeout10CacheEntryENS_4hashIjvEENSt3__18equal_toIjEEE17try_increase_infoEv, symObjAddr: 0xEEA, symBinAddr: 0x53A2A, symSize: 0xE8 }
  - { offsetInCU: 0x116F7, offset: 0x37A42C, size: 0x8, addend: 0x0, symName: __ZN10robin_hood6detail5TableILb1ELm80EjN3tns10SetTimeout10CacheEntryENS_4hashIjvEENSt3__18equal_toIjEEE16rehashPowerOfTwoEmb, symObjAddr: 0xFD2, symBinAddr: 0x53B12, symSize: 0xF2 }
  - { offsetInCU: 0x1183D, offset: 0x37A572, size: 0x8, addend: 0x0, symName: __ZN10robin_hood6detail5TableILb1ELm80EjN3tns10SetTimeout10CacheEntryENS_4hashIjvEENSt3__18equal_toIjEEE11insert_moveEONSA_8DataNodeISA_Lb1EEE, symObjAddr: 0x10F6, symBinAddr: 0x53C06, symSize: 0x106 }
  - { offsetInCU: 0x11A10, offset: 0x37A745, size: 0x8, addend: 0x0, symName: __GLOBAL__sub_I_SetTimeout.cpp, symObjAddr: 0x1470, symBinAddr: 0x53E4B, symSize: 0x65 }
  - { offsetInCU: 0x41, offset: 0x37A8A5, size: 0x8, addend: 0x0, symName: __ZL2rt, symObjAddr: 0xB05E8, symBinAddr: 0x16ACE98, symSize: 0x0 }
  - { offsetInCU: 0x33EE, offset: 0x37DC52, size: 0x8, addend: 0x0, symName: __ZNSt3__115allocate_sharedB8ue170006IN4rnv89V8RuntimeENS_9allocatorIS2_EEJEvEENS_10shared_ptrIT_EERKT0_DpOT1_, symObjAddr: 0x123, symBinAddr: 0x53FD3, symSize: 0x49 }
  - { offsetInCU: 0x7874, offset: 0x3820D8, size: 0x8, addend: 0x0, symName: __ZNSt3__110shared_ptrIN8facebook3jsi7RuntimeEED1B8ue170006Ev, symObjAddr: 0x0, symBinAddr: 0x53EB0, symSize: 0xA }
  - { offsetInCU: 0x78A1, offset: 0x382105, size: 0x8, addend: 0x0, symName: __ZNSt3__110shared_ptrIN8facebook3jsi7RuntimeEED2B8ue170006Ev, symObjAddr: 0xE4, symBinAddr: 0x53F94, symSize: 0x3F }
  - { offsetInCU: 0x7A65, offset: 0x3822C9, size: 0x8, addend: 0x0, symName: '+[JSIRuntime runtime]', symObjAddr: 0xA, symBinAddr: 0x53EBA, symSize: 0x90 }
  - { offsetInCU: 0x7C24, offset: 0x382488, size: 0x8, addend: 0x0, symName: __ZNSt3__110shared_ptrIN8facebook3jsi7RuntimeEEaSB8ue170006IN4rnv89V8RuntimeEvEERS4_ONS0_IT_EE, symObjAddr: 0x9A, symBinAddr: 0x53F4A, symSize: 0x4A }
  - { offsetInCU: 0x808E, offset: 0x3828F2, size: 0x8, addend: 0x0, symName: __ZNSt3__120__shared_ptr_emplaceIN4rnv89V8RuntimeENS_9allocatorIS2_EEEC2B8ue170006IJEEES4_DpOT_, symObjAddr: 0x16C, symBinAddr: 0x5401C, symSize: 0x40 }
  - { offsetInCU: 0x8193, offset: 0x3829F7, size: 0x8, addend: 0x0, symName: __ZNSt3__120__shared_ptr_emplaceIN4rnv89V8RuntimeENS_9allocatorIS2_EEED1Ev, symObjAddr: 0x1AC, symBinAddr: 0x5405C, symSize: 0x18 }
  - { offsetInCU: 0x81ED, offset: 0x382A51, size: 0x8, addend: 0x0, symName: __ZNSt3__120__shared_ptr_emplaceIN4rnv89V8RuntimeENS_9allocatorIS2_EEED0Ev, symObjAddr: 0x1C4, symBinAddr: 0x54074, symSize: 0x2A }
  - { offsetInCU: 0x8255, offset: 0x382AB9, size: 0x8, addend: 0x0, symName: __ZNSt3__120__shared_ptr_emplaceIN4rnv89V8RuntimeENS_9allocatorIS2_EEE16__on_zero_sharedEv, symObjAddr: 0x1EE, symBinAddr: 0x5409E, symSize: 0x10 }
  - { offsetInCU: 0x82A5, offset: 0x382B09, size: 0x8, addend: 0x0, symName: __ZNSt3__120__shared_ptr_emplaceIN4rnv89V8RuntimeENS_9allocatorIS2_EEE21__on_zero_shared_weakEv, symObjAddr: 0x1FE, symBinAddr: 0x540AE, symSize: 0xA }
  - { offsetInCU: 0x839F, offset: 0x382C03, size: 0x8, addend: 0x0, symName: __GLOBAL__sub_I_JSIRuntime.m, symObjAddr: 0x224, symBinAddr: 0x540B8, symSize: 0x1F }
  - { offsetInCU: 0x27, offset: 0x382C68, size: 0x8, addend: 0x0, symName: __ZN12v8_inspector15InspectorServer4InitENSt3__18functionIFvNS2_IFvNS1_12basic_stringIcNS1_11char_traitsIcEENS1_9allocatorIcEEEEEEEEEESA_, symObjAddr: 0x0, symBinAddr: 0x540D8, symSize: 0x305 }
  - { offsetInCU: 0x49D0, offset: 0x387611, size: 0x8, addend: 0x0, symName: ____ZN12v8_inspector15InspectorServer4InitENSt3__18functionIFvNS2_IFvNS1_12basic_stringIcNS1_11char_traitsIcEENS1_9allocatorIcEEEEEEEEEESA__block_invoke, symObjAddr: 0x305, symBinAddr: 0x543DD, symSize: 0x36C }
  - { offsetInCU: 0x7424, offset: 0x38A065, size: 0x8, addend: 0x0, symName: __ZN12v8_inspector15InspectorServer4InitENSt3__18functionIFvNS2_IFvNS1_12basic_stringIcNS1_11char_traitsIcEENS1_9allocatorIcEEEEEEEEEESA_, symObjAddr: 0x0, symBinAddr: 0x540D8, symSize: 0x305 }
  - { offsetInCU: 0x7920, offset: 0x38A561, size: 0x8, addend: 0x0, symName: __ZNSt3__110__function12__value_funcIFvNS_8functionIFvNS_12basic_stringIcNS_11char_traitsIcEENS_9allocatorIcEEEEEEEEEC2B8ue170006ERKSC_, symObjAddr: 0x117E, symBinAddr: 0x55042, symSize: 0x4C }
  - { offsetInCU: 0x79F7, offset: 0x38A638, size: 0x8, addend: 0x0, symName: __ZN12v8_inspector15InspectorServer4InitENSt3__18functionIFvNS2_IFvNS1_12basic_stringIcNS1_11char_traitsIcEENS1_9allocatorIcEEEEEEEEEESA_.cold.1, symObjAddr: 0x11CA, symBinAddr: 0xC72A70, symSize: 0x21 }
  - { offsetInCU: 0x7A0F, offset: 0x38A650, size: 0x8, addend: 0x0, symName: __ZN12v8_inspector15InspectorServer4InitENSt3__18functionIFvNS2_IFvNS1_12basic_stringIcNS1_11char_traitsIcEENS1_9allocatorIcEEEEEEEEEESA_.cold.2, symObjAddr: 0x11EB, symBinAddr: 0xC72A91, symSize: 0x34 }
  - { offsetInCU: 0x7FC8, offset: 0x38AC09, size: 0x8, addend: 0x0, symName: ____ZN12v8_inspector15InspectorServer4InitENSt3__18functionIFvNS2_IFvNS1_12basic_stringIcNS1_11char_traitsIcEENS1_9allocatorIcEEEEEEEEEESA__block_invoke_2, symObjAddr: 0x671, symBinAddr: 0x54749, symSize: 0x33 }
  - { offsetInCU: 0x802B, offset: 0x38AC6C, size: 0x8, addend: 0x0, symName: ___Block_byref_object_copy_, symObjAddr: 0x6A4, symBinAddr: 0x5477C, symSize: 0x1D }
  - { offsetInCU: 0x8054, offset: 0x38AC95, size: 0x8, addend: 0x0, symName: ___Block_byref_object_dispose_, symObjAddr: 0x6C1, symBinAddr: 0x54799, symSize: 0xF }
  - { offsetInCU: 0x807F, offset: 0x38ACC0, size: 0x8, addend: 0x0, symName: ____ZN12v8_inspector15InspectorServer4InitENSt3__18functionIFvNS2_IFvNS1_12basic_stringIcNS1_11char_traitsIcEENS1_9allocatorIcEEEEEEEEEESA__block_invoke.5, symObjAddr: 0x6D0, symBinAddr: 0x547A8, symSize: 0x1B1 }
  - { offsetInCU: 0x841F, offset: 0x38B060, size: 0x8, addend: 0x0, symName: ____ZN12v8_inspector15InspectorServer4InitENSt3__18functionIFvNS2_IFvNS1_12basic_stringIcNS1_11char_traitsIcEENS1_9allocatorIcEEEEEEEEEESA__block_invoke_2.6, symObjAddr: 0x881, symBinAddr: 0x54959, symSize: 0x157 }
  - { offsetInCU: 0x8ABC, offset: 0x38B6FD, size: 0x8, addend: 0x0, symName: ___copy_helper_block_ea16_32c84_ZTSNSt3__18functionIFvNS_12basic_stringIcNS_11char_traitsIcEENS_9allocatorIcEEEEEEE80s88s96r, symObjAddr: 0x9D8, symBinAddr: 0x54AB0, symSize: 0x51 }
  - { offsetInCU: 0x8B75, offset: 0x38B7B6, size: 0x8, addend: 0x0, symName: ___destroy_helper_block_ea16_32c84_ZTSNSt3__18functionIFvNS_12basic_stringIcNS_11char_traitsIcEENS_9allocatorIcEEEEEEE80s88s96r, symObjAddr: 0xA29, symBinAddr: 0x54B01, symSize: 0x6A }
  - { offsetInCU: 0x8C13, offset: 0x38B854, size: 0x8, addend: 0x0, symName: ___copy_helper_block_ea16_32c94_ZTSNSt3__18functionIFvNS0_IFvNS_12basic_stringIcNS_11char_traitsIcEENS_9allocatorIcEEEEEEEEEE80c84_ZTSNSt3__18functionIFvNS_12basic_stringIcNS_11char_traitsIcEENS_9allocatorIcEEEEEEE128s136s, symObjAddr: 0xA93, symBinAddr: 0x54B6B, symSize: 0x82 }
  - { offsetInCU: 0x8DCB, offset: 0x38BA0C, size: 0x8, addend: 0x0, symName: ___destroy_helper_block_ea16_32c94_ZTSNSt3__18functionIFvNS0_IFvNS_12basic_stringIcNS_11char_traitsIcEENS_9allocatorIcEEEEEEEEEE80c84_ZTSNSt3__18functionIFvNS_12basic_stringIcNS_11char_traitsIcEENS_9allocatorIcEEEEEEE128s136s, symObjAddr: 0xB15, symBinAddr: 0x54BED, symSize: 0x87 }
  - { offsetInCU: 0x8F56, offset: 0x38BB97, size: 0x8, addend: 0x0, symName: __ZN12v8_inspector15InspectorServer4SendEPU25objcproto14OS_dispatch_io8NSObjectPU28objcproto17OS_dispatch_queueS1_NSt3__112basic_stringIcNS6_11char_traitsIcEENS6_9allocatorIcEEEE, symObjAddr: 0xB9C, symBinAddr: 0x54C74, symSize: 0x199 }
  - { offsetInCU: 0x9180, offset: 0x38BDC1, size: 0x8, addend: 0x0, symName: ____ZN12v8_inspector15InspectorServer4SendEPU25objcproto14OS_dispatch_io8NSObjectPU28objcproto17OS_dispatch_queueS1_NSt3__112basic_stringIcNS6_11char_traitsIcEENS6_9allocatorIcEEEE_block_invoke, symObjAddr: 0xD35, symBinAddr: 0x54E0D, symSize: 0xE }
  - { offsetInCU: 0x91BA, offset: 0x38BDFB, size: 0x8, addend: 0x0, symName: ____ZN12v8_inspector15InspectorServer4SendEPU25objcproto14OS_dispatch_io8NSObjectPU28objcproto17OS_dispatch_queueS1_NSt3__112basic_stringIcNS6_11char_traitsIcEENS6_9allocatorIcEEEE_block_invoke_2, symObjAddr: 0xD43, symBinAddr: 0x54E1B, symSize: 0x22 }
  - { offsetInCU: 0x9338, offset: 0x38BF79, size: 0x8, addend: 0x0, symName: '__ZNSt3__110__function6__funcIZZN12v8_inspector15InspectorServer4InitENS_8functionIFvNS4_IFvNS_12basic_stringIcNS_11char_traitsIcEENS_9allocatorIcEEEEEEEEEESC_EUb_E3$_0NS8_ISF_EESB_ED1Ev', symObjAddr: 0xDBE, symBinAddr: 0x54E3E, symSize: 0x26 }
  - { offsetInCU: 0x9481, offset: 0x38C0C2, size: 0x8, addend: 0x0, symName: '__ZNSt3__110__function6__funcIZZN12v8_inspector15InspectorServer4InitENS_8functionIFvNS4_IFvNS_12basic_stringIcNS_11char_traitsIcEENS_9allocatorIcEEEEEEEEEESC_EUb_E3$_0NS8_ISF_EESB_ED0Ev', symObjAddr: 0xDE4, symBinAddr: 0x54E64, symSize: 0x2C }
  - { offsetInCU: 0x97F4, offset: 0x38C435, size: 0x8, addend: 0x0, symName: '__ZNKSt3__110__function6__funcIZZN12v8_inspector15InspectorServer4InitENS_8functionIFvNS4_IFvNS_12basic_stringIcNS_11char_traitsIcEENS_9allocatorIcEEEEEEEEEESC_EUb_E3$_0NS8_ISF_EESB_E7__cloneEv', symObjAddr: 0xE10, symBinAddr: 0x54E90, symSize: 0x50 }
  - { offsetInCU: 0x9B7A, offset: 0x38C7BB, size: 0x8, addend: 0x0, symName: '__ZNKSt3__110__function6__funcIZZN12v8_inspector15InspectorServer4InitENS_8functionIFvNS4_IFvNS_12basic_stringIcNS_11char_traitsIcEENS_9allocatorIcEEEEEEEEEESC_EUb_E3$_0NS8_ISF_EESB_E7__cloneEPNS0_6__baseISB_EE', symObjAddr: 0xE60, symBinAddr: 0x54EE0, symSize: 0x42 }
  - { offsetInCU: 0x9D75, offset: 0x38C9B6, size: 0x8, addend: 0x0, symName: '__ZNSt3__110__function6__funcIZZN12v8_inspector15InspectorServer4InitENS_8functionIFvNS4_IFvNS_12basic_stringIcNS_11char_traitsIcEENS_9allocatorIcEEEEEEEEEESC_EUb_E3$_0NS8_ISF_EESB_E7destroyEv', symObjAddr: 0xEA2, symBinAddr: 0x54F22, symSize: 0x26 }
  - { offsetInCU: 0x9E97, offset: 0x38CAD8, size: 0x8, addend: 0x0, symName: '__ZNSt3__110__function6__funcIZZN12v8_inspector15InspectorServer4InitENS_8functionIFvNS4_IFvNS_12basic_stringIcNS_11char_traitsIcEENS_9allocatorIcEEEEEEEEEESC_EUb_E3$_0NS8_ISF_EESB_E18destroy_deallocateEv', symObjAddr: 0xEC8, symBinAddr: 0x54F48, symSize: 0x2C }
  - { offsetInCU: 0xA166, offset: 0x38CDA7, size: 0x8, addend: 0x0, symName: '__ZNSt3__110__function6__funcIZZN12v8_inspector15InspectorServer4InitENS_8functionIFvNS4_IFvNS_12basic_stringIcNS_11char_traitsIcEENS_9allocatorIcEEEEEEEEEESC_EUb_E3$_0NS8_ISF_EESB_EclEOSA_', symObjAddr: 0xEF4, symBinAddr: 0x54F74, symSize: 0xCE }
  - { offsetInCU: 0x6B2B, offset: 0x394703, size: 0x8, addend: 0x0, symName: __ZNSt3__1plB8ue170006IcNS_11char_traitsIcEENS_9allocatorIcEEEENS_12basic_stringIT_T0_T1_EEOS9_SA_, symObjAddr: 0x946, symBinAddr: 0x559D6, symSize: 0x5A }
  - { offsetInCU: 0xA577, offset: 0x39814F, size: 0x8, addend: 0x0, symName: __ZN4rnv815HostObjectProxyC2ERNS_9V8RuntimeEPN2v87IsolateENSt3__110shared_ptrIN8facebook3jsi10HostObjectEEE, symObjAddr: 0x0, symBinAddr: 0x55090, symSize: 0x2E }
  - { offsetInCU: 0xA6EE, offset: 0x3982C6, size: 0x8, addend: 0x0, symName: __ZN4rnv815HostObjectProxyC1ERNS_9V8RuntimeEPN2v87IsolateENSt3__110shared_ptrIN8facebook3jsi10HostObjectEEE, symObjAddr: 0x2E, symBinAddr: 0x550BE, symSize: 0x2E }
  - { offsetInCU: 0xA96C, offset: 0x398544, size: 0x8, addend: 0x0, symName: __ZN4rnv815HostObjectProxy13BindFinalizerERKN2v85LocalINS1_6ObjectEEE, symObjAddr: 0x5C, symBinAddr: 0x550EC, symSize: 0x8E }
  - { offsetInCU: 0xAB81, offset: 0x398759, size: 0x8, addend: 0x0, symName: __ZN4rnv815HostObjectProxy9FinalizerERKN2v816WeakCallbackInfoIS0_EE, symObjAddr: 0xEA, symBinAddr: 0x5517A, symSize: 0x54 }
  - { offsetInCU: 0xACFD, offset: 0x3988D5, size: 0x8, addend: 0x0, symName: __ZNSt3__110shared_ptrIN8facebook3jsi10HostObjectEE5resetB8ue170006Ev, symObjAddr: 0x1218, symBinAddr: 0x562A8, symSize: 0x46 }
  - { offsetInCU: 0xADF4, offset: 0x3989CC, size: 0x8, addend: 0x0, symName: __ZNSt3__110shared_ptrIN8facebook3jsi10HostObjectEED2B8ue170006Ev, symObjAddr: 0x1BFC, symBinAddr: 0x56C8C, symSize: 0x40 }
  - { offsetInCU: 0xAE6D, offset: 0x398A45, size: 0x8, addend: 0x0, symName: __ZN4rnv815HostObjectProxy13GetHostObjectEv, symObjAddr: 0x13E, symBinAddr: 0x551CE, symSize: 0x22 }
  - { offsetInCU: 0xB4F2, offset: 0x3990CA, size: 0x8, addend: 0x0, symName: __ZN4rnv815HostObjectProxy6GetterEN2v85LocalINS1_4NameEEERKNS1_20PropertyCallbackInfoINS1_5ValueEEE, symObjAddr: 0x160, symBinAddr: 0x551F0, symSize: 0x70C }
  - { offsetInCU: 0xDC4F, offset: 0x39B827, size: 0x8, addend: 0x0, symName: __ZNK8facebook3jsi8Function4callIJNSt3__112basic_stringIcNS3_11char_traitsIcEENS3_9allocatorIcEEEEEEENS0_5ValueERNS0_7RuntimeEDpOT_, symObjAddr: 0x86C, symBinAddr: 0x558FC, symSize: 0xDA }
  - { offsetInCU: 0xDF9F, offset: 0x39BB77, size: 0x8, addend: 0x0, symName: __ZN4rnv815HostObjectProxy6SetterEN2v85LocalINS1_4NameEEENS2_INS1_5ValueEEERKNS1_20PropertyCallbackInfoIS5_EE, symObjAddr: 0x9AC, symBinAddr: 0x55A3C, symSize: 0x6BA }
  - { offsetInCU: 0x10570, offset: 0x39E148, size: 0x8, addend: 0x0, symName: __ZN4rnv815HostObjectProxy10EnumeratorERKN2v820PropertyCallbackInfoINS1_5ArrayEEE, symObjAddr: 0x1066, symBinAddr: 0x560F6, symSize: 0x1B2 }
  - { offsetInCU: 0x109E5, offset: 0x39E5BD, size: 0x8, addend: 0x0, symName: __ZNSt3__16vectorIN8facebook3jsi10PropNameIDENS_9allocatorIS3_EEE16__destroy_vectorclB8ue170006Ev, symObjAddr: 0x1D86, symBinAddr: 0x56D16, symSize: 0x32 }
  - { offsetInCU: 0x10BEE, offset: 0x39E7C6, size: 0x8, addend: 0x0, symName: __ZN4rnv817HostFunctionProxyC2ERNS_9V8RuntimeEPN2v87IsolateEONSt3__18functionIFN8facebook3jsi5ValueERNS9_7RuntimeERKSA_PSD_mEEE, symObjAddr: 0x125E, symBinAddr: 0x562EE, symSize: 0x2C }
  - { offsetInCU: 0x10D08, offset: 0x39E8E0, size: 0x8, addend: 0x0, symName: __ZNSt3__110__function12__value_funcIFN8facebook3jsi5ValueERNS3_7RuntimeERKS4_PS7_mEEC2B8ue170006EOSB_, symObjAddr: 0x1D3C, symBinAddr: 0x56CCC, symSize: 0x4A }
  - { offsetInCU: 0x10D8C, offset: 0x39E964, size: 0x8, addend: 0x0, symName: __ZN4rnv817HostFunctionProxyC1ERNS_9V8RuntimeEPN2v87IsolateEONSt3__18functionIFN8facebook3jsi5ValueERNS9_7RuntimeERKSA_PSD_mEEE, symObjAddr: 0x128A, symBinAddr: 0x5631A, symSize: 0x2C }
  - { offsetInCU: 0x10F3E, offset: 0x39EB16, size: 0x8, addend: 0x0, symName: __ZN4rnv817HostFunctionProxy13BindFinalizerERKN2v85LocalINS1_6ObjectEEE, symObjAddr: 0x12B6, symBinAddr: 0x56346, symSize: 0x8E }
  - { offsetInCU: 0x11149, offset: 0x39ED21, size: 0x8, addend: 0x0, symName: __ZN4rnv817HostFunctionProxy9FinalizerERKN2v816WeakCallbackInfoIS0_EE, symObjAddr: 0x1344, symBinAddr: 0x563D4, symSize: 0x56 }
  - { offsetInCU: 0x112A5, offset: 0x39EE7D, size: 0x8, addend: 0x0, symName: __ZN4rnv817HostFunctionProxy15GetHostFunctionEv, symObjAddr: 0x139A, symBinAddr: 0x5642A, symSize: 0xA }
  - { offsetInCU: 0x115A1, offset: 0x39F179, size: 0x8, addend: 0x0, symName: __ZN4rnv817HostFunctionProxy16FunctionCallbackERKN2v820FunctionCallbackInfoINS1_5ValueEEE, symObjAddr: 0x13A4, symBinAddr: 0x56434, symSize: 0x744 }
  - { offsetInCU: 0x125C4, offset: 0x3A019C, size: 0x8, addend: 0x0, symName: __ZNKSt3__18functionIFN8facebook3jsi5ValueERNS2_7RuntimeERKS3_PS6_mEEclES5_S7_S8_m, symObjAddr: 0x1AE8, symBinAddr: 0x56B78, symSize: 0x3A }
  - { offsetInCU: 0x12665, offset: 0x3A023D, size: 0x8, addend: 0x0, symName: __ZNK8facebook3jsi8Function4callIJRNSt3__112basic_stringIcNS3_11char_traitsIcEENS3_9allocatorIcEEEEEEENS0_5ValueERNS0_7RuntimeEDpOT_, symObjAddr: 0x1B22, symBinAddr: 0x56BB2, symSize: 0xDA }
  - { offsetInCU: 0x12675, offset: 0x3A024D, size: 0x8, addend: 0x0, symName: __ZNKSt3__114default_deleteIA_N8facebook3jsi5ValueEEclB8ue170006IS3_EENS5_20_EnableIfConvertibleIT_E4typeEPS8_, symObjAddr: 0x1E00, symBinAddr: 0x56D90, symSize: 0x49 }
  - { offsetInCU: 0x126BA, offset: 0x3A0292, size: 0x8, addend: 0x0, symName: __ZNK8facebook3jsi8Function4callIJRNSt3__112basic_stringIcNS3_11char_traitsIcEENS3_9allocatorIcEEEEEEENS0_5ValueERNS0_7RuntimeEDpOT_, symObjAddr: 0x1B22, symBinAddr: 0x56BB2, symSize: 0xDA }
  - { offsetInCU: 0x12C2F, offset: 0x3A0807, size: 0x8, addend: 0x0, symName: __ZNSt3__16vectorIN8facebook3jsi10PropNameIDENS_9allocatorIS3_EEE22__base_destruct_at_endB8ue170006EPS3_, symObjAddr: 0x1DB8, symBinAddr: 0x56D48, symSize: 0x48 }
  - { offsetInCU: 0x1BCE, offset: 0x3A2543, size: 0x8, addend: 0x0, symName: __ZN8facebook3jsi12_GLOBAL__N_112kindToStringERKNS0_5ValueEPNS0_7RuntimeE, symObjAddr: 0x97D, symBinAddr: 0x5770D, symSize: 0x13F }
  - { offsetInCU: 0x1E75, offset: 0x3A27EA, size: 0x8, addend: 0x0, symName: __ZN8facebook3jsi12_GLOBAL__N_118callGlobalFunctionERNS0_7RuntimeEPKcRKNS0_5ValueE, symObjAddr: 0x35EB, symBinAddr: 0x5A2EB, symSize: 0x5D5 }
  - { offsetInCU: 0xA0F6, offset: 0x3AAA6B, size: 0x8, addend: 0x0, symName: __ZNSt3__115allocate_sharedB8ue170006IN8facebook3jsi5ValueENS_9allocatorIS3_EEJS3_EvEENS_10shared_ptrIT_EERKT0_DpOT1_, symObjAddr: 0x465E, symBinAddr: 0x5B1EE, symSize: 0x58 }
  - { offsetInCU: 0xA36E, offset: 0x3AACE3, size: 0x8, addend: 0x0, symName: __ZNSt3__1plB8ue170006IcNS_11char_traitsIcEENS_9allocatorIcEEEENS_12basic_stringIT_T0_T1_EEOS9_RKS9_, symObjAddr: 0x3BCB, symBinAddr: 0x5A8CB, symSize: 0x55 }
  - { offsetInCU: 0xB0EF, offset: 0x3ABA64, size: 0x8, addend: 0x0, symName: __ZN8facebook3jsi7Runtime15instrumentationEv, symObjAddr: 0x1B4, symBinAddr: 0x56F94, symSize: 0x36 }
  - { offsetInCU: 0xB115, offset: 0x3ABA8A, size: 0x8, addend: 0x0, symName: __ZZN8facebook3jsi7Runtime15instrumentationEvE14sharedInstance, symObjAddr: 0x5E40, symBinAddr: 0xE38190, symSize: 0x0 }
  - { offsetInCU: 0xD2B6, offset: 0x3ADC2B, size: 0x8, addend: 0x0, symName: __ZN8facebook3jsi6BufferD2Ev, symObjAddr: 0x0, symBinAddr: 0x56DE0, symSize: 0x6 }
  - { offsetInCU: 0xD2E1, offset: 0x3ADC56, size: 0x8, addend: 0x0, symName: __ZN8facebook3jsi6BufferD1Ev, symObjAddr: 0x6, symBinAddr: 0x56DE6, symSize: 0x6 }
  - { offsetInCU: 0xD30A, offset: 0x3ADC7F, size: 0x8, addend: 0x0, symName: __ZN8facebook3jsi6BufferD0Ev, symObjAddr: 0xC, symBinAddr: 0x56DEC, symSize: 0x6 }
  - { offsetInCU: 0xD333, offset: 0x3ADCA8, size: 0x8, addend: 0x0, symName: __ZN8facebook3jsi13MutableBufferD2Ev, symObjAddr: 0x12, symBinAddr: 0x56DF2, symSize: 0x6 }
  - { offsetInCU: 0xD35E, offset: 0x3ADCD3, size: 0x8, addend: 0x0, symName: __ZN8facebook3jsi13MutableBufferD1Ev, symObjAddr: 0x18, symBinAddr: 0x56DF8, symSize: 0x6 }
  - { offsetInCU: 0xD387, offset: 0x3ADCFC, size: 0x8, addend: 0x0, symName: __ZN8facebook3jsi13MutableBufferD0Ev, symObjAddr: 0x1E, symBinAddr: 0x56DFE, symSize: 0x6 }
  - { offsetInCU: 0xD3B6, offset: 0x3ADD2B, size: 0x8, addend: 0x0, symName: __ZN8facebook3jsi18PreparedJavaScriptD2Ev, symObjAddr: 0x24, symBinAddr: 0x56E04, symSize: 0x6 }
  - { offsetInCU: 0xD3E1, offset: 0x3ADD56, size: 0x8, addend: 0x0, symName: __ZN8facebook3jsi18PreparedJavaScriptD1Ev, symObjAddr: 0x2A, symBinAddr: 0x56E0A, symSize: 0x6 }
  - { offsetInCU: 0xD40C, offset: 0x3ADD81, size: 0x8, addend: 0x0, symName: __ZN8facebook3jsi18PreparedJavaScriptD0Ev, symObjAddr: 0x30, symBinAddr: 0x56E10, symSize: 0x6 }
  - { offsetInCU: 0xD49D, offset: 0x3ADE12, size: 0x8, addend: 0x0, symName: __ZN8facebook3jsi10HostObject3getERNS0_7RuntimeERKNS0_10PropNameIDE, symObjAddr: 0x36, symBinAddr: 0x56E16, symSize: 0x10 }
  - { offsetInCU: 0xD7B3, offset: 0x3AE128, size: 0x8, addend: 0x0, symName: __ZN8facebook3jsi10HostObject3setERNS0_7RuntimeERKNS0_10PropNameIDERKNS0_5ValueE, symObjAddr: 0x46, symBinAddr: 0x56E26, symSize: 0x132 }
  - { offsetInCU: 0xE317, offset: 0x3AEC8C, size: 0x8, addend: 0x0, symName: __ZN8facebook3jsi7JSErrorC2ERNS0_7RuntimeENSt3__112basic_stringIcNS4_11char_traitsIcEENS4_9allocatorIcEEEE, symObjAddr: 0x3202, symBinAddr: 0x59F02, symSize: 0x3E9 }
  - { offsetInCU: 0xF7BC, offset: 0x3B0131, size: 0x8, addend: 0x0, symName: __ZN8facebook3jsi7JSErrorC1ERNS0_7RuntimeENSt3__112basic_stringIcNS4_11char_traitsIcEENS4_9allocatorIcEEEE, symObjAddr: 0x178, symBinAddr: 0x56F58, symSize: 0xA }
  - { offsetInCU: 0xF7F8, offset: 0x3B016D, size: 0x8, addend: 0x0, symName: __ZN8facebook3jsi7JSErrorD1Ev, symObjAddr: 0x182, symBinAddr: 0x56F62, symSize: 0xA }
  - { offsetInCU: 0xF825, offset: 0x3B019A, size: 0x8, addend: 0x0, symName: __ZN8facebook3jsi7JSErrorD2Ev, symObjAddr: 0x41D4, symBinAddr: 0x5AED4, symSize: 0x48 }
  - { offsetInCU: 0xFAB1, offset: 0x3B0426, size: 0x8, addend: 0x0, symName: __ZN8facebook3jsi10HostObjectD2Ev, symObjAddr: 0x18C, symBinAddr: 0x56F6C, symSize: 0x6 }
  - { offsetInCU: 0xFADC, offset: 0x3B0451, size: 0x8, addend: 0x0, symName: __ZN8facebook3jsi10HostObjectD1Ev, symObjAddr: 0x192, symBinAddr: 0x56F72, symSize: 0x6 }
  - { offsetInCU: 0xFB05, offset: 0x3B047A, size: 0x8, addend: 0x0, symName: __ZN8facebook3jsi10HostObjectD0Ev, symObjAddr: 0x198, symBinAddr: 0x56F78, symSize: 0xA }
  - { offsetInCU: 0xFB30, offset: 0x3B04A5, size: 0x8, addend: 0x0, symName: __ZN8facebook3jsi7RuntimeD2Ev, symObjAddr: 0x1A2, symBinAddr: 0x56F82, symSize: 0x6 }
  - { offsetInCU: 0xFB5B, offset: 0x3B04D0, size: 0x8, addend: 0x0, symName: __ZN8facebook3jsi7RuntimeD1Ev, symObjAddr: 0x1A8, symBinAddr: 0x56F88, symSize: 0x6 }
  - { offsetInCU: 0xFB84, offset: 0x3B04F9, size: 0x8, addend: 0x0, symName: __ZN8facebook3jsi7RuntimeD0Ev, symObjAddr: 0x1AE, symBinAddr: 0x56F8E, symSize: 0x6 }
  - { offsetInCU: 0xFBAD, offset: 0x3B0522, size: 0x8, addend: 0x0, symName: __ZZN8facebook3jsi7Runtime15instrumentationEvEN17NoInstrumentationD1Ev, symObjAddr: 0x1EA, symBinAddr: 0x56FCA, symSize: 0x6 }
  - { offsetInCU: 0xFCE2, offset: 0x3B0657, size: 0x8, addend: 0x0, symName: __ZN8facebook3jsi7Runtime23createValueFromJsonUtf8EPKhm, symObjAddr: 0x1F0, symBinAddr: 0x56FD0, symSize: 0x132 }
  - { offsetInCU: 0x1011E, offset: 0x3B0A93, size: 0x8, addend: 0x0, symName: __ZNK8facebook3jsi6Object19getPropertyAsObjectERNS0_7RuntimeEPKc, symObjAddr: 0x322, symBinAddr: 0x57102, symSize: 0x288 }
  - { offsetInCU: 0x10D76, offset: 0x3B16EB, size: 0x8, addend: 0x0, symName: __ZNK8facebook3jsi6Object21getPropertyAsFunctionERNS0_7RuntimeEPKc, symObjAddr: 0x5AA, symBinAddr: 0x5738A, symSize: 0x278 }
  - { offsetInCU: 0x1194B, offset: 0x3B22C0, size: 0x8, addend: 0x0, symName: __ZNK8facebook3jsi8Function4callIJNS0_6StringEEEENS0_5ValueERNS0_7RuntimeEDpOT_, symObjAddr: 0x822, symBinAddr: 0x57602, symSize: 0xD8 }
  - { offsetInCU: 0x11E93, offset: 0x3B2808, size: 0x8, addend: 0x0, symName: __ZN8facebook3jsi5ValueD2Ev, symObjAddr: 0x114E, symBinAddr: 0x57EAE, symSize: 0x22 }
  - { offsetInCU: 0x12115, offset: 0x3B2A8A, size: 0x8, addend: 0x0, symName: __ZN8facebook3jsi7PointeraSEOS1_, symObjAddr: 0x8FA, symBinAddr: 0x576DA, symSize: 0x2F }
  - { offsetInCU: 0x12202, offset: 0x3B2B77, size: 0x8, addend: 0x0, symName: __ZN8facebook3jsi12_GLOBAL__N_112kindToStringERKNS0_5ValueEPNS0_7RuntimeE.cold.1, symObjAddr: 0x47CE, symBinAddr: 0xC72ACE, symSize: 0x21 }
  - { offsetInCU: 0x12224, offset: 0x3B2B99, size: 0x8, addend: 0x0, symName: __ZN8facebook3jsi5ValueD1Ev, symObjAddr: 0xAEC, symBinAddr: 0x5784C, symSize: 0xA }
  - { offsetInCU: 0x1231A, offset: 0x3B2C8F, size: 0x8, addend: 0x0, symName: __ZNKR8facebook3jsi6Object7asArrayERNS0_7RuntimeE, symObjAddr: 0xAF6, symBinAddr: 0x57856, symSize: 0x186 }
  - { offsetInCU: 0x12A4B, offset: 0x3B33C0, size: 0x8, addend: 0x0, symName: __ZNKR8facebook3jsi6Object7asArrayERNS0_7RuntimeE.cold.1, symObjAddr: 0x4812, symBinAddr: 0xC72AF2, symSize: 0x23 }
  - { offsetInCU: 0x12AA6, offset: 0x3B341B, size: 0x8, addend: 0x0, symName: __ZNO8facebook3jsi6Object7asArrayERNS0_7RuntimeE, symObjAddr: 0xC7C, symBinAddr: 0x579DC, symSize: 0x184 }
  - { offsetInCU: 0x131D4, offset: 0x3B3B49, size: 0x8, addend: 0x0, symName: __ZNO8facebook3jsi6Object7asArrayERNS0_7RuntimeE.cold.1, symObjAddr: 0x4835, symBinAddr: 0xC72B15, symSize: 0x23 }
  - { offsetInCU: 0x13224, offset: 0x3B3B99, size: 0x8, addend: 0x0, symName: __ZNKR8facebook3jsi6Object10asFunctionERNS0_7RuntimeE, symObjAddr: 0xE00, symBinAddr: 0x57B60, symSize: 0x186 }
  - { offsetInCU: 0x13955, offset: 0x3B42CA, size: 0x8, addend: 0x0, symName: __ZNKR8facebook3jsi6Object10asFunctionERNS0_7RuntimeE.cold.1, symObjAddr: 0x4858, symBinAddr: 0xC72B38, symSize: 0x23 }
  - { offsetInCU: 0x13982, offset: 0x3B42F7, size: 0x8, addend: 0x0, symName: __ZNO8facebook3jsi6Object10asFunctionERNS0_7RuntimeE, symObjAddr: 0xF86, symBinAddr: 0x57CE6, symSize: 0x184 }
  - { offsetInCU: 0x140B0, offset: 0x3B4A25, size: 0x8, addend: 0x0, symName: __ZNO8facebook3jsi6Object10asFunctionERNS0_7RuntimeE.cold.1, symObjAddr: 0x487B, symBinAddr: 0xC72B5B, symSize: 0x23 }
  - { offsetInCU: 0x14103, offset: 0x3B4A78, size: 0x8, addend: 0x0, symName: __ZN8facebook3jsi5ValueC2EOS1_, symObjAddr: 0x110A, symBinAddr: 0x57E6A, symSize: 0x44 }
  - { offsetInCU: 0x141AD, offset: 0x3B4B22, size: 0x8, addend: 0x0, symName: __ZN8facebook3jsi5ValueC1EOS1_, symObjAddr: 0x1170, symBinAddr: 0x57ED0, symSize: 0x44 }
  - { offsetInCU: 0x1426A, offset: 0x3B4BDF, size: 0x8, addend: 0x0, symName: __ZN8facebook3jsi5ValueC2ERNS0_7RuntimeERKS1_, symObjAddr: 0x11B4, symBinAddr: 0x57F14, symSize: 0xB8 }
  - { offsetInCU: 0x14315, offset: 0x3B4C8A, size: 0x8, addend: 0x0, symName: __ZN8facebook3jsi5ValueC1ERNS0_7RuntimeERKS1_, symObjAddr: 0x126C, symBinAddr: 0x57FCC, symSize: 0xB8 }
  - { offsetInCU: 0x14400, offset: 0x3B4D75, size: 0x8, addend: 0x0, symName: __ZN8facebook3jsi5Value12strictEqualsERNS0_7RuntimeERKS1_S5_, symObjAddr: 0x1324, symBinAddr: 0x58084, symSize: 0xB8 }
  - { offsetInCU: 0x144E6, offset: 0x3B4E5B, size: 0x8, addend: 0x0, symName: __ZNK8facebook3jsi5Value6asBoolEv, symObjAddr: 0x13DC, symBinAddr: 0x5813C, symSize: 0x16C }
  - { offsetInCU: 0x1495B, offset: 0x3B52D0, size: 0x8, addend: 0x0, symName: __ZN8facebook3jsi18JSINativeExceptionD1Ev, symObjAddr: 0x1548, symBinAddr: 0x582A8, symSize: 0xA }
  - { offsetInCU: 0x149A5, offset: 0x3B531A, size: 0x8, addend: 0x0, symName: __ZN8facebook3jsi12JSIExceptionD2Ev, symObjAddr: 0x31C8, symBinAddr: 0x59EC8, symSize: 0x30 }
  - { offsetInCU: 0x14B11, offset: 0x3B5486, size: 0x8, addend: 0x0, symName: __ZNK8facebook3jsi5Value8asNumberEv, symObjAddr: 0x1552, symBinAddr: 0x582B2, symSize: 0x16E }
  - { offsetInCU: 0x14F69, offset: 0x3B58DE, size: 0x8, addend: 0x0, symName: __ZNKR8facebook3jsi5Value8asObjectERNS0_7RuntimeE, symObjAddr: 0x16C0, symBinAddr: 0x58420, symSize: 0x13E }
  - { offsetInCU: 0x15482, offset: 0x3B5DF7, size: 0x8, addend: 0x0, symName: __ZNO8facebook3jsi5Value8asObjectERNS0_7RuntimeE, symObjAddr: 0x17FE, symBinAddr: 0x5855E, symSize: 0x13E }
  - { offsetInCU: 0x15A20, offset: 0x3B6395, size: 0x8, addend: 0x0, symName: __ZNKR8facebook3jsi5Value8asSymbolERNS0_7RuntimeE, symObjAddr: 0x193C, symBinAddr: 0x5869C, symSize: 0x13E }
  - { offsetInCU: 0x15F39, offset: 0x3B68AE, size: 0x8, addend: 0x0, symName: __ZNKR8facebook3jsi5Value9getSymbolERNS0_7RuntimeE, symObjAddr: 0x1A7A, symBinAddr: 0x587DA, symSize: 0x30 }
  - { offsetInCU: 0x1605C, offset: 0x3B69D1, size: 0x8, addend: 0x0, symName: __ZNKR8facebook3jsi5Value9getSymbolERNS0_7RuntimeE.cold.1, symObjAddr: 0x489E, symBinAddr: 0xC72B7E, symSize: 0x23 }
  - { offsetInCU: 0x1609F, offset: 0x3B6A14, size: 0x8, addend: 0x0, symName: __ZNO8facebook3jsi5Value8asSymbolERNS0_7RuntimeE, symObjAddr: 0x1AAA, symBinAddr: 0x5880A, symSize: 0x13E }
  - { offsetInCU: 0x1665A, offset: 0x3B6FCF, size: 0x8, addend: 0x0, symName: __ZNKR8facebook3jsi5Value8asBigIntERNS0_7RuntimeE, symObjAddr: 0x1BE8, symBinAddr: 0x58948, symSize: 0x13E }
  - { offsetInCU: 0x16C7B, offset: 0x3B75F0, size: 0x8, addend: 0x0, symName: __ZNO8facebook3jsi5Value8asBigIntERNS0_7RuntimeE, symObjAddr: 0x1D56, symBinAddr: 0x58A86, symSize: 0x13E }
  - { offsetInCU: 0x17236, offset: 0x3B7BAB, size: 0x8, addend: 0x0, symName: __ZNKR8facebook3jsi5Value8asStringERNS0_7RuntimeE, symObjAddr: 0x1E94, symBinAddr: 0x58BC4, symSize: 0x13E }
  - { offsetInCU: 0x17801, offset: 0x3B8176, size: 0x8, addend: 0x0, symName: __ZNO8facebook3jsi5Value8asStringERNS0_7RuntimeE, symObjAddr: 0x2002, symBinAddr: 0x58D02, symSize: 0x13E }
  - { offsetInCU: 0x17DDF, offset: 0x3B8754, size: 0x8, addend: 0x0, symName: __ZNK8facebook3jsi5Value8toStringERNS0_7RuntimeE, symObjAddr: 0x2140, symBinAddr: 0x58E40, symSize: 0x186 }
  - { offsetInCU: 0x18439, offset: 0x3B8DAE, size: 0x8, addend: 0x0, symName: __ZN8facebook3jsi5Array18createWithElementsERNS0_7RuntimeESt16initializer_listINS0_5ValueEE, symObjAddr: 0x22C6, symBinAddr: 0x58FC6, symSize: 0x90 }
  - { offsetInCU: 0x18636, offset: 0x3B8FAB, size: 0x8, addend: 0x0, symName: __ZN8facebook3jsi5Array15setValueAtIndexIRKNS0_5ValueEEEvRNS0_7RuntimeEmOT_, symObjAddr: 0x2356, symBinAddr: 0x59056, symSize: 0x7A }
  - { offsetInCU: 0x187F3, offset: 0x3B9168, size: 0x8, addend: 0x0, symName: __ZN8facebook3jsi10HostObject16getPropertyNamesERNS0_7RuntimeE, symObjAddr: 0x23D0, symBinAddr: 0x590D0, symSize: 0x18 }
  - { offsetInCU: 0x1885C, offset: 0x3B91D1, size: 0x8, addend: 0x0, symName: __ZN8facebook3jsi7Runtime9pushScopeEv, symObjAddr: 0x23E8, symBinAddr: 0x590E8, symSize: 0x8 }
  - { offsetInCU: 0x18882, offset: 0x3B91F7, size: 0x8, addend: 0x0, symName: __ZN8facebook3jsi7Runtime8popScopeEPNS1_10ScopeStateE, symObjAddr: 0x23F0, symBinAddr: 0x590F0, symSize: 0x6 }
  - { offsetInCU: 0x1891F, offset: 0x3B9294, size: 0x8, addend: 0x0, symName: __ZN8facebook3jsi7JSErrorC2ERNS0_7RuntimeEONS0_5ValueE, symObjAddr: 0x23F6, symBinAddr: 0x590F6, symSize: 0x84 }
  - { offsetInCU: 0x18CD6, offset: 0x3B964B, size: 0x8, addend: 0x0, symName: __ZN8facebook3jsi7JSError8setValueERNS0_7RuntimeEONS0_5ValueE, symObjAddr: 0x247A, symBinAddr: 0x5917A, symSize: 0xD4E }
  - { offsetInCU: 0x1CF8F, offset: 0x3BD904, size: 0x8, addend: 0x0, symName: __ZNSt3__110shared_ptrIN8facebook3jsi5ValueEED2B8ue170006Ev, symObjAddr: 0x459E, symBinAddr: 0x5B12E, symSize: 0x40 }
  - { offsetInCU: 0x1D292, offset: 0x3BDC07, size: 0x8, addend: 0x0, symName: __ZNSt3__110shared_ptrIN8facebook3jsi5ValueEEaSB8ue170006EOS4_, symObjAddr: 0x40E2, symBinAddr: 0x5ADE2, symSize: 0x4A }
  - { offsetInCU: 0x1D4FF, offset: 0x3BDE74, size: 0x8, addend: 0x0, symName: __ZN8facebook3jsi12_GLOBAL__N_112kindToStringERKNS0_5ValueEPNS0_7RuntimeE.cold.1, symObjAddr: 0x47CE, symBinAddr: 0xC72ACE, symSize: 0x21 }
  - { offsetInCU: 0x1D50A, offset: 0x3BDE7F, size: 0x8, addend: 0x0, symName: __ZN8facebook3jsi5ValueaSEOS1_, symObjAddr: 0x412C, symBinAddr: 0x5AE2C, symSize: 0x5C }
  - { offsetInCU: 0x1D625, offset: 0x3BDF9A, size: 0x8, addend: 0x0, symName: __ZN8facebook3jsi7JSErrorC1ERNS0_7RuntimeEONS0_5ValueE, symObjAddr: 0x31F8, symBinAddr: 0x59EF8, symSize: 0xA }
  - { offsetInCU: 0x1D76F, offset: 0x3BE0E4, size: 0x8, addend: 0x0, symName: __ZN8facebook3jsi7JSErrorC2ERNS0_7RuntimeENSt3__112basic_stringIcNS4_11char_traitsIcEENS4_9allocatorIcEEEESA_, symObjAddr: 0x3C20, symBinAddr: 0x5A920, symSize: 0x342 }
  - { offsetInCU: 0x1E753, offset: 0x3BF0C8, size: 0x8, addend: 0x0, symName: __ZN8facebook3jsi6Object11setPropertyINS0_6StringEEEvRNS0_7RuntimeEPKcOT_, symObjAddr: 0x3F62, symBinAddr: 0x5AC62, symSize: 0x8E }
  - { offsetInCU: 0x1E8E7, offset: 0x3BF25C, size: 0x8, addend: 0x0, symName: __ZN8facebook3jsi6Object11setPropertyINS0_6StringEEEvRNS0_7RuntimeERKS3_OT_, symObjAddr: 0x45DE, symBinAddr: 0x5B16E, symSize: 0x80 }
  - { offsetInCU: 0x1EAE4, offset: 0x3BF459, size: 0x8, addend: 0x0, symName: __ZN8facebook3jsi7JSErrorC1ERNS0_7RuntimeENSt3__112basic_stringIcNS4_11char_traitsIcEENS4_9allocatorIcEEEESA_, symObjAddr: 0x3FF0, symBinAddr: 0x5ACF0, symSize: 0xA }
  - { offsetInCU: 0x1EB49, offset: 0x3BF4BE, size: 0x8, addend: 0x0, symName: __ZN8facebook3jsi7JSErrorC2ENSt3__112basic_stringIcNS2_11char_traitsIcEENS2_9allocatorIcEEEERNS0_7RuntimeEONS0_5ValueE, symObjAddr: 0x3FFA, symBinAddr: 0x5ACFA, symSize: 0xDE }
  - { offsetInCU: 0x1EF48, offset: 0x3BF8BD, size: 0x8, addend: 0x0, symName: __ZN8facebook3jsi7JSErrorC1ENSt3__112basic_stringIcNS2_11char_traitsIcEENS2_9allocatorIcEEEERNS0_7RuntimeEONS0_5ValueE, symObjAddr: 0x40D8, symBinAddr: 0x5ADD8, symSize: 0xA }
  - { offsetInCU: 0x1F04D, offset: 0x3BF9C2, size: 0x8, addend: 0x0, symName: __ZN8facebook3jsi12JSIExceptionD1Ev, symObjAddr: 0x4188, symBinAddr: 0x5AE88, symSize: 0xA }
  - { offsetInCU: 0x1F097, offset: 0x3BFA0C, size: 0x8, addend: 0x0, symName: __ZN8facebook3jsi12JSIExceptionD0Ev, symObjAddr: 0x4192, symBinAddr: 0x5AE92, symSize: 0x1C }
  - { offsetInCU: 0x1F0EF, offset: 0x3BFA64, size: 0x8, addend: 0x0, symName: __ZN8facebook3jsi18JSINativeExceptionD2Ev, symObjAddr: 0x41AE, symBinAddr: 0x5AEAE, symSize: 0xA }
  - { offsetInCU: 0x1F139, offset: 0x3BFAAE, size: 0x8, addend: 0x0, symName: __ZN8facebook3jsi18JSINativeExceptionD0Ev, symObjAddr: 0x41B8, symBinAddr: 0x5AEB8, symSize: 0x1C }
  - { offsetInCU: 0x1F1CB, offset: 0x3BFB40, size: 0x8, addend: 0x0, symName: __ZN8facebook3jsi7JSErrorD0Ev, symObjAddr: 0x421C, symBinAddr: 0x5AF1C, symSize: 0x1C }
  - { offsetInCU: 0x1F24F, offset: 0x3BFBC4, size: 0x8, addend: 0x0, symName: __ZNK8facebook3jsi12JSIException4whatEv, symObjAddr: 0x4238, symBinAddr: 0x5AF38, symSize: 0x1A }
  - { offsetInCU: 0x1F32A, offset: 0x3BFC9F, size: 0x8, addend: 0x0, symName: __ZZN8facebook3jsi7Runtime15instrumentationEvEN17NoInstrumentationD0Ev, symObjAddr: 0x4252, symBinAddr: 0x5AF52, symSize: 0xA }
  - { offsetInCU: 0x1F355, offset: 0x3BFCCA, size: 0x8, addend: 0x0, symName: __ZZN8facebook3jsi7Runtime15instrumentationEvEN17NoInstrumentation18getRecordedGCStatsEv, symObjAddr: 0x425C, symBinAddr: 0x5AF5C, symSize: 0x20 }
  - { offsetInCU: 0x1F588, offset: 0x3BFEFD, size: 0x8, addend: 0x0, symName: __ZZN8facebook3jsi7Runtime15instrumentationEvEN17NoInstrumentation11getHeapInfoEb, symObjAddr: 0x427C, symBinAddr: 0x5AF7C, symSize: 0x1A }
  - { offsetInCU: 0x1F71C, offset: 0x3C0091, size: 0x8, addend: 0x0, symName: __ZZN8facebook3jsi7Runtime15instrumentationEvEN17NoInstrumentation14collectGarbageENSt3__112basic_stringIcNS3_11char_traitsIcEENS3_9allocatorIcEEEE, symObjAddr: 0x4296, symBinAddr: 0x5AF96, symSize: 0x6 }
  - { offsetInCU: 0x1F74B, offset: 0x3C00C0, size: 0x8, addend: 0x0, symName: __ZZN8facebook3jsi7Runtime15instrumentationEvEN17NoInstrumentation34startTrackingHeapObjectStackTracesENSt3__18functionIFvyNS3_6chrono8durationIxNS3_5ratioILl1ELl1000000EEEEENS3_6vectorINS3_5tupleIJyyyEEENS3_9allocatorISC_EEEEEEE, symObjAddr: 0x429C, symBinAddr: 0x5AF9C, symSize: 0x6 }
  - { offsetInCU: 0x1F77A, offset: 0x3C00EF, size: 0x8, addend: 0x0, symName: __ZZN8facebook3jsi7Runtime15instrumentationEvEN17NoInstrumentation33stopTrackingHeapObjectStackTracesEv, symObjAddr: 0x42A2, symBinAddr: 0x5AFA2, symSize: 0x6 }
  - { offsetInCU: 0x1F7A1, offset: 0x3C0116, size: 0x8, addend: 0x0, symName: __ZZN8facebook3jsi7Runtime15instrumentationEvEN17NoInstrumentation17startHeapSamplingEm, symObjAddr: 0x42A8, symBinAddr: 0x5AFA8, symSize: 0x6 }
  - { offsetInCU: 0x1F7D0, offset: 0x3C0145, size: 0x8, addend: 0x0, symName: __ZZN8facebook3jsi7Runtime15instrumentationEvEN17NoInstrumentation16stopHeapSamplingERNSt3__113basic_ostreamIcNS3_11char_traitsIcEEEE, symObjAddr: 0x42AE, symBinAddr: 0x5AFAE, symSize: 0x6 }
  - { offsetInCU: 0x1F7FF, offset: 0x3C0174, size: 0x8, addend: 0x0, symName: __ZZN8facebook3jsi7Runtime15instrumentationEvEN17NoInstrumentation20createSnapshotToFileERKNSt3__112basic_stringIcNS3_11char_traitsIcEENS3_9allocatorIcEEEE, symObjAddr: 0x42B4, symBinAddr: 0x5AFB4, symSize: 0xAE }
  - { offsetInCU: 0x1FA90, offset: 0x3C0405, size: 0x8, addend: 0x0, symName: __ZZN8facebook3jsi7Runtime15instrumentationEvEN17NoInstrumentation22createSnapshotToStreamERNSt3__113basic_ostreamIcNS3_11char_traitsIcEEEE, symObjAddr: 0x4362, symBinAddr: 0x5B062, symSize: 0xAE }
  - { offsetInCU: 0x1FD21, offset: 0x3C0696, size: 0x8, addend: 0x0, symName: __ZZN8facebook3jsi7Runtime15instrumentationEvEN17NoInstrumentation33flushAndDisableBridgeTrafficTraceEv, symObjAddr: 0x4410, symBinAddr: 0x5B110, symSize: 0xA }
  - { offsetInCU: 0x1FD48, offset: 0x3C06BD, size: 0x8, addend: 0x0, symName: __ZZN8facebook3jsi7Runtime15instrumentationEvENK17NoInstrumentation33writeBasicBlockProfileTraceToFileERKNSt3__112basic_stringIcNS3_11char_traitsIcEENS3_9allocatorIcEEEE, symObjAddr: 0x441A, symBinAddr: 0x5B11A, symSize: 0xA }
  - { offsetInCU: 0x1FD77, offset: 0x3C06EC, size: 0x8, addend: 0x0, symName: __ZZN8facebook3jsi7Runtime15instrumentationEvENK17NoInstrumentation25dumpProfilerSymbolsToFileERKNSt3__112basic_stringIcNS3_11char_traitsIcEENS3_9allocatorIcEEEE, symObjAddr: 0x4424, symBinAddr: 0x5B124, symSize: 0xA }
  - { offsetInCU: 0x201FA, offset: 0x3C0B6F, size: 0x8, addend: 0x0, symName: __ZNSt3__120__shared_ptr_emplaceIN8facebook3jsi5ValueENS_9allocatorIS3_EEEC2B8ue170006IJS3_EEES5_DpOT_, symObjAddr: 0x46B6, symBinAddr: 0x5B246, symSize: 0x5A }
  - { offsetInCU: 0x203B4, offset: 0x3C0D29, size: 0x8, addend: 0x0, symName: __ZNSt3__120__shared_ptr_emplaceIN8facebook3jsi5ValueENS_9allocatorIS3_EEED1Ev, symObjAddr: 0x4710, symBinAddr: 0x5B2A0, symSize: 0x18 }
  - { offsetInCU: 0x2040E, offset: 0x3C0D83, size: 0x8, addend: 0x0, symName: __ZNSt3__120__shared_ptr_emplaceIN8facebook3jsi5ValueENS_9allocatorIS3_EEED0Ev, symObjAddr: 0x4728, symBinAddr: 0x5B2B8, symSize: 0x2A }
  - { offsetInCU: 0x20476, offset: 0x3C0DEB, size: 0x8, addend: 0x0, symName: __ZNSt3__120__shared_ptr_emplaceIN8facebook3jsi5ValueENS_9allocatorIS3_EEE16__on_zero_sharedEv, symObjAddr: 0x4752, symBinAddr: 0x5B2E2, symSize: 0xE }
  - { offsetInCU: 0x204E4, offset: 0x3C0E59, size: 0x8, addend: 0x0, symName: __ZNSt3__120__shared_ptr_emplaceIN8facebook3jsi5ValueENS_9allocatorIS3_EEE21__on_zero_shared_weakEv, symObjAddr: 0x4760, symBinAddr: 0x5B2F0, symSize: 0xA }
  - { offsetInCU: 0x53, offset: 0x3C0FF6, size: 0x8, addend: 0x0, symName: __ZN3tns12ClassBuilder17classNameCounter_E, symObjAddr: 0x333EF0, symBinAddr: 0x16C3A40, symSize: 0x0 }
  - { offsetInCU: 0xA7BB, offset: 0x3CB75E, size: 0x8, addend: 0x0, symName: __ZNSt3__119__allocate_at_leastB8ue170006INS_9allocatorIPKN3tns12ProtocolMetaEEEEENS_19__allocation_resultINS_16allocator_traitsIT_E7pointerEEERS9_m, symObjAddr: 0xA77E, symBinAddr: 0x62D0E, symSize: 0x2E }
  - { offsetInCU: 0xB123, offset: 0x3CC0C6, size: 0x8, addend: 0x0, symName: __ZNSt3__119__allocate_at_leastB8ue170006INS_9allocatorIPKN3tns12PropertyMetaEEEEENS_19__allocation_resultINS_16allocator_traitsIT_E7pointerEEERS9_m, symObjAddr: 0x95BC, symBinAddr: 0x6232C, symSize: 0x2E }
  - { offsetInCU: 0xB2D4, offset: 0x3CC277, size: 0x8, addend: 0x0, symName: __ZNSt3__115allocate_sharedB8ue170006IN2v810PersistentINS1_6ObjectENS1_27NonCopyablePersistentTraitsIS3_EEEENS_9allocatorIS6_EEJRPNS1_7IsolateERNS1_5LocalIS3_EEEvEENS_10shared_ptrIT_EERKT0_DpOT1_, symObjAddr: 0xAA08, symBinAddr: 0x62E48, symSize: 0x5C }
  - { offsetInCU: 0xB568, offset: 0x3CC50B, size: 0x8, addend: 0x0, symName: __ZNSt3__115allocate_sharedB8ue170006IN2v810PersistentINS1_8FunctionENS1_27NonCopyablePersistentTraitsIS3_EEEENS_9allocatorIS6_EEJRPNS1_7IsolateENS1_5LocalIS3_EEEvEENS_10shared_ptrIT_EERKT0_DpOT1_, symObjAddr: 0xAB08, symBinAddr: 0x62EB8, symSize: 0x5C }
  - { offsetInCU: 0xBB8B, offset: 0x3CCB2E, size: 0x8, addend: 0x0, symName: __ZNSt3__115allocate_sharedB8ue170006IN2v810PersistentINS1_6ObjectENS1_27NonCopyablePersistentTraitsIS3_EEEENS_9allocatorIS6_EEJRPNS1_7IsolateERNS1_5LocalIS3_EEEvEENS_10shared_ptrIT_EERKT0_DpOT1_, symObjAddr: 0xAA08, symBinAddr: 0x62E48, symSize: 0x5C }
  - { offsetInCU: 0x16DB1, offset: 0x3D7D54, size: 0x8, addend: 0x0, symName: __ZN3tns12ClassBuilder17GetExtendFunctionEPN2v87IsolateEPKNS_13InterfaceMetaE, symObjAddr: 0x0, symBinAddr: 0x5B300, symSize: 0x102 }
  - { offsetInCU: 0x17089, offset: 0x3D802C, size: 0x8, addend: 0x0, symName: __ZN3tns6Caches24registerCacheBoundObjectINS_12ClassBuilder9CacheItemEEEvPT_, symObjAddr: 0x102, symBinAddr: 0x5B402, symSize: 0x12E }
  - { offsetInCU: 0x18B7E, offset: 0x3D9B21, size: 0x8, addend: 0x0, symName: __ZN3tns12ClassBuilder14ExtendCallbackERKN2v820FunctionCallbackInfoINS1_5ValueEEE, symObjAddr: 0x230, symBinAddr: 0x5B530, symSize: 0xE98 }
  - { offsetInCU: 0x1CCB4, offset: 0x3DDC57, size: 0x8, addend: 0x0, symName: __ZN3tns12ClassBuilder20ExposeDynamicMembersEN2v85LocalINS1_7ContextEEEP10objc_classNS2_INS1_6ObjectEEES8_, symObjAddr: 0x117C, symBinAddr: 0x5C3CC, symSize: 0x1BC }
  - { offsetInCU: 0x1D4D1, offset: 0x3DE474, size: 0x8, addend: 0x0, symName: __ZN3tns12ClassBuilder20ExposeDynamicMethodsEN2v85LocalINS1_7ContextEEEP10objc_classNS2_INS1_5ValueEEES8_NS2_INS1_6ObjectEEE, symObjAddr: 0x1338, symBinAddr: 0x5C588, symSize: 0x14E6 }
  - { offsetInCU: 0x23894, offset: 0x3E4837, size: 0x8, addend: 0x0, symName: __ZN10robin_hood6detail5TableILb1ELm80ENSt3__112basic_stringIcNS2_11char_traitsIcEENS2_9allocatorIcEEEENS2_10unique_ptrIN2v810PersistentINSA_6ObjectENSA_27NonCopyablePersistentTraitsISC_EEEENS2_14default_deleteISF_EEEENS_4hashIS8_vEENS2_8equal_toIS8_EEE7emplaceIJRS8_SI_EEENS2_4pairINSN_4IterILb0EEEbEEDpOT_, symObjAddr: 0x2BBC, symBinAddr: 0x5DCBC, symSize: 0x154 }
  - { offsetInCU: 0x24BF8, offset: 0x3E5B9B, size: 0x8, addend: 0x0, symName: __ZN3tns12ClassBuilder19GetTypeEncodingTypeEPN2v87IsolateENS1_5LocalINS1_5ValueEEE, symObjAddr: 0x3BE4, symBinAddr: 0x5EA84, symSize: 0xD9 }
  - { offsetInCU: 0x2528C, offset: 0x3E622F, size: 0x8, addend: 0x0, symName: __ZN3tns12ClassBuilder15GetTypeEncodingEPKNS_12TypeEncodingEi, symObjAddr: 0x3A40, symBinAddr: 0x5E8E0, symSize: 0x1A4 }
  - { offsetInCU: 0x258DA, offset: 0x3E687D, size: 0x8, addend: 0x0, symName: __ZNSt3__16vectorIPKN3tns12ProtocolMetaENS_9allocatorIS4_EEE16__init_with_sizeB8ue170006IPS4_S9_EEvT_T0_m, symObjAddr: 0xA8AC, symBinAddr: 0x62D9C, symSize: 0x64 }
  - { offsetInCU: 0x25CFD, offset: 0x3E6CA0, size: 0x8, addend: 0x0, symName: __ZN3tns12ClassBuilder15VisitPropertiesENSt3__112basic_stringIcNS1_11char_traitsIcEENS1_9allocatorIcEEEEPKNS_13BaseClassMetaERNS1_6vectorIPKNS_12PropertyMetaENS5_ISE_EEEENSB_IPKNS_12ProtocolMetaENS5_ISK_EEEE, symObjAddr: 0x3CD2, symBinAddr: 0x5EB72, symSize: 0x790 }
  - { offsetInCU: 0x28B19, offset: 0x3E9ABC, size: 0x8, addend: 0x0, symName: __ZN3tns12ClassBuilder16ExposePropertiesEPN2v87IsolateEP10objc_classNSt3__16vectorIPKNS_12PropertyMetaENS6_9allocatorISA_EEEENS1_5LocalINS1_6ObjectEEENSE_INS1_5ValueEEESI_, symObjAddr: 0x4462, symBinAddr: 0x5F302, symSize: 0x752 }
  - { offsetInCU: 0x2ABE2, offset: 0x3EBB85, size: 0x8, addend: 0x0, symName: __ZN3tns12ClassBuilder12VisitMethodsEP10objc_classNSt3__112basic_stringIcNS3_11char_traitsIcEENS3_9allocatorIcEEEEPKNS_13BaseClassMetaERNS3_6vectorIPKNS_10MethodMetaENS7_ISG_EEEENSD_IPKNS_12ProtocolMetaENS7_ISM_EEEE, symObjAddr: 0x4BB4, symBinAddr: 0x5FA54, symSize: 0x7B0 }
  - { offsetInCU: 0x2D7B7, offset: 0x3EE75A, size: 0x8, addend: 0x0, symName: __ZNKSt3__16vectorIPKN3tns12ProtocolMetaENS_9allocatorIS4_EEE20__throw_length_errorB8ue170006Ev, symObjAddr: 0xA76E, symBinAddr: 0x62CFE, symSize: 0x10 }
  - { offsetInCU: 0x2D7E0, offset: 0x3EE783, size: 0x8, addend: 0x0, symName: __ZNSt3__119__allocate_at_leastB8ue170006INS_9allocatorIPKN3tns12ProtocolMetaEEEEENS_19__allocation_resultINS_16allocator_traitsIT_E7pointerEEERS9_m, symObjAddr: 0xA77E, symBinAddr: 0x62D0E, symSize: 0x2E }
  - { offsetInCU: 0x2D835, offset: 0x3EE7D8, size: 0x8, addend: 0x0, symName: __ZN3tns12ClassBuilder32ExtendedClassConstructorCallbackERKN2v820FunctionCallbackInfoINS1_5ValueEEE, symObjAddr: 0x281E, symBinAddr: 0x5DA6E, symSize: 0x8C }
  - { offsetInCU: 0x2DA93, offset: 0x3EEA36, size: 0x8, addend: 0x0, symName: __ZN3tns12ClassBuilder27SuperAccessorGetterCallbackEN2v85LocalINS1_4NameEEERKNS1_20PropertyCallbackInfoINS1_5ValueEEE, symObjAddr: 0x28AA, symBinAddr: 0x5DAFA, symSize: 0x1C2 }
  - { offsetInCU: 0x2E679, offset: 0x3EF61C, size: 0x8, addend: 0x0, symName: __ZN10robin_hood4pairINSt3__112basic_stringIcNS1_11char_traitsIcEENS1_9allocatorIcEEEENS1_10unique_ptrIN2v810PersistentINS9_8FunctionENS9_27NonCopyablePersistentTraitsISB_EEEENS1_14default_deleteISE_EEEEEC2IRS7_SH_EEOT_OT0_, symObjAddr: 0x9AD8, symBinAddr: 0x62398, symSize: 0x46 }
  - { offsetInCU: 0x2E92D, offset: 0x3EF8D0, size: 0x8, addend: 0x0, symName: __ZNK10robin_hood6detail5TableILb1ELm80ENSt3__112basic_stringIcNS2_11char_traitsIcEENS2_9allocatorIcEEEENS2_10unique_ptrIN2v810PersistentINSA_8FunctionENSA_27NonCopyablePersistentTraitsISC_EEEENS2_14default_deleteISF_EEEENS_4hashIS8_vEENS2_8equal_toIS8_EEE18throwOverflowErrorEv, symObjAddr: 0x6E78, symBinAddr: 0x61748, symSize: 0x4C }
  - { offsetInCU: 0x2EEAD, offset: 0x3EFE50, size: 0x8, addend: 0x0, symName: __ZN10robin_hood4pairINSt3__112basic_stringIcNS1_11char_traitsIcEENS1_9allocatorIcEEEENS1_10unique_ptrIN2v810PersistentINS9_6ObjectENS9_27NonCopyablePersistentTraitsISB_EEEENS1_14default_deleteISE_EEEEEC2IRS7_SH_EEOT_OT0_, symObjAddr: 0x9D00, symBinAddr: 0x625C0, symSize: 0x46 }
  - { offsetInCU: 0x2F096, offset: 0x3F0039, size: 0x8, addend: 0x0, symName: __ZN10robin_hood6detail5TableILb1ELm80ENSt3__112basic_stringIcNS2_11char_traitsIcEENS2_9allocatorIcEEEENS2_10unique_ptrIN2v810PersistentINSA_6ObjectENSA_27NonCopyablePersistentTraitsISC_EEEENS2_14default_deleteISF_EEEENS_4hashIS8_vEENS2_8equal_toIS8_EEE25insertKeyPrepareEmptySpotIRKS8_EENS2_4pairImNSN_14InsertionStateEEEOT_, symObjAddr: 0x9B1E, symBinAddr: 0x623DE, symSize: 0x15C }
  - { offsetInCU: 0x2F1DE, offset: 0x3F0181, size: 0x8, addend: 0x0, symName: __ZNK10robin_hood6detail5TableILb1ELm80ENSt3__112basic_stringIcNS2_11char_traitsIcEENS2_9allocatorIcEEEENS2_10unique_ptrIN2v810PersistentINSA_6ObjectENSA_27NonCopyablePersistentTraitsISC_EEEENS2_14default_deleteISF_EEEENS_4hashIS8_vEENS2_8equal_toIS8_EEE18throwOverflowErrorEv, symObjAddr: 0x9C7A, symBinAddr: 0x6253A, symSize: 0x4C }
  - { offsetInCU: 0x2F212, offset: 0x3F01B5, size: 0x8, addend: 0x0, symName: __ZN10robin_hood6detail5TableILb1ELm80ENSt3__112basic_stringIcNS2_11char_traitsIcEENS2_9allocatorIcEEEENS2_10unique_ptrIN2v810PersistentINSA_6ObjectENSA_27NonCopyablePersistentTraitsISC_EEEENS2_14default_deleteISF_EEEENS_4hashIS8_vEENS2_8equal_toIS8_EEE8DataNodeISN_Lb1EED1Ev, symObjAddr: 0x9CC6, symBinAddr: 0x62586, symSize: 0x3A }
  - { offsetInCU: 0x2F46A, offset: 0x3F040D, size: 0x8, addend: 0x0, symName: __ZN3tns12ClassBuilder37RegisterBaseTypeScriptExtendsFunctionEN2v85LocalINS1_7ContextEEE, symObjAddr: 0x2D1C, symBinAddr: 0x5DE1C, symSize: 0x24E }
  - { offsetInCU: 0x3020E, offset: 0x3F11B1, size: 0x8, addend: 0x0, symName: __ZN3tns12ClassBuilder39RegisterNativeTypeScriptExtendsFunctionEN2v85LocalINS1_7ContextEEE, symObjAddr: 0x2F6A, symBinAddr: 0x5E06A, symSize: 0x13C }
  - { offsetInCU: 0x307FF, offset: 0x3F17A2, size: 0x8, addend: 0x0, symName: __ZN3tns12ClassBuilder15GetTypeEncodingEPKNS_12TypeEncodingE, symObjAddr: 0x30A6, symBinAddr: 0x5E1A6, symSize: 0x72E }
  - { offsetInCU: 0x32782, offset: 0x3F3725, size: 0x8, addend: 0x0, symName: ____ZN3tns12ClassBuilder20ExposeDynamicMethodsEN2v85LocalINS1_7ContextEEEP10objc_classNS2_INS1_5ValueEEES8_NS2_INS1_6ObjectEEE_block_invoke, symObjAddr: 0x3CBD, symBinAddr: 0x5EB5D, symSize: 0x15 }
  - { offsetInCU: 0x32FDE, offset: 0x3F3F81, size: 0x8, addend: 0x0, symName: __ZNKSt3__16vectorIPKN3tns12PropertyMetaENS_9allocatorIS4_EEE20__throw_length_errorB8ue170006Ev, symObjAddr: 0x95AC, symBinAddr: 0x6231C, symSize: 0x10 }
  - { offsetInCU: 0x33007, offset: 0x3F3FAA, size: 0x8, addend: 0x0, symName: __ZNSt3__119__allocate_at_leastB8ue170006INS_9allocatorIPKN3tns12PropertyMetaEEEEENS_19__allocation_resultINS_16allocator_traitsIT_E7pointerEEERS9_m, symObjAddr: 0x95BC, symBinAddr: 0x6232C, symSize: 0x2E }
  - { offsetInCU: 0x33E6B, offset: 0x3F4E0E, size: 0x8, addend: 0x0, symName: __ZN3tns12ClassBuilder22FindNotOverridenMethodEP10objc_classP13objc_selector, symObjAddr: 0x55A6, symBinAddr: 0x60206, symSize: 0x40 }
  - { offsetInCU: 0x343F5, offset: 0x3F5398, size: 0x8, addend: 0x0, symName: __ZN3tns16ObjCClassWrapperD0Ev, symObjAddr: 0x581C, symBinAddr: 0x6024C, symSize: 0xA }
  - { offsetInCU: 0x34719, offset: 0x3F56BC, size: 0x8, addend: 0x0, symName: '__ZZN3tns12ClassBuilder39RegisterNativeTypeScriptExtendsFunctionEN2v85LocalINS1_7ContextEEEEN3$_08__invokeERKNS1_20FunctionCallbackInfoINS1_5ValueEEE', symObjAddr: 0x5832, symBinAddr: 0x60262, symSize: 0xB91 }
  - { offsetInCU: 0x373C3, offset: 0x3F8366, size: 0x8, addend: 0x0, symName: __ZN10robin_hood6detail5TableILb1ELm80ENSt3__112basic_stringIcNS2_11char_traitsIcEENS2_9allocatorIcEEEENS2_10unique_ptrIN2v810PersistentINSA_8FunctionENSA_27NonCopyablePersistentTraitsISC_EEEENS2_14default_deleteISF_EEEENS_4hashIS8_vEENS2_8equal_toIS8_EEE7emplaceIJRS8_RPSF_EEENS2_4pairINSN_4IterILb0EEEbEEDpOT_, symObjAddr: 0x63EE, symBinAddr: 0x60E1E, symSize: 0x172 }
  - { offsetInCU: 0x37C59, offset: 0x3F8BFC, size: 0x8, addend: 0x0, symName: ___Block_byref_object_copy_, symObjAddr: 0x63C3, symBinAddr: 0x60DF3, symSize: 0x17 }
  - { offsetInCU: 0x37C82, offset: 0x3F8C25, size: 0x8, addend: 0x0, symName: ___Block_byref_object_dispose_, symObjAddr: 0x63DA, symBinAddr: 0x60E0A, symSize: 0x14 }
  - { offsetInCU: 0x37EA6, offset: 0x3F8E49, size: 0x8, addend: 0x0, symName: '____ZZN3tns12ClassBuilder39RegisterNativeTypeScriptExtendsFunctionEN2v85LocalINS1_7ContextEEEENK3$_0clERKNS1_20FunctionCallbackInfoINS1_5ValueEEE_block_invoke', symObjAddr: 0x6560, symBinAddr: 0x60F90, symSize: 0x3B9 }
  - { offsetInCU: 0x38E5A, offset: 0x3F9DFD, size: 0x8, addend: 0x0, symName: ___destroy_helper_block_e8_32r, symObjAddr: 0x6930, symBinAddr: 0x61350, symSize: 0x13 }
  - { offsetInCU: 0x38F17, offset: 0x3F9EBA, size: 0x8, addend: 0x0, symName: '____ZZN3tns12ClassBuilder39RegisterNativeTypeScriptExtendsFunctionEN2v85LocalINS1_7ContextEEEENK3$_0clERKNS1_20FunctionCallbackInfoINS1_5ValueEEE_block_invoke.53', symObjAddr: 0x6943, symBinAddr: 0x61363, symSize: 0x1EA }
  - { offsetInCU: 0x395AC, offset: 0x3FA54F, size: 0x8, addend: 0x0, symName: '____ZZN3tns12ClassBuilder39RegisterNativeTypeScriptExtendsFunctionEN2v85LocalINS1_7ContextEEEENK3$_0clERKNS1_20FunctionCallbackInfoINS1_5ValueEEE_block_invoke_2', symObjAddr: 0x6B2D, symBinAddr: 0x6154D, symSize: 0x1EF }
  - { offsetInCU: 0x3A7F8, offset: 0x3FB79B, size: 0x8, addend: 0x0, symName: __ZNSt3__118basic_stringstreamIcNS_11char_traitsIcEENS_9allocatorIcEEED0Ev, symObjAddr: 0x7958, symBinAddr: 0x61798, symSize: 0x8C }
  - { offsetInCU: 0x3ABE2, offset: 0x3FBB85, size: 0x8, addend: 0x0, symName: __ZNSt3__115basic_stringbufIcNS_11char_traitsIcEENS_9allocatorIcEEE8overflowEi, symObjAddr: 0x7D40, symBinAddr: 0x61830, symSize: 0x14E }
  - { offsetInCU: 0x3B0AA, offset: 0x3FC04D, size: 0x8, addend: 0x0, symName: __ZN10robin_hood6detail5TableILb1ELm80EPKN3tns10MethodMetaEP13objc_selectorNS_4hashIS5_vEENSt3__18equal_toIS5_EEED1Ev, symObjAddr: 0x7F70, symBinAddr: 0x61980, symSize: 0x28 }
  - { offsetInCU: 0x3B978, offset: 0x3FC91B, size: 0x8, addend: 0x0, symName: __ZN3WTF12StringHasher26computeHashAndMaskTop8BitsIcXadL_ZNS0_16defaultConverterEcEEEEjPKT_, symObjAddr: 0x8988, symBinAddr: 0x61A88, symSize: 0x46 }
  - { offsetInCU: 0x3BA3A, offset: 0x3FC9DD, size: 0x8, addend: 0x0, symName: __ZNK3tns11GlobalTableILNS_15GlobalTableTypeE0EE17findInterfaceMetaEPKcmj, symObjAddr: 0x88AC, symBinAddr: 0x619AC, symSize: 0xDC }
  - { offsetInCU: 0x3C79E, offset: 0x3FD741, size: 0x8, addend: 0x0, symName: '__ZZN3tns12ClassBuilder16ExposePropertiesEPN2v87IsolateEP10objc_classNSt3__16vectorIPKNS_12PropertyMetaENS6_9allocatorISA_EEEENS1_5LocalINS1_6ObjectEEENSE_INS1_5ValueEEESI_EN3$_18__invokeEP7ffi_cifPvPSM_SM_', symObjAddr: 0x8CD2, symBinAddr: 0x61AD2, symSize: 0x3BA }
  - { offsetInCU: 0x3DA2E, offset: 0x3FE9D1, size: 0x8, addend: 0x0, symName: '__ZZN3tns12ClassBuilder16ExposePropertiesEPN2v87IsolateEP10objc_classNSt3__16vectorIPKNS_12PropertyMetaENS6_9allocatorISA_EEEENS1_5LocalINS1_6ObjectEEENSE_INS1_5ValueEEESI_EN3$_28__invokeEP7ffi_cifPvPSM_SM_', symObjAddr: 0x908C, symBinAddr: 0x61E8C, symSize: 0x482 }
  - { offsetInCU: 0x3ED93, offset: 0x3FFD36, size: 0x8, addend: 0x0, symName: __ZNSt3__128__exception_guard_exceptionsINS_29_AllocatorDestroyRangeReverseINS_9allocatorINS_10unique_ptrIvPFvPKvEEEEENS_16reverse_iteratorIPS8_EEEEED2B8ue170006Ev, symObjAddr: 0x9890, symBinAddr: 0x62360, symSize: 0x1A }
  - { offsetInCU: 0x3F033, offset: 0x3FFFD6, size: 0x8, addend: 0x0, symName: __ZZN3tns6Caches11unique_voidINS_12ClassBuilder9CacheItemEEENSt3__110unique_ptrIvPFvPKvEEEPT_ENUlS7_E_8__invokeES7_, symObjAddr: 0x995C, symBinAddr: 0x6237C, symSize: 0x12 }
  - { offsetInCU: 0x3F122, offset: 0x4000C5, size: 0x8, addend: 0x0, symName: __ZN10robin_hood6detail5TableILb1ELm80ENSt3__112basic_stringIcNS2_11char_traitsIcEENS2_9allocatorIcEEEENS2_10unique_ptrIN2v810PersistentINSA_6ObjectENSA_27NonCopyablePersistentTraitsISC_EEEENS2_14default_deleteISF_EEEENS_4hashIS8_vEENS2_8equal_toIS8_EEE13increase_sizeEv, symObjAddr: 0x9D46, symBinAddr: 0x62606, symSize: 0x108 }
  - { offsetInCU: 0x3F1DD, offset: 0x400180, size: 0x8, addend: 0x0, symName: __ZN10robin_hood6detail5TableILb1ELm80ENSt3__112basic_stringIcNS2_11char_traitsIcEENS2_9allocatorIcEEEENS2_10unique_ptrIN2v810PersistentINSA_6ObjectENSA_27NonCopyablePersistentTraitsISC_EEEENS2_14default_deleteISF_EEEENS_4hashIS8_vEENS2_8equal_toIS8_EEE7shiftUpEmm, symObjAddr: 0x9E4E, symBinAddr: 0x6270E, symSize: 0x120 }
  - { offsetInCU: 0x3F50C, offset: 0x4004AF, size: 0x8, addend: 0x0, symName: __ZN10robin_hood6detail5TableILb1ELm80ENSt3__112basic_stringIcNS2_11char_traitsIcEENS2_9allocatorIcEEEENS2_10unique_ptrIN2v810PersistentINSA_6ObjectENSA_27NonCopyablePersistentTraitsISC_EEEENS2_14default_deleteISF_EEEENS_4hashIS8_vEENS2_8equal_toIS8_EEE17try_increase_infoEv, symObjAddr: 0xA056, symBinAddr: 0x62916, symSize: 0xE8 }
  - { offsetInCU: 0x3F5FB, offset: 0x40059E, size: 0x8, addend: 0x0, symName: __ZN10robin_hood6detail5TableILb1ELm80ENSt3__112basic_stringIcNS2_11char_traitsIcEENS2_9allocatorIcEEEENS2_10unique_ptrIN2v810PersistentINSA_6ObjectENSA_27NonCopyablePersistentTraitsISC_EEEENS2_14default_deleteISF_EEEENS_4hashIS8_vEENS2_8equal_toIS8_EEE8initDataEm, symObjAddr: 0x9F6E, symBinAddr: 0x6282E, symSize: 0xE8 }
  - { offsetInCU: 0x3F6DA, offset: 0x40067D, size: 0x8, addend: 0x0, symName: __ZN10robin_hood6detail5TableILb1ELm80ENSt3__112basic_stringIcNS2_11char_traitsIcEENS2_9allocatorIcEEEENS2_10unique_ptrIN2v810PersistentINSA_6ObjectENSA_27NonCopyablePersistentTraitsISC_EEEENS2_14default_deleteISF_EEEENS_4hashIS8_vEENS2_8equal_toIS8_EEE17try_increase_infoEv, symObjAddr: 0xA056, symBinAddr: 0x62916, symSize: 0xE8 }
  - { offsetInCU: 0x3F6E5, offset: 0x400688, size: 0x8, addend: 0x0, symName: __ZN10robin_hood6detail5TableILb1ELm80ENSt3__112basic_stringIcNS2_11char_traitsIcEENS2_9allocatorIcEEEENS2_10unique_ptrIN2v810PersistentINSA_6ObjectENSA_27NonCopyablePersistentTraitsISC_EEEENS2_14default_deleteISF_EEEENS_4hashIS8_vEENS2_8equal_toIS8_EEE16rehashPowerOfTwoEmb, symObjAddr: 0xA13E, symBinAddr: 0x629FE, symSize: 0x118 }
  - { offsetInCU: 0x3FB0B, offset: 0x400AAE, size: 0x8, addend: 0x0, symName: __ZN10robin_hood6detail5TableILb1ELm80ENSt3__112basic_stringIcNS2_11char_traitsIcEENS2_9allocatorIcEEEENS2_10unique_ptrIN2v810PersistentINSA_6ObjectENSA_27NonCopyablePersistentTraitsISC_EEEENS2_14default_deleteISF_EEEENS_4hashIS8_vEENS2_8equal_toIS8_EEE11insert_moveEONSN_8DataNodeISN_Lb1EEE, symObjAddr: 0xA256, symBinAddr: 0x62B16, symSize: 0x15E }
  - { offsetInCU: 0x40291, offset: 0x401234, size: 0x8, addend: 0x0, symName: __ZNSt3__112basic_stringIcNS_11char_traitsIcEENS_9allocatorIcEEEC2B8ue170006Emc, symObjAddr: 0xA610, symBinAddr: 0x62C80, symSize: 0x78 }
  - { offsetInCU: 0x40A4E, offset: 0x4019F1, size: 0x8, addend: 0x0, symName: __ZNSt3__120__shared_ptr_emplaceIN2v810PersistentINS1_5ValueENS1_27NonCopyablePersistentTraitsIS3_EEEENS_9allocatorIS6_EEEC2B8ue170006IJRPNS1_7IsolateERNS1_5LocalIS3_EEEEES8_DpOT_, symObjAddr: 0xA808, symBinAddr: 0x62D48, symSize: 0x52 }
  - { offsetInCU: 0x40DD9, offset: 0x401D7C, size: 0x8, addend: 0x0, symName: __ZNSt3__16vectorIPKN3tns12ProtocolMetaENS_9allocatorIS4_EEE11__vallocateB8ue170006Em, symObjAddr: 0xA910, symBinAddr: 0x62E00, symSize: 0x3A }
  - { offsetInCU: 0x411E2, offset: 0x402185, size: 0x8, addend: 0x0, symName: __ZNSt3__120__shared_ptr_emplaceIN2v810PersistentINS1_6ObjectENS1_27NonCopyablePersistentTraitsIS3_EEEENS_9allocatorIS6_EEE16__on_zero_sharedEv, symObjAddr: 0xAAF8, symBinAddr: 0x62EA8, symSize: 0x6 }
  - { offsetInCU: 0x41410, offset: 0x4023B3, size: 0x8, addend: 0x0, symName: __ZNSt3__120__shared_ptr_emplaceIN2v810PersistentINS1_8FunctionENS1_27NonCopyablePersistentTraitsIS3_EEEENS_9allocatorIS6_EEEC2B8ue170006IJRPNS1_7IsolateENS1_5LocalIS3_EEEEES8_DpOT_, symObjAddr: 0xAB64, symBinAddr: 0x62F14, symSize: 0x52 }
  - { offsetInCU: 0x4156A, offset: 0x40250D, size: 0x8, addend: 0x0, symName: __ZNSt3__120__shared_ptr_emplaceIN2v810PersistentINS1_8FunctionENS1_27NonCopyablePersistentTraitsIS3_EEEENS_9allocatorIS6_EEE16__on_zero_sharedEv, symObjAddr: 0xABF8, symBinAddr: 0x62F68, symSize: 0x6 }
  - { offsetInCU: 0x3F, offset: 0x402877, size: 0x8, addend: 0x0, symName: _RuntimeConfig, symObjAddr: 0x24CA8, symBinAddr: 0x16C3A48, symSize: 0x0 }
  - { offsetInCU: 0x4C5F, offset: 0x407497, size: 0x8, addend: 0x0, symName: __ZN13RuntimeConfigD1Ev, symObjAddr: 0x0, symBinAddr: 0x62F6E, symSize: 0x33 }
  - { offsetInCU: 0x4F4B, offset: 0x407783, size: 0x8, addend: 0x0, symName: __GLOBAL__sub_I_RuntimeConfig.cpp, symObjAddr: 0x33, symBinAddr: 0x62FA1, symSize: 0x37 }
  - { offsetInCU: 0x53, offset: 0x40786A, size: 0x8, addend: 0x0, symName: __ZN3tns13WorkerWrapper7nextId_E, symObjAddr: 0x228188, symBinAddr: 0x16C3A88, symSize: 0x0 }
  - { offsetInCU: 0x514, offset: 0x407D2B, size: 0x8, addend: 0x0, symName: __ZN3tnsL8workers_E, symObjAddr: 0x228180, symBinAddr: 0x16ACEB0, symSize: 0x0 }
  - { offsetInCU: 0xACC, offset: 0x4082E3, size: 0x8, addend: 0x0, symName: __ZN3tns16staticInitMethodEv, symObjAddr: 0x0, symBinAddr: 0x62FE0, symSize: 0x2E }
  - { offsetInCU: 0x10D5C, offset: 0x418573, size: 0x8, addend: 0x0, symName: __ZN3tns13WorkerWrapper37PassUncaughtExceptionFromWorkerToMainEN2v85LocalINS1_7ContextEEERNS1_8TryCatchEb, symObjAddr: 0xAFA, symBinAddr: 0x63A8A, symSize: 0x4CA }
  - { offsetInCU: 0x1496C, offset: 0x41C183, size: 0x8, addend: 0x0, symName: __ZN3tns13WorkerWrapperC2EPN2v87IsolateENSt3__18functionIFvS3_NS1_5LocalINS1_6ObjectEEENS4_10shared_ptrINS_6worker7MessageEEEEEE, symObjAddr: 0x2E, symBinAddr: 0x6300E, symSize: 0xAA }
  - { offsetInCU: 0x14AEE, offset: 0x41C305, size: 0x8, addend: 0x0, symName: __ZNSt3__110__function12__value_funcIFvPN2v87IsolateENS2_5LocalINS2_6ObjectEEENS_10shared_ptrIN3tns6worker7MessageEEEEEC2B8ue170006ERKSE_, symObjAddr: 0x1A48, symBinAddr: 0x64638, symSize: 0x4C }
  - { offsetInCU: 0x14B73, offset: 0x41C38A, size: 0x8, addend: 0x0, symName: __ZN3tns13WorkerWrapperC1EPN2v87IsolateENSt3__18functionIFvS3_NS1_5LocalINS1_6ObjectEEENS4_10shared_ptrINS_6worker7MessageEEEEEE, symObjAddr: 0xD8, symBinAddr: 0x630B8, symSize: 0xAA }
  - { offsetInCU: 0x14D3C, offset: 0x41C553, size: 0x8, addend: 0x0, symName: __ZN3tns13WorkerWrapper4TypeEv, symObjAddr: 0x182, symBinAddr: 0x63162, symSize: 0xC }
  - { offsetInCU: 0x14D61, offset: 0x41C578, size: 0x8, addend: 0x0, symName: __ZN3tns13WorkerWrapper2IdEv, symObjAddr: 0x18E, symBinAddr: 0x6316E, symSize: 0xC }
  - { offsetInCU: 0x14D88, offset: 0x41C59F, size: 0x8, addend: 0x0, symName: __ZN3tns13WorkerWrapper9IsRunningEv, symObjAddr: 0x19A, symBinAddr: 0x6317A, symSize: 0xA }
  - { offsetInCU: 0x14DAF, offset: 0x41C5C6, size: 0x8, addend: 0x0, symName: __ZN3tns13WorkerWrapper9IsClosingEv, symObjAddr: 0x1A4, symBinAddr: 0x63184, symSize: 0xA }
  - { offsetInCU: 0x14DD6, offset: 0x41C5ED, size: 0x8, addend: 0x0, symName: __ZN3tns13WorkerWrapper8WorkerIdEv, symObjAddr: 0x1AE, symBinAddr: 0x6318E, symSize: 0xC }
  - { offsetInCU: 0x14F23, offset: 0x41C73A, size: 0x8, addend: 0x0, symName: __ZN3tns13WorkerWrapper11PostMessageENSt3__110shared_ptrINS_6worker7MessageEEE, symObjAddr: 0x1BA, symBinAddr: 0x6319A, symSize: 0x7E }
  - { offsetInCU: 0x1512E, offset: 0x41C945, size: 0x8, addend: 0x0, symName: __ZNSt3__110shared_ptrIN3tns6worker7MessageEED2B8ue170006Ev, symObjAddr: 0x1A94, symBinAddr: 0x64684, symSize: 0x40 }
  - { offsetInCU: 0x152CD, offset: 0x41CAE4, size: 0x8, addend: 0x0, symName: __ZN3tns13WorkerWrapper5StartENSt3__110shared_ptrIN2v810PersistentINS3_5ValueENS3_27NonCopyablePersistentTraitsIS5_EEEEEENS1_8functionIFPNS3_7IsolateEvEEE, symObjAddr: 0x238, symBinAddr: 0x63218, symSize: 0x114 }
  - { offsetInCU: 0x155E6, offset: 0x41CDFD, size: 0x8, addend: 0x0, symName: __ZNSt3__110__function12__value_funcIFPN2v87IsolateEvEEC2B8ue170006ERKS6_, symObjAddr: 0x1AD4, symBinAddr: 0x646C4, symSize: 0x4C }
  - { offsetInCU: 0x156E7, offset: 0x41CEFE, size: 0x8, addend: 0x0, symName: ____ZN3tns13WorkerWrapper5StartENSt3__110shared_ptrIN2v810PersistentINS3_5ValueENS3_27NonCopyablePersistentTraitsIS5_EEEEEENS1_8functionIFPNS3_7IsolateEvEEE_block_invoke, symObjAddr: 0x3A2, symBinAddr: 0x63332, symSize: 0xAC }
  - { offsetInCU: 0x158C5, offset: 0x41D0DC, size: 0x8, addend: 0x0, symName: __ZN3tns13WorkerWrapper16BackgroundLooperENSt3__18functionIFPN2v87IsolateEvEEE, symObjAddr: 0x44E, symBinAddr: 0x633DE, symSize: 0x85 }
  - { offsetInCU: 0x15A48, offset: 0x41D25F, size: 0x8, addend: 0x0, symName: ___copy_helper_block_e16_32c40_ZTSNSt3__18functionIFPN2v87IsolateEvEEE, symObjAddr: 0x4D3, symBinAddr: 0x63463, symSize: 0x12 }
  - { offsetInCU: 0x15AC7, offset: 0x41D2DE, size: 0x8, addend: 0x0, symName: __ZN3tns13WorkerWrapper17DrainPendingTasksEv, symObjAddr: 0x514, symBinAddr: 0x634A4, symSize: 0x30C }
  - { offsetInCU: 0x16446, offset: 0x41DC5D, size: 0x8, addend: 0x0, symName: ___copy_helper_block_e16_32c40_ZTSNSt3__18functionIFPN2v87IsolateEvEEE, symObjAddr: 0x4D3, symBinAddr: 0x63463, symSize: 0x12 }
  - { offsetInCU: 0x164E7, offset: 0x41DCFE, size: 0x8, addend: 0x0, symName: ___destroy_helper_block_e16_32c40_ZTSNSt3__18functionIFPN2v87IsolateEvEEE, symObjAddr: 0x4E5, symBinAddr: 0x63475, symSize: 0x2F }
  - { offsetInCU: 0x16826, offset: 0x41E03D, size: 0x8, addend: 0x0, symName: __ZNKSt3__18functionIFvPN2v87IsolateENS1_5LocalINS1_6ObjectEEENS_10shared_ptrIN3tns6worker7MessageEEEEEclES3_S6_SB_, symObjAddr: 0x820, symBinAddr: 0x637B0, symSize: 0x32 }
  - { offsetInCU: 0x168B5, offset: 0x41E0CC, size: 0x8, addend: 0x0, symName: __ZN3tns13WorkerWrapper19CallOnErrorHandlersERN2v88TryCatchE, symObjAddr: 0x852, symBinAddr: 0x637E2, symSize: 0x26A }
  - { offsetInCU: 0x168C0, offset: 0x41E0D7, size: 0x8, addend: 0x0, symName: __ZN3tns13WorkerWrapper19CallOnErrorHandlersERN2v88TryCatchE, symObjAddr: 0x852, symBinAddr: 0x637E2, symSize: 0x26A }
  - { offsetInCU: 0x1707B, offset: 0x41E892, size: 0x8, addend: 0x0, symName: __ZNSt3__16vectorINS_10shared_ptrIN3tns6worker7MessageEEENS_9allocatorIS5_EEE16__destroy_vectorclB8ue170006Ev, symObjAddr: 0x1B20, symBinAddr: 0x64710, symSize: 0x56 }
  - { offsetInCU: 0x17702, offset: 0x41EF19, size: 0x8, addend: 0x0, symName: __ZN3tns13WorkerWrapper5CloseEv, symObjAddr: 0xABC, symBinAddr: 0x63A4C, symSize: 0xA }
  - { offsetInCU: 0x17761, offset: 0x41EF78, size: 0x8, addend: 0x0, symName: __ZN3tns13WorkerWrapper9TerminateEv, symObjAddr: 0xAC6, symBinAddr: 0x63A56, symSize: 0x34 }
  - { offsetInCU: 0x181CF, offset: 0x41F9E6, size: 0x8, addend: 0x0, symName: '__ZZN3tns13WorkerWrapper37PassUncaughtExceptionFromWorkerToMainEN2v85LocalINS1_7ContextEEERNS1_8TryCatchEbEN3$_1D1Ev', symObjAddr: 0x1078, symBinAddr: 0x63F58, symSize: 0x44 }
  - { offsetInCU: 0x1885F, offset: 0x420076, size: 0x8, addend: 0x0, symName: __ZN3tns13WorkerWrapper20ConstructErrorObjectEN2v85LocalINS1_7ContextEEENSt3__112basic_stringIcNS5_11char_traitsIcEENS5_9allocatorIcEEEESB_SB_i, symObjAddr: 0x10BC, symBinAddr: 0x63F9C, symSize: 0x44A }
  - { offsetInCU: 0x19C7F, offset: 0x421496, size: 0x8, addend: 0x0, symName: __ZN3tns13WorkerWrapperD1Ev, symObjAddr: 0x1506, symBinAddr: 0x643E6, symSize: 0x70 }
  - { offsetInCU: 0x19DE6, offset: 0x4215FD, size: 0x8, addend: 0x0, symName: __ZNSt3__15dequeINS_10shared_ptrIN3tns6worker7MessageEEENS_9allocatorIS5_EEED2B8ue170006Ev, symObjAddr: 0x1804, symBinAddr: 0x644E4, symSize: 0x120 }
  - { offsetInCU: 0x1A26D, offset: 0x421A84, size: 0x8, addend: 0x0, symName: __ZN3tns13WorkerWrapperD0Ev, symObjAddr: 0x1576, symBinAddr: 0x64456, symSize: 0x7A }
  - { offsetInCU: 0x1A721, offset: 0x421F38, size: 0x8, addend: 0x0, symName: '__ZZN3tns13WorkerWrapper16BackgroundLooperENSt3__18functionIFPN2v87IsolateEvEEEEN3$_08__invokeEPv', symObjAddr: 0x1702, symBinAddr: 0x644D2, symSize: 0xA }
  - { offsetInCU: 0x1AC33, offset: 0x42244A, size: 0x8, addend: 0x0, symName: __ZNSt3__114__split_bufferIPNS_10shared_ptrIN3tns6worker7MessageEEENS_9allocatorIS6_EEED2Ev, symObjAddr: 0x1924, symBinAddr: 0x64604, symSize: 0x34 }
  - { offsetInCU: 0x1AED3, offset: 0x4226EA, size: 0x8, addend: 0x0, symName: __ZNSt3__117bad_function_callD1Ev, symObjAddr: 0x1BA8, symBinAddr: 0x64768, symSize: 0xA }
  - { offsetInCU: 0x1AFE5, offset: 0x4227FC, size: 0x8, addend: 0x0, symName: '__ZNSt3__110__function6__funcIZN3tns13WorkerWrapper37PassUncaughtExceptionFromWorkerToMainEN2v85LocalINS4_7ContextEEERNS4_8TryCatchEbE3$_1NS_9allocatorISA_EEFvvEED1Ev', symObjAddr: 0x1C4E, symBinAddr: 0x6477E, symSize: 0x4E }
  - { offsetInCU: 0x1B404, offset: 0x422C1B, size: 0x8, addend: 0x0, symName: '__ZNSt3__110__function6__funcIZN3tns13WorkerWrapper37PassUncaughtExceptionFromWorkerToMainEN2v85LocalINS4_7ContextEEERNS4_8TryCatchEbE3$_1NS_9allocatorISA_EEFvvEED0Ev', symObjAddr: 0x1C9C, symBinAddr: 0x647CC, symSize: 0x4E }
  - { offsetInCU: 0x1BAF4, offset: 0x42330B, size: 0x8, addend: 0x0, symName: '__ZNKSt3__110__function6__funcIZN3tns13WorkerWrapper37PassUncaughtExceptionFromWorkerToMainEN2v85LocalINS4_7ContextEEERNS4_8TryCatchEbE3$_1NS_9allocatorISA_EEFvvEE7__cloneEv', symObjAddr: 0x1CEA, symBinAddr: 0x6481A, symSize: 0x4A }
  - { offsetInCU: 0x1BD81, offset: 0x423598, size: 0x8, addend: 0x0, symName: '__ZNSt3__122__compressed_pair_elemIZN3tns13WorkerWrapper37PassUncaughtExceptionFromWorkerToMainEN2v85LocalINS3_7ContextEEERNS3_8TryCatchEbE3$_1Li0ELb0EEC2B8ue170006IJRKS9_EJLm0EEEENS_21piecewise_construct_tENS_5tupleIJDpT_EEENS_15__tuple_indicesIJXspT0_EEEE', symObjAddr: 0x224A, symBinAddr: 0x64D7A, symSize: 0xE4 }
  - { offsetInCU: 0x1C315, offset: 0x423B2C, size: 0x8, addend: 0x0, symName: '__ZNKSt3__110__function6__funcIZN3tns13WorkerWrapper37PassUncaughtExceptionFromWorkerToMainEN2v85LocalINS4_7ContextEEERNS4_8TryCatchEbE3$_1NS_9allocatorISA_EEFvvEE7__cloneEPNS0_6__baseISD_EE', symObjAddr: 0x1D34, symBinAddr: 0x64864, symSize: 0x20 }
  - { offsetInCU: 0x1C45E, offset: 0x423C75, size: 0x8, addend: 0x0, symName: '__ZNSt3__110__function6__funcIZN3tns13WorkerWrapper37PassUncaughtExceptionFromWorkerToMainEN2v85LocalINS4_7ContextEEERNS4_8TryCatchEbE3$_1NS_9allocatorISA_EEFvvEE7destroyEv', symObjAddr: 0x1D54, symBinAddr: 0x64884, symSize: 0xE }
  - { offsetInCU: 0x1C494, offset: 0x423CAB, size: 0x8, addend: 0x0, symName: '__ZNSt3__110__function12__alloc_funcIZN3tns13WorkerWrapper37PassUncaughtExceptionFromWorkerToMainEN2v85LocalINS4_7ContextEEERNS4_8TryCatchEbE3$_1NS_9allocatorISA_EEFvvEE7destroyB8ue170006Ev', symObjAddr: 0x232E, symBinAddr: 0x64E5E, symSize: 0x43 }
  - { offsetInCU: 0x1C854, offset: 0x42406B, size: 0x8, addend: 0x0, symName: '__ZNSt3__110__function6__funcIZN3tns13WorkerWrapper37PassUncaughtExceptionFromWorkerToMainEN2v85LocalINS4_7ContextEEERNS4_8TryCatchEbE3$_1NS_9allocatorISA_EEFvvEE18destroy_deallocateEv', symObjAddr: 0x1D62, symBinAddr: 0x64892, symSize: 0x20 }
  - { offsetInCU: 0x1CB4E, offset: 0x424365, size: 0x8, addend: 0x0, symName: '__ZNSt3__110__function6__funcIZN3tns13WorkerWrapper37PassUncaughtExceptionFromWorkerToMainEN2v85LocalINS4_7ContextEEERNS4_8TryCatchEbE3$_1NS_9allocatorISA_EEFvvEEclEv', symObjAddr: 0x1D82, symBinAddr: 0x648B2, symSize: 0x4C8 }
  - { offsetInCU: 0x11BB1, offset: 0x43743F, size: 0x8, addend: 0x0, symName: '-[NSDataAdapter initWithJSObject:isolate:]', symObjAddr: 0x0, symBinAddr: 0x64EB0, symSize: 0x27E }
  - { offsetInCU: 0x124F6, offset: 0x437D84, size: 0x8, addend: 0x0, symName: __ZN10robin_hood6detail5TableILb1ELm80EP11objc_objectNSt3__110shared_ptrIN2v810PersistentINS6_5ValueENS6_27NonCopyablePersistentTraitsIS8_EEEEEENS_4hashIS3_vEENS4_8equal_toIS3_EEE7emplaceIJRP13NSDataAdapterRSC_EEENS4_4pairINSH_4IterILb0EEEbEEDpOT_, symObjAddr: 0x2C8, symBinAddr: 0x65138, symSize: 0x11D }
  - { offsetInCU: 0x12F8B, offset: 0x438819, size: 0x8, addend: 0x0, symName: '-[NSDataAdapter bytes]', symObjAddr: 0x3E5, symBinAddr: 0x65255, symSize: 0x12 }
  - { offsetInCU: 0x13099, offset: 0x438927, size: 0x8, addend: 0x0, symName: '-[NSDataAdapter mutableBytes]', symObjAddr: 0x3F7, symBinAddr: 0x65267, symSize: 0x120 }
  - { offsetInCU: 0x13295, offset: 0x438B23, size: 0x8, addend: 0x0, symName: '-[NSDataAdapter length]', symObjAddr: 0x517, symBinAddr: 0x65387, symSize: 0x6F }
  - { offsetInCU: 0x134EB, offset: 0x438D79, size: 0x8, addend: 0x0, symName: '-[NSDataAdapter dealloc]', symObjAddr: 0x586, symBinAddr: 0x653F6, symSize: 0x260 }
  - { offsetInCU: 0x13D46, offset: 0x4395D4, size: 0x8, addend: 0x0, symName: '-[NSDataAdapter .cxx_destruct]', symObjAddr: 0x895, symBinAddr: 0x65665, symSize: 0x11 }
  - { offsetInCU: 0x13DD6, offset: 0x439664, size: 0x8, addend: 0x0, symName: '-[NSDataAdapter .cxx_construct]', symObjAddr: 0x8A6, symBinAddr: 0x65676, symSize: 0x17 }
  - { offsetInCU: 0x14668, offset: 0x439EF6, size: 0x8, addend: 0x0, symName: __ZN10robin_hood6detail5TableILb1ELm80EP11objc_objectNSt3__110shared_ptrIN2v810PersistentINS6_5ValueENS6_27NonCopyablePersistentTraitsIS8_EEEEEENS_4hashIS3_vEENS4_8equal_toIS3_EEE17try_increase_infoEv, symObjAddr: 0xFE0, symBinAddr: 0x65690, symSize: 0xE8 }
  - { offsetInCU: 0x147E7, offset: 0x43A075, size: 0x8, addend: 0x0, symName: __ZN10robin_hood6detail5TableILb1ELm80EP11objc_objectNSt3__110shared_ptrIN2v810PersistentINS6_5ValueENS6_27NonCopyablePersistentTraitsIS8_EEEEEENS_4hashIS3_vEENS4_8equal_toIS3_EEE17try_increase_infoEv, symObjAddr: 0xFE0, symBinAddr: 0x65690, symSize: 0xE8 }
  - { offsetInCU: 0x27, offset: 0x43A468, size: 0x8, addend: 0x0, symName: __ZN3tns11DisposerPHV21VisitPersistentHandleEPN2v810PersistentINS1_5ValueENS1_27NonCopyablePersistentTraitsIS3_EEEEt, symObjAddr: 0x0, symBinAddr: 0x65778, symSize: 0xFC }
  - { offsetInCU: 0x4F32, offset: 0x43F373, size: 0x8, addend: 0x0, symName: __ZN3tns11DisposerPHV21VisitPersistentHandleEPN2v810PersistentINS1_5ValueENS1_27NonCopyablePersistentTraitsIS3_EEEEt, symObjAddr: 0x0, symBinAddr: 0x65778, symSize: 0xFC }
  - { offsetInCU: 0x5254, offset: 0x43F695, size: 0x8, addend: 0x0, symName: __ZN3tns11DisposerPHVD1Ev, symObjAddr: 0xFC, symBinAddr: 0x65874, symSize: 0x6 }
  - { offsetInCU: 0x527D, offset: 0x43F6BE, size: 0x8, addend: 0x0, symName: __ZN3tns11DisposerPHVD0Ev, symObjAddr: 0x102, symBinAddr: 0x6587A, symSize: 0xA }
  - { offsetInCU: 0x8ED7, offset: 0x448612, size: 0x8, addend: 0x0, symName: __ZN3tns9inspector21NSInMemoryTraceWriter16AppendTraceEventEPN2v88platform7tracing11TraceObjectE, symObjAddr: 0x0, symBinAddr: 0x65890, symSize: 0x50 }
  - { offsetInCU: 0x8FAF, offset: 0x4486EA, size: 0x8, addend: 0x0, symName: __ZN3tns9inspector21NSInMemoryTraceWriter5FlushEv, symObjAddr: 0x50, symBinAddr: 0x658E0, symSize: 0x1A }
  - { offsetInCU: 0x9186, offset: 0x4488C1, size: 0x8, addend: 0x0, symName: __ZN3tns9inspector21NSInMemoryTraceWriter8getTraceEv, symObjAddr: 0x6A, symBinAddr: 0x658FA, symSize: 0xDC }
  - { offsetInCU: 0x9A42, offset: 0x44917D, size: 0x8, addend: 0x0, symName: __ZNSt3__115basic_stringbufIcNS_11char_traitsIcEENS_9allocatorIcEEE15__init_buf_ptrsB8ue170006Ev, symObjAddr: 0x10A2, symBinAddr: 0x65F92, symSize: 0x10E }
  - { offsetInCU: 0x9DD7, offset: 0x449512, size: 0x8, addend: 0x0, symName: __ZN3tns9inspector16TracingAgentImplC2Ev, symObjAddr: 0x146, symBinAddr: 0x659D6, symSize: 0xB8 }
  - { offsetInCU: 0xA0D1, offset: 0x44980C, size: 0x8, addend: 0x0, symName: __ZNSt3__110shared_ptrIN2v88PlatformEED2B8ue170006Ev, symObjAddr: 0x11B0, symBinAddr: 0x660A0, symSize: 0x3F }
  - { offsetInCU: 0xA14A, offset: 0x449885, size: 0x8, addend: 0x0, symName: __ZN3tns9inspector16TracingAgentImplC1Ev, symObjAddr: 0x1FE, symBinAddr: 0x65A8E, symSize: 0xA }
  - { offsetInCU: 0xA2CF, offset: 0x449A0A, size: 0x8, addend: 0x0, symName: __ZN3tns9inspector16TracingAgentImpl5startEv, symObjAddr: 0x208, symBinAddr: 0x65A98, symSize: 0xB6 }
  - { offsetInCU: 0xA4E1, offset: 0x449C1C, size: 0x8, addend: 0x0, symName: __ZN3tns9inspector16TracingAgentImpl3endEv, symObjAddr: 0x2BE, symBinAddr: 0x65B4E, symSize: 0x72 }
  - { offsetInCU: 0xA875, offset: 0x449FB0, size: 0x8, addend: 0x0, symName: __ZN3tns9inspector16TracingAgentImpl14SendToDevtoolsEN2v85LocalINS2_7ContextEEENSt3__112basic_stringIcNS6_11char_traitsIcEENS6_9allocatorIcEEEE, symObjAddr: 0x330, symBinAddr: 0x65BC0, symSize: 0x264 }
  - { offsetInCU: 0xB460, offset: 0x44AB9B, size: 0x8, addend: 0x0, symName: __ZN3tns9inspector21NSInMemoryTraceWriterD1Ev, symObjAddr: 0x594, symBinAddr: 0x65E24, symSize: 0xB0 }
  - { offsetInCU: 0xB6DE, offset: 0x44AE19, size: 0x8, addend: 0x0, symName: __ZN3tns9inspector21NSInMemoryTraceWriterD0Ev, symObjAddr: 0x644, symBinAddr: 0x65ED4, symSize: 0xB8 }
  - { offsetInCU: 0x43, offset: 0x44B88E, size: 0x8, addend: 0x0, symName: __ZN12_GLOBAL__N_16BufferE, symObjAddr: 0x2C1B00, symBinAddr: 0x16ACEB8, symSize: 0x0 }
  - { offsetInCU: 0x5C, offset: 0x44B8A7, size: 0x8, addend: 0x0, symName: __ZN12_GLOBAL__N_19BinBufferE, symObjAddr: 0x2C1B08, symBinAddr: 0x16ACEC0, symSize: 0x0 }
  - { offsetInCU: 0x1111C, offset: 0x45C967, size: 0x8, addend: 0x0, symName: __ZNSt3__119__throw_range_errorB8ue170006EPKc, symObjAddr: 0x5802, symBinAddr: 0x6A1C2, symSize: 0x4C }
  - { offsetInCU: 0x112CE, offset: 0x45CB19, size: 0x8, addend: 0x0, symName: __ZNSt3__119__allocate_at_leastB8ue170006INS_9allocatorIDsEEEENS_19__allocation_resultINS_16allocator_traitsIT_E7pointerEEERS5_m, symObjAddr: 0x58E4, symBinAddr: 0x6A2A4, symSize: 0x26 }
  - { offsetInCU: 0x1136B, offset: 0x45CBB6, size: 0x8, addend: 0x0, symName: __ZNSt3__112basic_stringIDsNS_11char_traitsIDsEENS_9allocatorIDsEEE6resizeEmDs, symObjAddr: 0x590A, symBinAddr: 0x6A2CA, symSize: 0x46 }
  - { offsetInCU: 0x11BB7, offset: 0x45D402, size: 0x8, addend: 0x0, symName: __ZNSt3__119__allocate_at_leastB8ue170006INS_9allocatorItEEEENS_19__allocation_resultINS_16allocator_traitsIT_E7pointerEEERS5_m, symObjAddr: 0x5EF0, symBinAddr: 0x6A8B0, symSize: 0x26 }
  - { offsetInCU: 0x12CC5, offset: 0x45E510, size: 0x8, addend: 0x0, symName: __ZN3tns13ToUtf16StringEPN2v87IsolateERKNS0_5LocalINS0_5ValueEEE, symObjAddr: 0x0, symBinAddr: 0x660E0, symSize: 0x151 }
  - { offsetInCU: 0x1336C, offset: 0x45EBB7, size: 0x8, addend: 0x0, symName: __ZN3tns8ToVectorERKNSt3__112basic_stringIcNS0_11char_traitsIcEENS0_9allocatorIcEEEE, symObjAddr: 0x205, symBinAddr: 0x66235, symSize: 0x189 }
  - { offsetInCU: 0x13985, offset: 0x45F1D0, size: 0x8, addend: 0x0, symName: __ZN3tns6ExistsEPKc, symObjAddr: 0x38E, symBinAddr: 0x663BE, symSize: 0x38 }
  - { offsetInCU: 0x139E4, offset: 0x45F22F, size: 0x8, addend: 0x0, symName: __ZN3tns10ReadModuleEPN2v87IsolateERKNSt3__112basic_stringIcNS3_11char_traitsIcEENS3_9allocatorIcEEEE, symObjAddr: 0x3C6, symBinAddr: 0x663F6, symSize: 0x129 }
  - { offsetInCU: 0x13DDA, offset: 0x45F625, size: 0x8, addend: 0x0, symName: __ZN3tns6AssertEbPN2v87IsolateERKNSt3__112basic_stringIcNS3_11char_traitsIcEENS3_9allocatorIcEEEE, symObjAddr: 0x4EF, symBinAddr: 0x6651F, symSize: 0x16D }
  - { offsetInCU: 0x1444B, offset: 0x45FC96, size: 0x8, addend: 0x0, symName: __ZN3tns12LogBacktraceEi, symObjAddr: 0x1EAB, symBinAddr: 0x67E5B, symSize: 0x206 }
  - { offsetInCU: 0x14568, offset: 0x45FDB3, size: 0x8, addend: 0x0, symName: __ZN3tns13GetStackTraceEPN2v87IsolateE, symObjAddr: 0x26FA, symBinAddr: 0x686AA, symSize: 0x1DA }
  - { offsetInCU: 0x14B27, offset: 0x460372, size: 0x8, addend: 0x0, symName: __ZN3tns8ReadTextERKNSt3__112basic_stringIcNS0_11char_traitsIcEENS0_9allocatorIcEEEERlRb, symObjAddr: 0x65C, symBinAddr: 0x6668C, symSize: 0x10A }
  - { offsetInCU: 0x14F01, offset: 0x46074C, size: 0x8, addend: 0x0, symName: __ZN3tns8ReadTextERKNSt3__112basic_stringIcNS0_11char_traitsIcEENS0_9allocatorIcEEEE, symObjAddr: 0x766, symBinAddr: 0x66796, symSize: 0x55 }
  - { offsetInCU: 0x14FB0, offset: 0x4607FB, size: 0x8, addend: 0x0, symName: __ZN3tns10ReadBinaryENSt3__112basic_stringIcNS0_11char_traitsIcEENS0_9allocatorIcEEEERlRb, symObjAddr: 0x7BB, symBinAddr: 0x667EB, symSize: 0x19D }
  - { offsetInCU: 0x151E0, offset: 0x460A2B, size: 0x8, addend: 0x0, symName: __ZN3tns11WriteBinaryERKNSt3__112basic_stringIcNS0_11char_traitsIcEENS0_9allocatorIcEEEEPKvl, symObjAddr: 0xAB6, symBinAddr: 0x66AE6, symSize: 0x65 }
  - { offsetInCU: 0x152C9, offset: 0x460B14, size: 0x8, addend: 0x0, symName: __ZN3tns15SetPrivateValueERKN2v85LocalINS0_6ObjectEEERKNS1_INS0_6StringEEERKNS1_INS0_5ValueEEE, symObjAddr: 0xB1B, symBinAddr: 0x66B4B, symSize: 0xE2 }
  - { offsetInCU: 0x156F0, offset: 0x460F3B, size: 0x8, addend: 0x0, symName: __ZN3tns15GetPrivateValueERKN2v85LocalINS0_6ObjectEEERKNS1_INS0_6StringEEE, symObjAddr: 0xBFD, symBinAddr: 0x66C2D, symSize: 0x172 }
  - { offsetInCU: 0x15E84, offset: 0x4616CF, size: 0x8, addend: 0x0, symName: __ZN3tns21DeleteWrapperIfUnusedEPN2v87IsolateERKNS0_5LocalINS0_5ValueEEEPNS_15BaseDataWrapperE, symObjAddr: 0xD6F, symBinAddr: 0x66D9F, symSize: 0x30 }
  - { offsetInCU: 0x15EE8, offset: 0x461733, size: 0x8, addend: 0x0, symName: __ZN3tns8GetValueEPN2v87IsolateERKNS0_5LocalINS0_5ValueEEE, symObjAddr: 0xD9F, symBinAddr: 0x66DCF, symSize: 0x194 }
  - { offsetInCU: 0x16594, offset: 0x461DDF, size: 0x8, addend: 0x0, symName: __ZN3tns8SetValueEPN2v87IsolateERKNS0_5LocalINS0_6ObjectEEEPNS_15BaseDataWrapperE, symObjAddr: 0xF33, symBinAddr: 0x66F63, symSize: 0x11D }
  - { offsetInCU: 0x16B22, offset: 0x46236D, size: 0x8, addend: 0x0, symName: __ZN3tns11DeleteValueEPN2v87IsolateERKNS0_5LocalINS0_5ValueEEE, symObjAddr: 0x1050, symBinAddr: 0x67080, symSize: 0x1F5 }
  - { offsetInCU: 0x17488, offset: 0x462CD3, size: 0x8, addend: 0x0, symName: __ZN3tns12ArgsToVectorERKN2v820FunctionCallbackInfoINS0_5ValueEEE, symObjAddr: 0x1245, symBinAddr: 0x67275, symSize: 0x17D }
  - { offsetInCU: 0x17BAA, offset: 0x4633F5, size: 0x8, addend: 0x0, symName: __ZN3tns18IsArrayOrArrayLikeEPN2v87IsolateERKNS0_5LocalINS0_5ValueEEE, symObjAddr: 0x1450, symBinAddr: 0x67400, symSize: 0x120 }
  - { offsetInCU: 0x18043, offset: 0x46388E, size: 0x8, addend: 0x0, symName: __ZN3tns27TryGetBufferFromArrayBufferERKN2v85LocalINS0_5ValueEEERb, symObjAddr: 0x1570, symBinAddr: 0x67520, symSize: 0xD1 }
  - { offsetInCU: 0x1824D, offset: 0x463A98, size: 0x8, addend: 0x0, symName: __ZN3tns16ExecuteOnRunLoopEP11__CFRunLoopNSt3__18functionIFvvEEEb, symObjAddr: 0x1641, symBinAddr: 0x675F1, symSize: 0x2DD }
  - { offsetInCU: 0x1868B, offset: 0x463ED6, size: 0x8, addend: 0x0, symName: __ZN3tns22ExecuteOnDispatchQueueEPU28objcproto17OS_dispatch_queue8NSObjectNSt3__18functionIFvvEEEb, symObjAddr: 0x1A40, symBinAddr: 0x679F0, symSize: 0xF6 }
  - { offsetInCU: 0x187FA, offset: 0x464045, size: 0x8, addend: 0x0, symName: __ZN3tns19ExecuteOnMainThreadENSt3__18functionIFvvEEEb, symObjAddr: 0x1B68, symBinAddr: 0x67B18, symSize: 0x100 }
  - { offsetInCU: 0x18959, offset: 0x4641A4, size: 0x8, addend: 0x0, symName: __ZN3tns8LogErrorEPN2v87IsolateERNS0_8TryCatchE, symObjAddr: 0x1C9A, symBinAddr: 0x67C4A, symSize: 0x211 }
  - { offsetInCU: 0x19765, offset: 0x464FB0, size: 0x8, addend: 0x0, symName: __ZN3tns10ReplaceAllENSt3__112basic_stringIcNS0_11char_traitsIcEENS0_9allocatorIcEEEES6_S6_, symObjAddr: 0x20B1, symBinAddr: 0x68061, symSize: 0x265 }
  - { offsetInCU: 0x19DCE, offset: 0x465619, size: 0x8, addend: 0x0, symName: __ZN3tns19JsonStringifyObjectEN2v85LocalINS0_7ContextEEENS1_INS0_5ValueEEEb, symObjAddr: 0x2316, symBinAddr: 0x682C6, symSize: 0x193 }
  - { offsetInCU: 0x1A079, offset: 0x4658C4, size: 0x8, addend: 0x0, symName: __ZN3tns29GetSmartJSONStringifyFunctionEPN2v87IsolateE, symObjAddr: 0x24A9, symBinAddr: 0x68459, symSize: 0x251 }
  - { offsetInCU: 0x1AC4A, offset: 0x466495, size: 0x8, addend: 0x0, symName: __ZN3tns27BuildStacktraceFrameMessageEPN2v87IsolateENS0_5LocalINS0_10StackFrameEEE, symObjAddr: 0x29BD, symBinAddr: 0x6888D, symSize: 0x361 }
  - { offsetInCU: 0x1B68A, offset: 0x466ED5, size: 0x8, addend: 0x0, symName: __ZN3tns32BuildStacktraceFrameLocationPartEPN2v87IsolateENS0_5LocalINS0_10StackFrameEEE, symObjAddr: 0x2E0D, symBinAddr: 0x68C5D, symSize: 0x2D4 }
  - { offsetInCU: 0x1C6CE, offset: 0x467F19, size: 0x8, addend: 0x0, symName: __ZN3tns19GetCurrentScriptUrlEPN2v87IsolateE, symObjAddr: 0x2DA2, symBinAddr: 0x68BF2, symSize: 0x6B }
  - { offsetInCU: 0x1C77B, offset: 0x467FC6, size: 0x8, addend: 0x0, symName: __ZN3tns8LiveSyncEPN2v87IsolateE, symObjAddr: 0x30E1, symBinAddr: 0x68F31, symSize: 0x238 }
  - { offsetInCU: 0x1CF3A, offset: 0x468785, size: 0x8, addend: 0x0, symName: __ZN3tns29StopExecutionAndLogStackTraceEPN2v87IsolateE, symObjAddr: 0x3319, symBinAddr: 0x69169, symSize: 0x55 }
  - { offsetInCU: 0x1D217, offset: 0x468A62, size: 0x8, addend: 0x0, symName: __ZN3tns19NewFunctionTemplateEPN2v87IsolateEPFvRKNS0_20FunctionCallbackInfoINS0_5ValueEEEENS0_5LocalIS4_EENSA_INS0_9SignatureEEENS0_19ConstructorBehaviorENS0_14SideEffectTypeEPKNS0_9CFunctionE, symObjAddr: 0x336E, symBinAddr: 0x691BE, symSize: 0x29 }
  - { offsetInCU: 0x1D2CF, offset: 0x468B1A, size: 0x8, addend: 0x0, symName: __ZN3tns9SetMethodEN2v85LocalINS0_7ContextEEENS1_INS0_6ObjectEEEPKcPFvRKNS0_20FunctionCallbackInfoINS0_5ValueEEEENS1_IS9_EE, symObjAddr: 0x3397, symBinAddr: 0x691E7, symSize: 0xC0 }
  - { offsetInCU: 0x1D420, offset: 0x468C6B, size: 0x8, addend: 0x0, symName: __ZN3tns9SetMethodEPN2v87IsolateENS0_5LocalINS0_8TemplateEEEPKcPFvRKNS0_20FunctionCallbackInfoINS0_5ValueEEEENS3_IS9_EE, symObjAddr: 0x3457, symBinAddr: 0x692A7, symSize: 0x76 }
  - { offsetInCU: 0x1D51E, offset: 0x468D69, size: 0x8, addend: 0x0, symName: __ZN3tns13SetFastMethodEPN2v87IsolateENS0_5LocalINS0_8TemplateEEEPKcPFvRKNS0_20FunctionCallbackInfoINS0_5ValueEEEEPKNS0_9CFunctionENS3_IS9_EE, symObjAddr: 0x34CD, symBinAddr: 0x6931D, symSize: 0x7D }
  - { offsetInCU: 0x1D62F, offset: 0x468E7A, size: 0x8, addend: 0x0, symName: __ZN3tns13SetFastMethodEN2v85LocalINS0_7ContextEEENS1_INS0_6ObjectEEEPKcPFvRKNS0_20FunctionCallbackInfoINS0_5ValueEEEEPKNS0_9CFunctionENS1_IS9_EE, symObjAddr: 0x354A, symBinAddr: 0x6939A, symSize: 0xC6 }
  - { offsetInCU: 0x1D791, offset: 0x468FDC, size: 0x8, addend: 0x0, symName: __ZN3tns25SetFastMethodNoSideEffectEN2v85LocalINS0_7ContextEEENS1_INS0_6ObjectEEEPKcPFvRKNS0_20FunctionCallbackInfoINS0_5ValueEEEEPKNS0_9CFunctionENS1_IS9_EE, symObjAddr: 0x3610, symBinAddr: 0x69460, symSize: 0xC7 }
  - { offsetInCU: 0x1D8F3, offset: 0x46913E, size: 0x8, addend: 0x0, symName: __ZN3tns25SetFastMethodNoSideEffectEPN2v87IsolateENS0_5LocalINS0_8TemplateEEEPKcPFvRKNS0_20FunctionCallbackInfoINS0_5ValueEEEEPKNS0_9CFunctionENS3_IS9_EE, symObjAddr: 0x36D7, symBinAddr: 0x69527, symSize: 0x7D }
  - { offsetInCU: 0x1DA04, offset: 0x46924F, size: 0x8, addend: 0x0, symName: __ZN3tns21SetMethodNoSideEffectEN2v85LocalINS0_7ContextEEENS1_INS0_6ObjectEEEPKcPFvRKNS0_20FunctionCallbackInfoINS0_5ValueEEEENS1_IS9_EE, symObjAddr: 0x3754, symBinAddr: 0x695A4, symSize: 0xC1 }
  - { offsetInCU: 0x1DB55, offset: 0x4693A0, size: 0x8, addend: 0x0, symName: __ZN3tns21SetMethodNoSideEffectEPN2v87IsolateENS0_5LocalINS0_8TemplateEEEPKcPFvRKNS0_20FunctionCallbackInfoINS0_5ValueEEEENS3_IS9_EE, symObjAddr: 0x3815, symBinAddr: 0x69665, symSize: 0x77 }
  - { offsetInCU: 0x1DC53, offset: 0x46949E, size: 0x8, addend: 0x0, symName: __ZN3tns14SetProtoMethodEPN2v87IsolateENS0_5LocalINS0_16FunctionTemplateEEEPKcPFvRKNS0_20FunctionCallbackInfoINS0_5ValueEEEENS3_IS9_EE, symObjAddr: 0x388C, symBinAddr: 0x696DC, symSize: 0xA6 }
  - { offsetInCU: 0x1DD5E, offset: 0x4695A9, size: 0x8, addend: 0x0, symName: __ZN3tns26SetProtoMethodNoSideEffectEPN2v87IsolateENS0_5LocalINS0_16FunctionTemplateEEEPKcPFvRKNS0_20FunctionCallbackInfoINS0_5ValueEEEENS3_IS9_EE, symObjAddr: 0x3932, symBinAddr: 0x69782, symSize: 0xA6 }
  - { offsetInCU: 0x1DE69, offset: 0x4696B4, size: 0x8, addend: 0x0, symName: __ZN3tns17SetInstanceMethodEPN2v87IsolateENS0_5LocalINS0_16FunctionTemplateEEEPKcPFvRKNS0_20FunctionCallbackInfoINS0_5ValueEEEENS3_IS9_EE, symObjAddr: 0x39D8, symBinAddr: 0x69828, symSize: 0xA6 }
  - { offsetInCU: 0x1DFA6, offset: 0x4697F1, size: 0x8, addend: 0x0, symName: __ZN3tns22SetConstructorFunctionEN2v85LocalINS0_7ContextEEENS1_INS0_6ObjectEEEPKcNS1_INS0_16FunctionTemplateEEENS_26SetConstructorFunctionFlagE, symObjAddr: 0x3A7E, symBinAddr: 0x698CE, symSize: 0x65 }
  - { offsetInCU: 0x1E070, offset: 0x4698BB, size: 0x8, addend: 0x0, symName: __ZN3tns22SetConstructorFunctionEN2v85LocalINS0_7ContextEEENS1_INS0_6ObjectEEENS1_INS0_6StringEEENS1_INS0_16FunctionTemplateEEENS_26SetConstructorFunctionFlagE, symObjAddr: 0x3AE3, symBinAddr: 0x69933, symSize: 0x6D }
  - { offsetInCU: 0x1E16E, offset: 0x4699B9, size: 0x8, addend: 0x0, symName: __ZN3tns22SetConstructorFunctionEPN2v87IsolateENS0_5LocalINS0_8TemplateEEEPKcNS3_INS0_16FunctionTemplateEEENS_26SetConstructorFunctionFlagE, symObjAddr: 0x3B50, symBinAddr: 0x699A0, symSize: 0x5B }
  - { offsetInCU: 0x1E255, offset: 0x469AA0, size: 0x8, addend: 0x0, symName: __ZN3tns22SetConstructorFunctionEPN2v87IsolateENS0_5LocalINS0_8TemplateEEENS3_INS0_6StringEEENS3_INS0_16FunctionTemplateEEENS_26SetConstructorFunctionFlagE, symObjAddr: 0x3BAB, symBinAddr: 0x699FB, symSize: 0x3F }
  - { offsetInCU: 0x25D7C, offset: 0x4715C7, size: 0x8, addend: 0x0, symName: __ZNSt3__115wstring_convertINS_18codecvt_utf8_utf16IDsLm1114111ELNS_12codecvt_modeE0EEEDsNS_9allocatorIDsEENS4_IcEEE10from_bytesEPKcS9_, symObjAddr: 0x53E0, symBinAddr: 0x69DA0, symSize: 0x2C2 }
  - { offsetInCU: 0x264BE, offset: 0x471D09, size: 0x8, addend: 0x0, symName: __ZNSt3__115wstring_convertINS_18codecvt_utf8_utf16IDsLm1114111ELNS_12codecvt_modeE0EEEDsNS_9allocatorIDsEENS4_IcEEED2Ev, symObjAddr: 0x539E, symBinAddr: 0x69D5E, symSize: 0x42 }
  - { offsetInCU: 0x26863, offset: 0x4720AE, size: 0x8, addend: 0x0, symName: __ZNSt3__112basic_stringIcNS_11char_traitsIcEENS_9allocatorIcEEEC2B8ue170006EPKcm, symObjAddr: 0x51D0, symBinAddr: 0x69CC0, symSize: 0x78 }
  - { offsetInCU: 0x26D96, offset: 0x4725E1, size: 0x8, addend: 0x0, symName: __ZNSt3__16vectorItNS_9allocatorItEEE16__init_with_sizeB8ue170006IPKtS6_EEvT_T0_m, symObjAddr: 0x5E46, symBinAddr: 0x6A806, symSize: 0x64 }
  - { offsetInCU: 0x274EA, offset: 0x472D35, size: 0x8, addend: 0x0, symName: __ZN3tns6AssertEbPN2v87IsolateERKNSt3__112basic_stringIcNS3_11char_traitsIcEENS3_9allocatorIcEEEE.cold.1, symObjAddr: 0x66F4, symBinAddr: 0xC72BA4, symSize: 0x23 }
  - { offsetInCU: 0x27617, offset: 0x472E62, size: 0x8, addend: 0x0, symName: __ZNSt3__114basic_ifstreamIcNS_11char_traitsIcEEEC1ERKNS_12basic_stringIcS2_NS_9allocatorIcEEEEj, symObjAddr: 0x958, symBinAddr: 0x66988, symSize: 0x10C }
  - { offsetInCU: 0x2781B, offset: 0x473066, size: 0x8, addend: 0x0, symName: __ZNSt3__114basic_ifstreamIcNS_11char_traitsIcEEED1Ev, symObjAddr: 0xA64, symBinAddr: 0x66A94, symSize: 0x52 }
  - { offsetInCU: 0x28803, offset: 0x47404E, size: 0x8, addend: 0x0, symName: __ZN3tns18IsArrayOrArrayLikeEPN2v87IsolateERKNS0_5LocalINS0_5ValueEEE, symObjAddr: 0x1450, symBinAddr: 0x67400, symSize: 0x120 }
  - { offsetInCU: 0x28DEB, offset: 0x474636, size: 0x8, addend: 0x0, symName: ____ZN3tns16ExecuteOnRunLoopEP11__CFRunLoopNSt3__18functionIFvvEEEb_block_invoke, symObjAddr: 0x191E, symBinAddr: 0x678CE, symSize: 0x4F }
  - { offsetInCU: 0x28F06, offset: 0x474751, size: 0x8, addend: 0x0, symName: ___copy_helper_block_e16_32c27_ZTSNSt3__18functionIFvvEEE80r, symObjAddr: 0x196D, symBinAddr: 0x6791D, symSize: 0x33 }
  - { offsetInCU: 0x28F10, offset: 0x47475B, size: 0x8, addend: 0x0, symName: ___copy_helper_block_e16_32c27_ZTSNSt3__18functionIFvvEEE80r, symObjAddr: 0x196D, symBinAddr: 0x6791D, symSize: 0x33 }
  - { offsetInCU: 0x28FB1, offset: 0x4747FC, size: 0x8, addend: 0x0, symName: ___destroy_helper_block_e16_32c27_ZTSNSt3__18functionIFvvEEE80r, symObjAddr: 0x19A0, symBinAddr: 0x67950, symSize: 0x46 }
  - { offsetInCU: 0x29037, offset: 0x474882, size: 0x8, addend: 0x0, symName: ____ZN3tns16ExecuteOnRunLoopEP11__CFRunLoopNSt3__18functionIFvvEEEb_block_invoke.7, symObjAddr: 0x19E6, symBinAddr: 0x67996, symSize: 0x19 }
  - { offsetInCU: 0x290C1, offset: 0x47490C, size: 0x8, addend: 0x0, symName: ___copy_helper_block_e16_32c27_ZTSNSt3__18functionIFvvEEE, symObjAddr: 0x19FF, symBinAddr: 0x679AF, symSize: 0x12 }
  - { offsetInCU: 0x290CB, offset: 0x474916, size: 0x8, addend: 0x0, symName: ___copy_helper_block_e16_32c27_ZTSNSt3__18functionIFvvEEE, symObjAddr: 0x19FF, symBinAddr: 0x679AF, symSize: 0x12 }
  - { offsetInCU: 0x2916C, offset: 0x4749B7, size: 0x8, addend: 0x0, symName: ___destroy_helper_block_e16_32c27_ZTSNSt3__18functionIFvvEEE, symObjAddr: 0x1A11, symBinAddr: 0x679C1, symSize: 0x2F }
  - { offsetInCU: 0x29218, offset: 0x474A63, size: 0x8, addend: 0x0, symName: ____ZN3tns22ExecuteOnDispatchQueueEPU28objcproto17OS_dispatch_queue8NSObjectNSt3__18functionIFvvEEEb_block_invoke, symObjAddr: 0x1B36, symBinAddr: 0x67AE6, symSize: 0x19 }
  - { offsetInCU: 0x292A2, offset: 0x474AED, size: 0x8, addend: 0x0, symName: ____ZN3tns22ExecuteOnDispatchQueueEPU28objcproto17OS_dispatch_queue8NSObjectNSt3__18functionIFvvEEEb_block_invoke_2, symObjAddr: 0x1B4F, symBinAddr: 0x67AFF, symSize: 0x19 }
  - { offsetInCU: 0x292AC, offset: 0x474AF7, size: 0x8, addend: 0x0, symName: ____ZN3tns22ExecuteOnDispatchQueueEPU28objcproto17OS_dispatch_queue8NSObjectNSt3__18functionIFvvEEEb_block_invoke_2, symObjAddr: 0x1B4F, symBinAddr: 0x67AFF, symSize: 0x19 }
  - { offsetInCU: 0x29336, offset: 0x474B81, size: 0x8, addend: 0x0, symName: __ZN3tns19ExecuteOnMainThreadENSt3__18functionIFvvEEEb, symObjAddr: 0x1B68, symBinAddr: 0x67B18, symSize: 0x100 }
  - { offsetInCU: 0x29340, offset: 0x474B8B, size: 0x8, addend: 0x0, symName: ____ZN3tns19ExecuteOnMainThreadENSt3__18functionIFvvEEEb_block_invoke, symObjAddr: 0x1C68, symBinAddr: 0x67C18, symSize: 0x19 }
  - { offsetInCU: 0x293CA, offset: 0x474C15, size: 0x8, addend: 0x0, symName: ____ZN3tns19ExecuteOnMainThreadENSt3__18functionIFvvEEEb_block_invoke_2, symObjAddr: 0x1C81, symBinAddr: 0x67C31, symSize: 0x19 }
  - { offsetInCU: 0x293D4, offset: 0x474C1F, size: 0x8, addend: 0x0, symName: ____ZN3tns19ExecuteOnMainThreadENSt3__18functionIFvvEEEb_block_invoke_2, symObjAddr: 0x1C81, symBinAddr: 0x67C31, symSize: 0x19 }
  - { offsetInCU: 0x2945E, offset: 0x474CA9, size: 0x8, addend: 0x0, symName: __ZN3tns8LogErrorEPN2v87IsolateERNS0_8TryCatchE, symObjAddr: 0x1C9A, symBinAddr: 0x67C4A, symSize: 0x211 }
  - { offsetInCU: 0x2A380, offset: 0x475BCB, size: 0x8, addend: 0x0, symName: __ZTv0_n24_NSt3__114basic_ifstreamIcNS_11char_traitsIcEEED1Ev, symObjAddr: 0x3BEA, symBinAddr: 0x69A3A, symSize: 0x62 }
  - { offsetInCU: 0x2A403, offset: 0x475C4E, size: 0x8, addend: 0x0, symName: __ZNSt3__114basic_ifstreamIcNS_11char_traitsIcEEED0Ev, symObjAddr: 0x3C4C, symBinAddr: 0x69A9C, symSize: 0x5A }
  - { offsetInCU: 0x2A4AF, offset: 0x475CFA, size: 0x8, addend: 0x0, symName: __ZTv0_n24_NSt3__114basic_ifstreamIcNS_11char_traitsIcEEED0Ev, symObjAddr: 0x3CA6, symBinAddr: 0x69AF6, symSize: 0x6A }
  - { offsetInCU: 0x2A54E, offset: 0x475D99, size: 0x8, addend: 0x0, symName: __ZNSt3__113basic_filebufIcNS_11char_traitsIcEEED1Ev, symObjAddr: 0x3D10, symBinAddr: 0x69B60, symSize: 0xA }
  - { offsetInCU: 0x2A57B, offset: 0x475DC6, size: 0x8, addend: 0x0, symName: __ZNSt3__113basic_filebufIcNS_11char_traitsIcEEE5closeEv, symObjAddr: 0x3D8A, symBinAddr: 0x69B6A, symSize: 0x76 }
  - { offsetInCU: 0x2A8AA, offset: 0x4760F5, size: 0x8, addend: 0x0, symName: __ZNSt3__113basic_filebufIcNS_11char_traitsIcEEE9pbackfailEi, symObjAddr: 0x47B0, symBinAddr: 0x69BE0, symSize: 0x4A }
  - { offsetInCU: 0x2A998, offset: 0x4761E3, size: 0x8, addend: 0x0, symName: __ZNSt3__113basic_filebufIcNS_11char_traitsIcEEE12__write_modeEv, symObjAddr: 0x49D8, symBinAddr: 0x69C38, symSize: 0x7B }
  - { offsetInCU: 0x2AFC7, offset: 0x476812, size: 0x8, addend: 0x0, symName: __ZNSt3__118codecvt_utf8_utf16IDsLm1114111ELNS_12codecvt_modeE0EED1B8ue170006Ev, symObjAddr: 0x5378, symBinAddr: 0x69D38, symSize: 0xA }
  - { offsetInCU: 0x2B03B, offset: 0x476886, size: 0x8, addend: 0x0, symName: __ZNSt3__118codecvt_utf8_utf16IDsLm1114111ELNS_12codecvt_modeE0EED0B8ue170006Ev, symObjAddr: 0x5382, symBinAddr: 0x69D42, symSize: 0x1C }
  - { offsetInCU: 0x2B25D, offset: 0x476AA8, size: 0x8, addend: 0x0, symName: __ZNSt3__112basic_stringIDsNS_11char_traitsIDsEENS_9allocatorIDsEEEC2B8ue170006EmDs, symObjAddr: 0x584E, symBinAddr: 0x6A20E, symSize: 0x86 }
  - { offsetInCU: 0x2B467, offset: 0x476CB2, size: 0x8, addend: 0x0, symName: __ZNKSt3__112basic_stringIDsNS_11char_traitsIDsEENS_9allocatorIDsEEE20__throw_length_errorB8ue170006Ev, symObjAddr: 0x58D4, symBinAddr: 0x6A294, symSize: 0x10 }
  - { offsetInCU: 0x2B471, offset: 0x476CBC, size: 0x8, addend: 0x0, symName: __ZNSt3__112basic_stringIDsNS_11char_traitsIDsEENS_9allocatorIDsEEE6resizeEmDs, symObjAddr: 0x590A, symBinAddr: 0x6A2CA, symSize: 0x46 }
  - { offsetInCU: 0x2B655, offset: 0x476EA0, size: 0x8, addend: 0x0, symName: __ZNSt3__112basic_stringIDsNS_11char_traitsIDsEENS_9allocatorIDsEEE6appendIPKDsLi0EEERS5_T_SA_, symObjAddr: 0x56A2, symBinAddr: 0x6A062, symSize: 0x160 }
  - { offsetInCU: 0x2BD8D, offset: 0x4775D8, size: 0x8, addend: 0x0, symName: __ZNSt3__112basic_stringIDsNS_11char_traitsIDsEENS_9allocatorIDsEEE25__init_copy_ctor_externalEPKDsm, symObjAddr: 0x5DC8, symBinAddr: 0x6A788, symSize: 0x7E }
  - { offsetInCU: 0x2C0C2, offset: 0x47790D, size: 0x8, addend: 0x0, symName: __ZNSt3__16vectorItNS_9allocatorItEEE16__init_with_sizeB8ue170006IPKtS6_EEvT_T0_m, symObjAddr: 0x5E46, symBinAddr: 0x6A806, symSize: 0x64 }
  - { offsetInCU: 0x2C38F, offset: 0x477BDA, size: 0x8, addend: 0x0, symName: __ZNSt3__112basic_stringIDsNS_11char_traitsIDsEENS_9allocatorIDsEEE16__init_with_sizeB8ue170006IPKDsS8_EEvT_T0_m, symObjAddr: 0x5BCC, symBinAddr: 0x6A58C, symSize: 0x84 }
  - { offsetInCU: 0x2C555, offset: 0x477DA0, size: 0x8, addend: 0x0, symName: __ZNSt3__112basic_stringIDsNS_11char_traitsIDsEENS_9allocatorIDsEEE9__grow_byEmmmmmm, symObjAddr: 0x5A14, symBinAddr: 0x6A3D4, symSize: 0x10A }
  - { offsetInCU: 0x2CB71, offset: 0x4783BC, size: 0x8, addend: 0x0, symName: __ZNSt3__112basic_stringIDsNS_11char_traitsIDsEENS_9allocatorIDsEEE6appendEPKDsm, symObjAddr: 0x5B1E, symBinAddr: 0x6A4DE, symSize: 0xAE }
  - { offsetInCU: 0x2CB7B, offset: 0x4783C6, size: 0x8, addend: 0x0, symName: __ZNSt3__112basic_stringIDsNS_11char_traitsIDsEENS_9allocatorIDsEEE6appendEPKDsm, symObjAddr: 0x5B1E, symBinAddr: 0x6A4DE, symSize: 0xAE }
  - { offsetInCU: 0x2CF62, offset: 0x4787AD, size: 0x8, addend: 0x0, symName: __ZNSt11range_errorC1B8ue170006EPKc, symObjAddr: 0x5DA4, symBinAddr: 0x6A764, symSize: 0x24 }
  - { offsetInCU: 0x2D0B1, offset: 0x4788FC, size: 0x8, addend: 0x0, symName: __ZNKSt3__112basic_stringIDsNS_11char_traitsIDsEENS_9allocatorIDsEEE20__throw_length_errorB8ue170006Ev, symObjAddr: 0x58D4, symBinAddr: 0x6A294, symSize: 0x10 }
  - { offsetInCU: 0x2D0DB, offset: 0x478926, size: 0x8, addend: 0x0, symName: __ZNSt3__119__allocate_at_leastB8ue170006INS_9allocatorIDsEEEENS_19__allocation_resultINS_16allocator_traitsIT_E7pointerEEERS5_m, symObjAddr: 0x58E4, symBinAddr: 0x6A2A4, symSize: 0x26 }
  - { offsetInCU: 0x2D156, offset: 0x4789A1, size: 0x8, addend: 0x0, symName: __ZNSt3__112basic_stringIDsNS_11char_traitsIDsEENS_9allocatorIDsEEE6appendEmDs, symObjAddr: 0x5950, symBinAddr: 0x6A310, symSize: 0xC4 }
  - { offsetInCU: 0x2D525, offset: 0x478D70, size: 0x8, addend: 0x0, symName: __ZNSt3__112basic_stringIDsNS_11char_traitsIDsEENS_9allocatorIDsEEE21__grow_by_and_replaceEmmmmmmPKDs, symObjAddr: 0x5C50, symBinAddr: 0x6A610, symSize: 0x154 }
  - { offsetInCU: 0x2DDA1, offset: 0x4795EC, size: 0x8, addend: 0x0, symName: __ZNSt11range_errorC1B8ue170006EPKc, symObjAddr: 0x5DA4, symBinAddr: 0x6A764, symSize: 0x24 }
  - { offsetInCU: 0x2E06B, offset: 0x4798B6, size: 0x8, addend: 0x0, symName: __ZNSt3__16vectorItNS_9allocatorItEEE11__vallocateB8ue170006Em, symObjAddr: 0x5EAA, symBinAddr: 0x6A86A, symSize: 0x36 }
  - { offsetInCU: 0x2E0FF, offset: 0x47994A, size: 0x8, addend: 0x0, symName: __ZNKSt3__16vectorItNS_9allocatorItEEE20__throw_length_errorB8ue170006Ev, symObjAddr: 0x5EE0, symBinAddr: 0x6A8A0, symSize: 0x10 }
  - { offsetInCU: 0x2E129, offset: 0x479974, size: 0x8, addend: 0x0, symName: __ZNSt3__119__allocate_at_leastB8ue170006INS_9allocatorItEEEENS_19__allocation_resultINS_16allocator_traitsIT_E7pointerEEERS5_m, symObjAddr: 0x5EF0, symBinAddr: 0x6A8B0, symSize: 0x26 }
  - { offsetInCU: 0x2E6AA, offset: 0x479EF5, size: 0x8, addend: 0x0, symName: __ZNSt3__112basic_stringIcNS_11char_traitsIcEENS_9allocatorIcEEE16__init_with_sizeB8ue170006IPcS7_EEvT_T0_m, symObjAddr: 0x6678, symBinAddr: 0x6A8D8, symSize: 0x7C }
  - { offsetInCU: 0x2E8EE, offset: 0x47A139, size: 0x8, addend: 0x0, symName: __GLOBAL__sub_I_Helpers.mm, symObjAddr: 0x6CA0, symBinAddr: 0x6A954, symSize: 0x28 }
  - { offsetInCU: 0x128C9, offset: 0x48CD8F, size: 0x8, addend: 0x0, symName: __ZN3tns7Interop20RegisterInteropTypesEN2v85LocalINS1_7ContextEEE, symObjAddr: 0x0, symBinAddr: 0x6A980, symSize: 0xE2E }
  - { offsetInCU: 0x1652A, offset: 0x4909F0, size: 0x8, addend: 0x0, symName: __ZN3tns7Interop30RegisterBufferFromDataFunctionEN2v85LocalINS1_7ContextEEENS2_INS1_6ObjectEEE, symObjAddr: 0xE2E, symBinAddr: 0x6B7AE, symSize: 0x14C }
  - { offsetInCU: 0x16B3F, offset: 0x491005, size: 0x8, addend: 0x0, symName: __ZN3tns7Interop25RegisterStringFromCStringEN2v85LocalINS1_7ContextEEENS2_INS1_6ObjectEEE, symObjAddr: 0xF7A, symBinAddr: 0x6B8FA, symSize: 0x14C }
  - { offsetInCU: 0x17154, offset: 0x49161A, size: 0x8, addend: 0x0, symName: __ZN3tns7Interop24RegisterHandleOfFunctionEN2v85LocalINS1_7ContextEEENS2_INS1_6ObjectEEE, symObjAddr: 0x10C6, symBinAddr: 0x6BA46, symSize: 0x14C }
  - { offsetInCU: 0x17769, offset: 0x491C2F, size: 0x8, addend: 0x0, symName: __ZN3tns7Interop21RegisterAllocFunctionEN2v85LocalINS1_7ContextEEENS2_INS1_6ObjectEEE, symObjAddr: 0x1212, symBinAddr: 0x6BB92, symSize: 0x14C }
  - { offsetInCU: 0x17D7E, offset: 0x492244, size: 0x8, addend: 0x0, symName: __ZN3tns7Interop20RegisterFreeFunctionEN2v85LocalINS1_7ContextEEENS2_INS1_6ObjectEEE, symObjAddr: 0x135E, symBinAddr: 0x6BCDE, symSize: 0x14C }
  - { offsetInCU: 0x1839F, offset: 0x492865, size: 0x8, addend: 0x0, symName: __ZN3tns7Interop21RegisterAdoptFunctionEN2v85LocalINS1_7ContextEEENS2_INS1_6ObjectEEE, symObjAddr: 0x14AA, symBinAddr: 0x6BE2A, symSize: 0x14C }
  - { offsetInCU: 0x189C4, offset: 0x492E8A, size: 0x8, addend: 0x0, symName: __ZN3tns7Interop22RegisterSizeOfFunctionEN2v85LocalINS1_7ContextEEENS2_INS1_6ObjectEEE, symObjAddr: 0x15F6, symBinAddr: 0x6BF76, symSize: 0x14C }
  - { offsetInCU: 0x1922E, offset: 0x4936F4, size: 0x8, addend: 0x0, symName: __ZN3tns7Interop19RegisterInteropTypeEN2v85LocalINS1_7ContextEEENS2_INS1_6ObjectEEENSt3__112basic_stringIcNS7_11char_traitsIcEENS7_9allocatorIcEEEEPNS_20PrimitiveDataWrapperEb, symObjAddr: 0x1742, symBinAddr: 0x6C0C2, symSize: 0x3A2 }
  - { offsetInCU: 0x1A51C, offset: 0x4949E2, size: 0x8, addend: 0x0, symName: __ZNK10robin_hood6detail5TableILb1ELm80EN3tns22BinaryTypeEncodingTypeENSt3__110unique_ptrIN2v810PersistentINS6_6ObjectENS6_27NonCopyablePersistentTraitsIS8_EEEENS4_14default_deleteISB_EEEENS_4hashIS3_vEENS4_8equal_toIS3_EEE7findIdxIS3_EEmRKT_, symObjAddr: 0x37D0, symBinAddr: 0x6DAF0, symSize: 0xC6 }
  - { offsetInCU: 0x1A6AC, offset: 0x494B72, size: 0x8, addend: 0x0, symName: __ZN3tns6Caches24registerCacheBoundObjectINS_20PrimitiveDataWrapperEEEvPT_, symObjAddr: 0x1D00, symBinAddr: 0x6C680, symSize: 0x130 }
  - { offsetInCU: 0x1ABB1, offset: 0x495077, size: 0x8, addend: 0x0, symName: __ZN10robin_hood6detail5TableILb1ELm80EN3tns22BinaryTypeEncodingTypeENSt3__110unique_ptrIN2v810PersistentINS6_6ObjectENS6_27NonCopyablePersistentTraitsIS8_EEEENS4_14default_deleteISB_EEEENS_4hashIS3_vEENS4_8equal_toIS3_EEE7emplaceIJRS3_SE_EEENS4_4pairINSJ_4IterILb0EEEbEEDpOT_, symObjAddr: 0x1BF0, symBinAddr: 0x6C570, symSize: 0x110 }
  - { offsetInCU: 0x1B25D, offset: 0x495723, size: 0x8, addend: 0x0, symName: __ZN3tns7Interop14CreateEncodingENS_22BinaryTypeEncodingTypeE, symObjAddr: 0x1AE4, symBinAddr: 0x6C464, symSize: 0x20 }
  - { offsetInCU: 0x1B34A, offset: 0x495810, size: 0x8, addend: 0x0, symName: __ZN3tns7Interop14GetInteropTypeEN2v85LocalINS1_7ContextEEENS_22BinaryTypeEncodingTypeE, symObjAddr: 0x1B04, symBinAddr: 0x6C484, symSize: 0xEC }
  - { offsetInCU: 0x1BB62, offset: 0x496028, size: 0x8, addend: 0x0, symName: __ZN10robin_hood6detail5TableILb1ELm80EN3tns22BinaryTypeEncodingTypeENSt3__110unique_ptrIN2v810PersistentINS6_6ObjectENS6_27NonCopyablePersistentTraitsIS8_EEEENS4_14default_deleteISB_EEEENS_4hashIS3_vEENS4_8equal_toIS3_EEE25insertKeyPrepareEmptySpotIRKS3_EENS4_4pairImNSJ_14InsertionStateEEEOT_, symObjAddr: 0x3896, symBinAddr: 0x6DBB6, symSize: 0x158 }
  - { offsetInCU: 0x1BD12, offset: 0x4961D8, size: 0x8, addend: 0x0, symName: __ZNK10robin_hood6detail5TableILb1ELm80EN3tns22BinaryTypeEncodingTypeENSt3__110unique_ptrIN2v810PersistentINS6_6ObjectENS6_27NonCopyablePersistentTraitsIS8_EEEENS4_14default_deleteISB_EEEENS_4hashIS3_vEENS4_8equal_toIS3_EEE18throwOverflowErrorEv, symObjAddr: 0x39EE, symBinAddr: 0x6DD0E, symSize: 0x4C }
  - { offsetInCU: 0x1C73D, offset: 0x496C03, size: 0x8, addend: 0x0, symName: __ZN3tns7Interop8HandleOfEN2v85LocalINS1_7ContextEEENS2_INS1_5ValueEEE, symObjAddr: 0x1E30, symBinAddr: 0x6C7B0, symSize: 0x318 }
  - { offsetInCU: 0x1CE2B, offset: 0x4972F1, size: 0x8, addend: 0x0, symName: __ZNK3tns4Meta14topLevelModuleEv, symObjAddr: 0x2148, symBinAddr: 0x6CAC8, symSize: 0x66 }
  - { offsetInCU: 0x1D2D0, offset: 0x497796, size: 0x8, addend: 0x0, symName: __ZNSt3__110shared_ptrIN2v812BackingStoreEED2B8ue170006Ev, symObjAddr: 0x42A0, symBinAddr: 0x6E370, symSize: 0x3F }
  - { offsetInCU: 0x1D593, offset: 0x497A59, size: 0x8, addend: 0x0, symName: __ZN3tns20PrimitiveDataWrapperD1Ev, symObjAddr: 0x2288, symBinAddr: 0x6CB38, symSize: 0x24 }
  - { offsetInCU: 0x1D5EE, offset: 0x497AB4, size: 0x8, addend: 0x0, symName: __ZN3tns20PrimitiveDataWrapperD0Ev, symObjAddr: 0x22AC, symBinAddr: 0x6CB5C, symSize: 0x34 }
  - { offsetInCU: 0x1D664, offset: 0x497B2A, size: 0x8, addend: 0x0, symName: __ZN3tns20PrimitiveDataWrapper4TypeEv, symObjAddr: 0x22E0, symBinAddr: 0x6CB90, symSize: 0x10 }
  - { offsetInCU: 0x1DE74, offset: 0x49833A, size: 0x8, addend: 0x0, symName: '__ZZN3tns7Interop30RegisterBufferFromDataFunctionEN2v85LocalINS1_7ContextEEENS2_INS1_6ObjectEEEEN3$_08__invokeERKNS1_20FunctionCallbackInfoINS1_5ValueEEE', symObjAddr: 0x2434, symBinAddr: 0x6CBA4, symSize: 0x2D8 }
  - { offsetInCU: 0x1EB69, offset: 0x49902F, size: 0x8, addend: 0x0, symName: '__ZZN3tns7Interop30RegisterBufferFromDataFunctionEN2v85LocalINS1_7ContextEEENS2_INS1_6ObjectEEEEN3$_08__invokeERKNS1_20FunctionCallbackInfoINS1_5ValueEEE.cold.1', symObjAddr: 0x42DF, symBinAddr: 0xC72BCF, symSize: 0x2F }
  - { offsetInCU: 0x1EC2A, offset: 0x4990F0, size: 0x8, addend: 0x0, symName: '__ZZZN3tns7Interop30RegisterBufferFromDataFunctionEN2v85LocalINS1_7ContextEEENS2_INS1_6ObjectEEEENK3$_0clERKNS1_20FunctionCallbackInfoINS1_5ValueEEEENUlPvmSD_E_8__invokeESD_mSD_', symObjAddr: 0x270C, symBinAddr: 0x6CE7C, symSize: 0x6 }
  - { offsetInCU: 0x1EC70, offset: 0x499136, size: 0x8, addend: 0x0, symName: __ZNSt3__120__shared_ptr_pointerIPN2v812BackingStoreENS_14default_deleteIS2_EENS_9allocatorIS2_EEED1Ev, symObjAddr: 0x2712, symBinAddr: 0x6CE82, symSize: 0xA }
  - { offsetInCU: 0x1ECC8, offset: 0x49918E, size: 0x8, addend: 0x0, symName: __ZNSt3__120__shared_ptr_pointerIPN2v812BackingStoreENS_14default_deleteIS2_EENS_9allocatorIS2_EEED0Ev, symObjAddr: 0x271C, symBinAddr: 0x6CE8C, symSize: 0x1C }
  - { offsetInCU: 0x1ED3A, offset: 0x499200, size: 0x8, addend: 0x0, symName: __ZNSt3__120__shared_ptr_pointerIPN2v812BackingStoreENS_14default_deleteIS2_EENS_9allocatorIS2_EEE16__on_zero_sharedEv, symObjAddr: 0x2738, symBinAddr: 0x6CEA8, symSize: 0x2C }
  - { offsetInCU: 0x1EE16, offset: 0x4992DC, size: 0x8, addend: 0x0, symName: __ZNSt3__120__shared_ptr_pointerIPN2v812BackingStoreENS_14default_deleteIS2_EENS_9allocatorIS2_EEE21__on_zero_shared_weakEv, symObjAddr: 0x2764, symBinAddr: 0x6CED4, symSize: 0xA }
  - { offsetInCU: 0x1F02E, offset: 0x4994F4, size: 0x8, addend: 0x0, symName: '__ZZN3tns7Interop25RegisterStringFromCStringEN2v85LocalINS1_7ContextEEENS2_INS1_6ObjectEEEEN3$_18__invokeERKNS1_20FunctionCallbackInfoINS1_5ValueEEE', symObjAddr: 0x276E, symBinAddr: 0x6CEDE, symSize: 0x370 }
  - { offsetInCU: 0x1FFE2, offset: 0x49A4A8, size: 0x8, addend: 0x0, symName: '__ZZN3tns7Interop24RegisterHandleOfFunctionEN2v85LocalINS1_7ContextEEENS2_INS1_6ObjectEEEEN3$_28__invokeERKNS1_20FunctionCallbackInfoINS1_5ValueEEE', symObjAddr: 0x2ADE, symBinAddr: 0x6D24E, symSize: 0x162 }
  - { offsetInCU: 0x2065F, offset: 0x49AB25, size: 0x8, addend: 0x0, symName: '__ZZN3tns7Interop21RegisterAllocFunctionEN2v85LocalINS1_7ContextEEENS2_INS1_6ObjectEEEEN3$_38__invokeERKNS1_20FunctionCallbackInfoINS1_5ValueEEE', symObjAddr: 0x2C40, symBinAddr: 0x6D3B0, symSize: 0x1AA }
  - { offsetInCU: 0x20F8C, offset: 0x49B452, size: 0x8, addend: 0x0, symName: '__ZZN3tns7Interop20RegisterFreeFunctionEN2v85LocalINS1_7ContextEEENS2_INS1_6ObjectEEEEN3$_48__invokeERKNS1_20FunctionCallbackInfoINS1_5ValueEEE', symObjAddr: 0x2DEA, symBinAddr: 0x6D55A, symSize: 0x100 }
  - { offsetInCU: 0x214CE, offset: 0x49B994, size: 0x8, addend: 0x0, symName: '__ZZN3tns7Interop21RegisterAdoptFunctionEN2v85LocalINS1_7ContextEEENS2_INS1_6ObjectEEEEN3$_58__invokeERKNS1_20FunctionCallbackInfoINS1_5ValueEEE', symObjAddr: 0x2EEA, symBinAddr: 0x6D65A, symSize: 0xF6 }
  - { offsetInCU: 0x21AE4, offset: 0x49BFAA, size: 0x8, addend: 0x0, symName: '__ZZN3tns7Interop22RegisterSizeOfFunctionEN2v85LocalINS1_7ContextEEENS2_INS1_6ObjectEEEEN3$_68__invokeERKNS1_20FunctionCallbackInfoINS1_5ValueEEE', symObjAddr: 0x2FE0, symBinAddr: 0x6D750, symSize: 0x300 }
  - { offsetInCU: 0x2233B, offset: 0x49C801, size: 0x8, addend: 0x0, symName: __ZN3tns17StructTypeWrapper10StructInfoEv, symObjAddr: 0x32E0, symBinAddr: 0x6DA50, symSize: 0x98 }
  - { offsetInCU: 0x236D2, offset: 0x49DB98, size: 0x8, addend: 0x0, symName: __ZN10robin_hood6detail5TableILb1ELm80EN3tns22BinaryTypeEncodingTypeENSt3__110unique_ptrIN2v810PersistentINS6_6ObjectENS6_27NonCopyablePersistentTraitsIS8_EEEENS4_14default_deleteISB_EEEENS_4hashIS3_vEENS4_8equal_toIS3_EEE13increase_sizeEv, symObjAddr: 0x3A3A, symBinAddr: 0x6DD5A, symSize: 0x108 }
  - { offsetInCU: 0x2378D, offset: 0x49DC53, size: 0x8, addend: 0x0, symName: __ZN10robin_hood6detail5TableILb1ELm80EN3tns22BinaryTypeEncodingTypeENSt3__110unique_ptrIN2v810PersistentINS6_6ObjectENS6_27NonCopyablePersistentTraitsIS8_EEEENS4_14default_deleteISB_EEEENS_4hashIS3_vEENS4_8equal_toIS3_EEE7shiftUpEmm, symObjAddr: 0x3B42, symBinAddr: 0x6DE62, symSize: 0xE2 }
  - { offsetInCU: 0x239E2, offset: 0x49DEA8, size: 0x8, addend: 0x0, symName: __ZN10robin_hood6detail5TableILb1ELm80EN3tns22BinaryTypeEncodingTypeENSt3__110unique_ptrIN2v810PersistentINS6_6ObjectENS6_27NonCopyablePersistentTraitsIS8_EEEENS4_14default_deleteISB_EEEENS_4hashIS3_vEENS4_8equal_toIS3_EEE17try_increase_infoEv, symObjAddr: 0x3D0C, symBinAddr: 0x6E02C, symSize: 0xE8 }
  - { offsetInCU: 0x23AD1, offset: 0x49DF97, size: 0x8, addend: 0x0, symName: __ZN10robin_hood6detail5TableILb1ELm80EN3tns22BinaryTypeEncodingTypeENSt3__110unique_ptrIN2v810PersistentINS6_6ObjectENS6_27NonCopyablePersistentTraitsIS8_EEEENS4_14default_deleteISB_EEEENS_4hashIS3_vEENS4_8equal_toIS3_EEE8initDataEm, symObjAddr: 0x3C24, symBinAddr: 0x6DF44, symSize: 0xE8 }
  - { offsetInCU: 0x23BB1, offset: 0x49E077, size: 0x8, addend: 0x0, symName: __ZN10robin_hood6detail5TableILb1ELm80EN3tns22BinaryTypeEncodingTypeENSt3__110unique_ptrIN2v810PersistentINS6_6ObjectENS6_27NonCopyablePersistentTraitsIS8_EEEENS4_14default_deleteISB_EEEENS_4hashIS3_vEENS4_8equal_toIS3_EEE17try_increase_infoEv, symObjAddr: 0x3D0C, symBinAddr: 0x6E02C, symSize: 0xE8 }
  - { offsetInCU: 0x23BBB, offset: 0x49E081, size: 0x8, addend: 0x0, symName: __ZN10robin_hood6detail5TableILb1ELm80EN3tns22BinaryTypeEncodingTypeENSt3__110unique_ptrIN2v810PersistentINS6_6ObjectENS6_27NonCopyablePersistentTraitsIS8_EEEENS4_14default_deleteISB_EEEENS_4hashIS3_vEENS4_8equal_toIS3_EEE16rehashPowerOfTwoEmb, symObjAddr: 0x3DF4, symBinAddr: 0x6E114, symSize: 0x108 }
  - { offsetInCU: 0x23E98, offset: 0x49E35E, size: 0x8, addend: 0x0, symName: __ZN10robin_hood6detail5TableILb1ELm80EN3tns22BinaryTypeEncodingTypeENSt3__110unique_ptrIN2v810PersistentINS6_6ObjectENS6_27NonCopyablePersistentTraitsIS8_EEEENS4_14default_deleteISB_EEEENS_4hashIS3_vEENS4_8equal_toIS3_EEE11insert_moveEONSJ_8DataNodeISJ_Lb1EEE, symObjAddr: 0x3F2E, symBinAddr: 0x6E21E, symSize: 0x13A }
  - { offsetInCU: 0x2469C, offset: 0x49EB62, size: 0x8, addend: 0x0, symName: __ZZN3tns6Caches11unique_voidINS_20PrimitiveDataWrapperEEENSt3__110unique_ptrIvPFvPKvEEEPT_ENUlS6_E_8__invokeES6_, symObjAddr: 0x428E, symBinAddr: 0x6E35E, symSize: 0x12 }
  - { offsetInCU: 0x26, offset: 0x49EBF8, size: 0x8, addend: 0x0, symName: _nativescript_module_register, symObjAddr: 0x0, symBinAddr: 0x6E3AF, symSize: 0x4F }
  - { offsetInCU: 0x45, offset: 0x49EC17, size: 0x8, addend: 0x0, symName: __ZN3tns19node_is_initializedE, symObjAddr: 0x64C6D, symBinAddr: 0x16C3A8C, symSize: 0x0 }
  - { offsetInCU: 0x5F, offset: 0x49EC31, size: 0x8, addend: 0x0, symName: __ZN3tnsL16modlist_internalE, symObjAddr: 0x64C70, symBinAddr: 0x16ACEC8, symSize: 0x0 }
  - { offsetInCU: 0x10D, offset: 0x49ECDF, size: 0x8, addend: 0x0, symName: __ZN3tnsL14modlist_linkedE, symObjAddr: 0x64C78, symBinAddr: 0x16ACED0, symSize: 0x0 }
  - { offsetInCU: 0x126, offset: 0x49ECF8, size: 0x8, addend: 0x0, symName: __ZN3tnsL23thread_local_modpendingE, symObjAddr: 0x8C, symBinAddr: 0xE44D70, symSize: 0x0 }
  - { offsetInCU: 0x139, offset: 0x49ED0B, size: 0x8, addend: 0x0, symName: __ZN3tns7binding23RegisterBuiltinBindingsEv, symObjAddr: 0x4F, symBinAddr: 0x6E3FE, symSize: 0x6 }
  - { offsetInCU: 0x153, offset: 0x49ED25, size: 0x8, addend: 0x0, symName: __ZN3tns7binding30CreateInternalBindingTemplatesEPN2v87IsolateENS1_5LocalINS1_16FunctionTemplateEEE, symObjAddr: 0x55, symBinAddr: 0x6E404, symSize: 0x37 }
  - { offsetInCU: 0x30A2, offset: 0x4A1C74, size: 0x8, addend: 0x0, symName: _nativescript_module_register, symObjAddr: 0x0, symBinAddr: 0x6E3AF, symSize: 0x4F }
  - { offsetInCU: 0x27, offset: 0x4A1CDC, size: 0x8, addend: 0x0, symName: __ZN3tns14SymbolIterator3SetEN2v85LocalINS1_7ContextEEENS2_INS1_5ValueEEE, symObjAddr: 0x0, symBinAddr: 0x6E43C, symSize: 0xB0 }
  - { offsetInCU: 0x60D3, offset: 0x4A7D88, size: 0x8, addend: 0x0, symName: __ZN3tns14SymbolIterator3SetEN2v85LocalINS1_7ContextEEENS2_INS1_5ValueEEE, symObjAddr: 0x0, symBinAddr: 0x6E43C, symSize: 0xB0 }
  - { offsetInCU: 0x6547, offset: 0x4A81FC, size: 0x8, addend: 0x0, symName: __ZN3tns14SymbolIterator20CreateIteratorObjectEN2v85LocalINS1_7ContextEEENS2_INS1_5ValueEEE, symObjAddr: 0xB0, symBinAddr: 0x6E4EC, symSize: 0x1C2 }
  - { offsetInCU: 0x738B, offset: 0x4A9040, size: 0x8, addend: 0x0, symName: __ZN3tns14SymbolIterator12NextCallbackERKN2v820FunctionCallbackInfoINS1_5ValueEEE, symObjAddr: 0x272, symBinAddr: 0x6E6AE, symSize: 0x597 }
  - { offsetInCU: 0x8C9E, offset: 0x4AA953, size: 0x8, addend: 0x0, symName: '__ZZN3tns14SymbolIterator3SetEN2v85LocalINS1_7ContextEEENS2_INS1_5ValueEEEEN3$_08__invokeERKNS1_20FunctionCallbackInfoIS5_EE', symObjAddr: 0x84C, symBinAddr: 0x6EC46, symSize: 0x40 }
  - { offsetInCU: 0x40, offset: 0x4AAEC1, size: 0x8, addend: 0x0, symName: __ZN3tns7Runtime13nextIsolateIdE, symObjAddr: 0x2D4EC8, symBinAddr: 0x16C3A90, symSize: 0x0 }
  - { offsetInCU: 0xBE9, offset: 0x4ABA6A, size: 0x8, addend: 0x0, symName: __ZN3tns10allocator_E, symObjAddr: 0x2D4ED0, symBinAddr: 0x16C3A98, symSize: 0x0 }
  - { offsetInCU: 0xC03, offset: 0x4ABA84, size: 0x8, addend: 0x0, symName: __ZN3tns14AppPackageJsonE, symObjAddr: 0x2D4ED8, symBinAddr: 0x16C3AA0, symSize: 0x0 }
  - { offsetInCU: 0xC17, offset: 0x4ABA98, size: 0x8, addend: 0x0, symName: __ZN3tns7Runtime9platform_E, symObjAddr: 0x2D4F00, symBinAddr: 0x16C3AC8, symSize: 0x0 }
  - { offsetInCU: 0xC2A, offset: 0x4ABAAB, size: 0x8, addend: 0x0, symName: __ZN3tns7Runtime9isolates_E, symObjAddr: 0x2D4EE0, symBinAddr: 0x16C3AA8, symSize: 0x0 }
  - { offsetInCU: 0xC3D, offset: 0x4ABABE, size: 0x8, addend: 0x0, symName: __ZN3tns7Runtime14v8Initialized_E, symObjAddr: 0x2D4EF8, symBinAddr: 0x16C3AC0, symSize: 0x0 }
  - { offsetInCU: 0xC50, offset: 0x4ABAD1, size: 0x8, addend: 0x0, symName: __ZN3tns7Runtime15currentRuntime_E, symObjAddr: 0x3BB8, symBinAddr: 0xE44D88, symSize: 0x0 }
  - { offsetInCU: 0xC64, offset: 0x4ABAE5, size: 0x8, addend: 0x0, symName: __ZN3tns7Runtime14isolatesMutex_E, symObjAddr: 0x2D4F10, symBinAddr: 0x16C3AD8, symSize: 0x0 }
  - { offsetInCU: 0x1124, offset: 0x4ABFA5, size: 0x8, addend: 0x0, symName: __ZN3tns26DisposeIsolateWhenPossibleEPN2v87IsolateE, symObjAddr: 0x0, symBinAddr: 0x6EC90, symSize: 0x89 }
  - { offsetInCU: 0x1177E, offset: 0x4BC5FF, size: 0x8, addend: 0x0, symName: __ZNSt3__16removeB8ue170006INS_11__wrap_iterIPPN2v87IsolateEEES4_EET_S7_S7_RKT0_, symObjAddr: 0x46B, symBinAddr: 0x6F0FB, symSize: 0x45 }
  - { offsetInCU: 0x126F5, offset: 0x4BD576, size: 0x8, addend: 0x0, symName: __ZNSt3__119__allocate_at_leastB8ue170006INS_9allocatorIPN2v87IsolateEEEEENS_19__allocation_resultINS_16allocator_traitsIT_E7pointerEEERS8_m, symObjAddr: 0x2670, symBinAddr: 0x70F10, symSize: 0x2E }
  - { offsetInCU: 0x12791, offset: 0x4BD612, size: 0x8, addend: 0x0, symName: __ZNSt3__110__function6__funcIPFN2v85LocalINS2_16FunctionTemplateEEENS3_INS2_7ContextEEEPKN3tns13BaseClassMetaENS8_21KnownUnknownClassPairERKNS_6vectorINS_12basic_stringIcNS_11char_traitsIcEENS_9allocatorIcEEEENSH_ISJ_EEEEENSH_ISP_EESO_ED1Ev, symObjAddr: 0x269E, symBinAddr: 0x70F3E, symSize: 0x6 }
  - { offsetInCU: 0x12D0E, offset: 0x4BDB8F, size: 0x8, addend: 0x0, symName: __ZNSt3__115allocate_sharedB8ue170006IN3tns6CachesENS_9allocatorIS2_EEJRPN2v87IsolateERKiEvEENS_10shared_ptrIT_EERKT0_DpOT1_, symObjAddr: 0x1DA4, symBinAddr: 0x70904, symSize: 0x5C }
  - { offsetInCU: 0x1CECA, offset: 0x4C7D4B, size: 0x8, addend: 0x0, symName: __ZN3tns7RuntimeD1Ev, symObjAddr: 0x5F0, symBinAddr: 0x6F280, symSize: 0xA }
  - { offsetInCU: 0x1F7FD, offset: 0x4CA67E, size: 0x8, addend: 0x0, symName: ____ZN3tns26DisposeIsolateWhenPossibleEPN2v87IsolateE_block_invoke, symObjAddr: 0x89, symBinAddr: 0x6ED19, symSize: 0xF }
  - { offsetInCU: 0x1F844, offset: 0x4CA6C5, size: 0x8, addend: 0x0, symName: __ZN3tns7Runtime10InitializeEv, symObjAddr: 0x98, symBinAddr: 0x6ED28, symSize: 0x16 }
  - { offsetInCU: 0x1F992, offset: 0x4CA813, size: 0x8, addend: 0x0, symName: __ZN3tns7RuntimeC2Ev, symObjAddr: 0xAE, symBinAddr: 0x6ED3E, symSize: 0x3E }
  - { offsetInCU: 0x1FA9C, offset: 0x4CA91D, size: 0x8, addend: 0x0, symName: __ZNSt3__110shared_ptrIN3tns13ConcurrentMapIiNS0_INS1_6Caches11WorkerStateEEEEEEaSB8ue170006ERKS7_, symObjAddr: 0xEC, symBinAddr: 0x6ED7C, symSize: 0x56 }
  - { offsetInCU: 0x1FD88, offset: 0x4CAC09, size: 0x8, addend: 0x0, symName: __ZN3tns7RuntimeC1Ev, symObjAddr: 0x142, symBinAddr: 0x6EDD2, symSize: 0x3E }
  - { offsetInCU: 0x20A08, offset: 0x4CB889, size: 0x8, addend: 0x0, symName: __ZN3tns7RuntimeD2Ev, symObjAddr: 0x180, symBinAddr: 0x6EE10, symSize: 0x2E0 }
  - { offsetInCU: 0x21729, offset: 0x4CC5AA, size: 0x8, addend: 0x0, symName: __ZN3tns13ConcurrentMapIiNSt3__110shared_ptrINS_6Caches11WorkerStateEEEE7ForEachERKNS1_8functionIFbRiRS5_EEE, symObjAddr: 0x4B0, symBinAddr: 0x6F140, symSize: 0x140 }
  - { offsetInCU: 0x21B1F, offset: 0x4CC9A0, size: 0x8, addend: 0x0, symName: __ZNK10robin_hood6detail5TableILb1ELm80EiNSt3__110shared_ptrIN3tns6Caches11WorkerStateEEENS_4hashIivEENS2_8equal_toIiEEE7findIdxIiEEmRKT_, symObjAddr: 0x22F4, symBinAddr: 0x70C54, symSize: 0xE0 }
  - { offsetInCU: 0x21C9B, offset: 0x4CCB1C, size: 0x8, addend: 0x0, symName: __ZN10robin_hood6detail5TableILb1ELm80EiNSt3__110shared_ptrIN3tns6Caches11WorkerStateEEENS_4hashIivEENS2_8equal_toIiEEE5eraseERKi, symObjAddr: 0x2414, symBinAddr: 0x70D34, symSize: 0xB0 }
  - { offsetInCU: 0x21DFF, offset: 0x4CCC80, size: 0x8, addend: 0x0, symName: __ZNKSt3__114default_deleteIN3tns14ModuleInternalEEclB8ue170006EPS2_, symObjAddr: 0x1FDC, symBinAddr: 0x70A0C, symSize: 0x5E }
  - { offsetInCU: 0x22121, offset: 0x4CCFA2, size: 0x8, addend: 0x0, symName: __ZN10robin_hood6detail5TableILb1ELm80EiNSt3__110shared_ptrIN3tns6Caches11WorkerStateEEENS_4hashIivEENS2_8equal_toIiEEE5beginEv, symObjAddr: 0x21CE, symBinAddr: 0x70B7E, symSize: 0x48 }
  - { offsetInCU: 0x22255, offset: 0x4CD0D6, size: 0x8, addend: 0x0, symName: __ZN3tns7Runtime10GetRuntimeEPN2v87IsolateE, symObjAddr: 0x5FA, symBinAddr: 0x6F28A, symSize: 0xE }
  - { offsetInCU: 0x22BF6, offset: 0x4CDA77, size: 0x8, addend: 0x0, symName: __ZN3tns7Runtime13CreateIsolateEv, symObjAddr: 0x608, symBinAddr: 0x6F298, symSize: 0x2E6 }
  - { offsetInCU: 0x2394D, offset: 0x4CE7CE, size: 0x8, addend: 0x0, symName: __ZNSt3__110shared_ptrIN2v88PlatformEEaSB8ue170006IS2_NS_14default_deleteIS2_EEvEERS3_ONS_10unique_ptrIT_T0_EE, symObjAddr: 0x8EE, symBinAddr: 0x6F57E, symSize: 0x88 }
  - { offsetInCU: 0x23E1A, offset: 0x4CEC9B, size: 0x8, addend: 0x0, symName: __ZNKSt3__16vectorIPN2v87IsolateENS_9allocatorIS3_EEE20__throw_length_errorB8ue170006Ev, symObjAddr: 0x2660, symBinAddr: 0x70F00, symSize: 0x10 }
  - { offsetInCU: 0x23E43, offset: 0x4CECC4, size: 0x8, addend: 0x0, symName: __ZNSt3__119__allocate_at_leastB8ue170006INS_9allocatorIPN2v87IsolateEEEEENS_19__allocation_resultINS_16allocator_traitsIT_E7pointerEEERS8_m, symObjAddr: 0x2670, symBinAddr: 0x70F10, symSize: 0x2E }
  - { offsetInCU: 0x242BF, offset: 0x4CF140, size: 0x8, addend: 0x0, symName: __ZN3tns7Runtime4InitEPN2v87IsolateEb, symObjAddr: 0x976, symBinAddr: 0x6F606, symSize: 0x3DE }
  - { offsetInCU: 0x24BDD, offset: 0x4CFA5E, size: 0x8, addend: 0x0, symName: __ZNSt3__18functionIFN2v85LocalINS1_16FunctionTemplateEEENS2_INS1_7ContextEEEPKN3tns13BaseClassMetaENS7_21KnownUnknownClassPairERKNS_6vectorINS_12basic_stringIcNS_11char_traitsIcEENS_9allocatorIcEEEENSG_ISI_EEEEEEaSIRSN_vEERSO_OT_, symObjAddr: 0xD54, symBinAddr: 0x6F9E4, symSize: 0x86 }
  - { offsetInCU: 0x24E3E, offset: 0x4CFCBF, size: 0x8, addend: 0x0, symName: __ZNSt3__18functionIFN2v85LocalINS1_8FunctionEEENS2_INS1_7ContextEEEN3tns10StructInfoEEEaSIRS9_vEERSA_OT_, symObjAddr: 0xDDA, symBinAddr: 0x6FA6A, symSize: 0x86 }
  - { offsetInCU: 0x25099, offset: 0x4CFF1A, size: 0x8, addend: 0x0, symName: __ZN3tns7Runtime25DefineNativeScriptVersionEPN2v87IsolateENS1_5LocalINS1_14ObjectTemplateEEE, symObjAddr: 0xE60, symBinAddr: 0x6FAF0, symSize: 0x110 }
  - { offsetInCU: 0x2574F, offset: 0x4D05D0, size: 0x8, addend: 0x0, symName: __ZN3tns7Runtime23DefinePerformanceObjectEPN2v87IsolateENS1_5LocalINS1_14ObjectTemplateEEE, symObjAddr: 0xF70, symBinAddr: 0x6FC00, symSize: 0x15C }
  - { offsetInCU: 0x25BCF, offset: 0x4D0A50, size: 0x8, addend: 0x0, symName: __ZN3tns7Runtime16DefineTimeMethodEPN2v87IsolateENS1_5LocalINS1_14ObjectTemplateEEE, symObjAddr: 0x10CC, symBinAddr: 0x6FD5C, symSize: 0xDE }
  - { offsetInCU: 0x25F76, offset: 0x4D0DF7, size: 0x8, addend: 0x0, symName: __ZN3tns7Runtime26DefineDrainMicrotaskMethodEPN2v87IsolateENS1_5LocalINS1_14ObjectTemplateEEE, symObjAddr: 0x11AA, symBinAddr: 0x6FE3A, symSize: 0xDE }
  - { offsetInCU: 0x2631D, offset: 0x4D119E, size: 0x8, addend: 0x0, symName: __ZN3tns7Runtime18DefineGlobalObjectEN2v85LocalINS1_7ContextEEEb, symObjAddr: 0x1288, symBinAddr: 0x6FF18, symSize: 0x1EC }
  - { offsetInCU: 0x26AE3, offset: 0x4D1964, size: 0x8, addend: 0x0, symName: __ZN3tns7Runtime21DefineCollectFunctionEN2v85LocalINS1_7ContextEEE, symObjAddr: 0x1474, symBinAddr: 0x70104, symSize: 0x1D0 }
  - { offsetInCU: 0x276F7, offset: 0x4D2578, size: 0x8, addend: 0x0, symName: __ZNSt3__110__function12__value_funcIFN2v85LocalINS2_16FunctionTemplateEEENS3_INS2_7ContextEEEPKN3tns13BaseClassMetaENS8_21KnownUnknownClassPairERKNS_6vectorINS_12basic_stringIcNS_11char_traitsIcEENS_9allocatorIcEEEENSH_ISJ_EEEEEE4swapB8ue170006ERSP_, symObjAddr: 0x2722, symBinAddr: 0x70FC2, symSize: 0x114 }
  - { offsetInCU: 0x27BB3, offset: 0x4D2A34, size: 0x8, addend: 0x0, symName: __ZNSt3__110__function12__value_funcIFN2v85LocalINS2_8FunctionEEENS3_INS2_7ContextEEEN3tns10StructInfoEEE4swapB8ue170006ERSB_, symObjAddr: 0x29C8, symBinAddr: 0x711F8, symSize: 0x114 }
  - { offsetInCU: 0x27DBF, offset: 0x4D2C40, size: 0x8, addend: 0x0, symName: __ZN3tns7Runtime13RunMainScriptEv, symObjAddr: 0x1644, symBinAddr: 0x702D4, symSize: 0xD4 }
  - { offsetInCU: 0x281C6, offset: 0x4D3047, size: 0x8, addend: 0x0, symName: __ZN3tns7Runtime10GetIsolateEv, symObjAddr: 0x1718, symBinAddr: 0x703A8, symSize: 0xA }
  - { offsetInCU: 0x2825E, offset: 0x4D30DF, size: 0x8, addend: 0x0, symName: __ZN3tns7Runtime9RunModuleENSt3__112basic_stringIcNS1_11char_traitsIcEENS1_9allocatorIcEEEE, symObjAddr: 0x1722, symBinAddr: 0x703B2, symSize: 0xD0 }
  - { offsetInCU: 0x2887D, offset: 0x4D36FE, size: 0x8, addend: 0x0, symName: __ZN3tns7Runtime9RunScriptENSt3__112basic_stringIcNS1_11char_traitsIcEENS1_9allocatorIcEEEE, symObjAddr: 0x17F2, symBinAddr: 0x70482, symSize: 0xF4 }
  - { offsetInCU: 0x28CE8, offset: 0x4D3B69, size: 0x8, addend: 0x0, symName: __ZN3tns7Runtime8WorkerIdEv, symObjAddr: 0x18E6, symBinAddr: 0x70576, symSize: 0xA }
  - { offsetInCU: 0x28D10, offset: 0x4D3B91, size: 0x8, addend: 0x0, symName: __ZN3tns7Runtime11SetWorkerIdEi, symObjAddr: 0x18F0, symBinAddr: 0x70580, symSize: 0xA }
  - { offsetInCU: 0x28D5C, offset: 0x4D3BDD, size: 0x8, addend: 0x0, symName: __ZN3tns7Runtime17GetAppConfigValueENSt3__112basic_stringIcNS1_11char_traitsIcEENS1_9allocatorIcEEEE, symObjAddr: 0x18FA, symBinAddr: 0x7058A, symSize: 0x110 }
  - { offsetInCU: 0x2903D, offset: 0x4D3EBE, size: 0x8, addend: 0x0, symName: __ZN3tns7Runtime22PerformanceNowCallbackERKN2v820FunctionCallbackInfoINS1_5ValueEEE, symObjAddr: 0x1A0A, symBinAddr: 0x7069A, symSize: 0x54 }
  - { offsetInCU: 0x29149, offset: 0x4D3FCA, size: 0x8, addend: 0x0, symName: __ZN3tns7Runtime51DefineDateTimeConfigurationChangeNotificationMethodEPN2v87IsolateENS1_5LocalINS1_14ObjectTemplateEEE, symObjAddr: 0x1A5E, symBinAddr: 0x706EE, symSize: 0xDE }
  - { offsetInCU: 0x29515, offset: 0x4D4396, size: 0x8, addend: 0x0, symName: __ZN3tns7Runtime7IsAliveEPKN2v87IsolateE, symObjAddr: 0x1B3C, symBinAddr: 0x707CC, symSize: 0x10A }
  - { offsetInCU: 0x29945, offset: 0x4D47C6, size: 0x8, addend: 0x0, symName: __ZNSt3__110shared_ptrIN2v88PlatformEED1B8ue170006Ev, symObjAddr: 0x1C46, symBinAddr: 0x708D6, symSize: 0xA }
  - { offsetInCU: 0x29A08, offset: 0x4D4889, size: 0x8, addend: 0x0, symName: __ZNSt3__16vectorIPN2v87IsolateENS_9allocatorIS3_EEED1B8ue170006Ev, symObjAddr: 0x1C50, symBinAddr: 0x708E0, symSize: 0x1B }
  - { offsetInCU: 0x29E47, offset: 0x4D4CC8, size: 0x8, addend: 0x0, symName: __ZNSt3__120__shared_ptr_emplaceIN3tns6CachesENS_9allocatorIS2_EEEC2B8ue170006IJRPN2v87IsolateERKiEEES4_DpOT_, symObjAddr: 0x1E00, symBinAddr: 0x70960, symSize: 0x44 }
  - { offsetInCU: 0x29F5F, offset: 0x4D4DE0, size: 0x8, addend: 0x0, symName: '__ZZN3tns7Runtime16DefineTimeMethodEPN2v87IsolateENS1_5LocalINS1_14ObjectTemplateEEEEN3$_18__invokeERKNS1_20FunctionCallbackInfoINS1_5ValueEEE', symObjAddr: 0x1E44, symBinAddr: 0x709A4, symSize: 0x40 }
  - { offsetInCU: 0x2A08B, offset: 0x4D4F0C, size: 0x8, addend: 0x0, symName: '__ZZN3tns7Runtime26DefineDrainMicrotaskMethodEPN2v87IsolateENS1_5LocalINS1_14ObjectTemplateEEEEN3$_28__invokeERKNS1_20FunctionCallbackInfoINS1_5ValueEEE', symObjAddr: 0x1E84, symBinAddr: 0x709E4, symSize: 0x12 }
  - { offsetInCU: 0x2A128, offset: 0x4D4FA9, size: 0x8, addend: 0x0, symName: '__ZZN3tns7Runtime51DefineDateTimeConfigurationChangeNotificationMethodEPN2v87IsolateENS1_5LocalINS1_14ObjectTemplateEEEEN3$_38__invokeERKNS1_20FunctionCallbackInfoINS1_5ValueEEE', symObjAddr: 0x1E96, symBinAddr: 0x709F6, symSize: 0x16 }
  - { offsetInCU: 0x2A48A, offset: 0x4D530B, size: 0x8, addend: 0x0, symName: __ZN10robin_hood6detail5TableILb1ELm80ENSt3__112basic_stringIcNS2_11char_traitsIcEENS2_9allocatorIcEEEENS2_10shared_ptrIN2v810PersistentINSA_6ObjectENSA_27NonCopyablePersistentTraitsISC_EEEEEENS_4hashIS8_vEENS2_8equal_toIS8_EEE7destroyEv, symObjAddr: 0x203A, symBinAddr: 0x70A6A, symSize: 0x3C }
  - { offsetInCU: 0x2A4C9, offset: 0x4D534A, size: 0x8, addend: 0x0, symName: __ZNK10robin_hood6detail5TableILb1ELm80ENSt3__112basic_stringIcNS2_11char_traitsIcEENS2_9allocatorIcEEEENS2_10shared_ptrIN2v810PersistentINSA_6ObjectENSA_27NonCopyablePersistentTraitsISC_EEEEEENS_4hashIS8_vEENS2_8equal_toIS8_EEE9DestroyerISL_Lb0EE20nodesDoNotDeallocateERSL_, symObjAddr: 0x2076, symBinAddr: 0x70AA6, symSize: 0xD8 }
  - { offsetInCU: 0x2A9A4, offset: 0x4D5825, size: 0x8, addend: 0x0, symName: '__ZNSt3__110__function6__funcIZN3tns7RuntimeD1EvE3$_0NS_9allocatorIS4_EEFbRiRNS_10shared_ptrINS2_6Caches11WorkerStateEEEEED1Ev', symObjAddr: 0x226E, symBinAddr: 0x70BCE, symSize: 0x6 }
  - { offsetInCU: 0x2A9CE, offset: 0x4D584F, size: 0x8, addend: 0x0, symName: '__ZNSt3__110__function6__funcIZN3tns7RuntimeD1EvE3$_0NS_9allocatorIS4_EEFbRiRNS_10shared_ptrINS2_6Caches11WorkerStateEEEEED0Ev', symObjAddr: 0x2274, symBinAddr: 0x70BD4, symSize: 0xA }
  - { offsetInCU: 0x2ABD4, offset: 0x4D5A55, size: 0x8, addend: 0x0, symName: '__ZNKSt3__110__function6__funcIZN3tns7RuntimeD1EvE3$_0NS_9allocatorIS4_EEFbRiRNS_10shared_ptrINS2_6Caches11WorkerStateEEEEE7__cloneEv', symObjAddr: 0x227E, symBinAddr: 0x70BDE, symSize: 0x2C }
  - { offsetInCU: 0x2AEF4, offset: 0x4D5D75, size: 0x8, addend: 0x0, symName: '__ZNKSt3__110__function6__funcIZN3tns7RuntimeD1EvE3$_0NS_9allocatorIS4_EEFbRiRNS_10shared_ptrINS2_6Caches11WorkerStateEEEEE7__cloneEPNS0_6__baseISD_EE', symObjAddr: 0x22AA, symBinAddr: 0x70C0A, symSize: 0x18 }
  - { offsetInCU: 0x2B06F, offset: 0x4D5EF0, size: 0x8, addend: 0x0, symName: '__ZNSt3__110__function6__funcIZN3tns7RuntimeD1EvE3$_0NS_9allocatorIS4_EEFbRiRNS_10shared_ptrINS2_6Caches11WorkerStateEEEEE7destroyEv', symObjAddr: 0x22C2, symBinAddr: 0x70C22, symSize: 0x6 }
  - { offsetInCU: 0x2B0C0, offset: 0x4D5F41, size: 0x8, addend: 0x0, symName: '__ZNSt3__110__function6__funcIZN3tns7RuntimeD1EvE3$_0NS_9allocatorIS4_EEFbRiRNS_10shared_ptrINS2_6Caches11WorkerStateEEEEE18destroy_deallocateEv', symObjAddr: 0x22C8, symBinAddr: 0x70C28, symSize: 0xA }
  - { offsetInCU: 0x2B272, offset: 0x4D60F3, size: 0x8, addend: 0x0, symName: '__ZNSt3__110__function6__funcIZN3tns7RuntimeD1EvE3$_0NS_9allocatorIS4_EEFbRiRNS_10shared_ptrINS2_6Caches11WorkerStateEEEEEclES7_SC_', symObjAddr: 0x22D2, symBinAddr: 0x70C32, symSize: 0x22 }
  - { offsetInCU: 0x2B484, offset: 0x4D6305, size: 0x8, addend: 0x0, symName: __ZN10robin_hood6detail5TableILb1ELm80EiNSt3__110shared_ptrIN3tns6Caches11WorkerStateEEENS_4hashIivEENS2_8equal_toIiEEE9shiftDownEm, symObjAddr: 0x24C4, symBinAddr: 0x70DE4, symSize: 0x8C }
  - { offsetInCU: 0x2B605, offset: 0x4D6486, size: 0x8, addend: 0x0, symName: __ZNSt3__110shared_ptrIN3tns6Caches11WorkerStateEEaSB8ue170006EOS4_, symObjAddr: 0x2550, symBinAddr: 0x70E70, symSize: 0x4A }
  - { offsetInCU: 0x2B7EE, offset: 0x4D666F, size: 0x8, addend: 0x0, symName: __ZNSt3__120__shared_ptr_pointerIPN2v88PlatformENS_14default_deleteIS2_EENS_9allocatorIS2_EEED1Ev, symObjAddr: 0x259A, symBinAddr: 0x70EBA, symSize: 0xA }
  - { offsetInCU: 0x2B846, offset: 0x4D66C7, size: 0x8, addend: 0x0, symName: __ZNSt3__120__shared_ptr_pointerIPN2v88PlatformENS_14default_deleteIS2_EENS_9allocatorIS2_EEED0Ev, symObjAddr: 0x25A4, symBinAddr: 0x70EC4, symSize: 0x1C }
  - { offsetInCU: 0x2B8AB, offset: 0x4D672C, size: 0x8, addend: 0x0, symName: __ZNSt3__120__shared_ptr_pointerIPN2v88PlatformENS_14default_deleteIS2_EENS_9allocatorIS2_EEE16__on_zero_sharedEv, symObjAddr: 0x25C0, symBinAddr: 0x70EE0, symSize: 0x16 }
  - { offsetInCU: 0x2B95D, offset: 0x4D67DE, size: 0x8, addend: 0x0, symName: __ZNSt3__120__shared_ptr_pointerIPN2v88PlatformENS_14default_deleteIS2_EENS_9allocatorIS2_EEE21__on_zero_shared_weakEv, symObjAddr: 0x25D6, symBinAddr: 0x70EF6, symSize: 0xA }
  - { offsetInCU: 0x2BACB, offset: 0x4D694C, size: 0x8, addend: 0x0, symName: __ZNSt3__110__function6__funcIPFN2v85LocalINS2_16FunctionTemplateEEENS3_INS2_7ContextEEEPKN3tns13BaseClassMetaENS8_21KnownUnknownClassPairERKNS_6vectorINS_12basic_stringIcNS_11char_traitsIcEENS_9allocatorIcEEEENSH_ISJ_EEEEENSH_ISP_EESO_ED1Ev, symObjAddr: 0x269E, symBinAddr: 0x70F3E, symSize: 0x6 }
  - { offsetInCU: 0x2BAF7, offset: 0x4D6978, size: 0x8, addend: 0x0, symName: __ZNSt3__110__function6__funcIPFN2v85LocalINS2_16FunctionTemplateEEENS3_INS2_7ContextEEEPKN3tns13BaseClassMetaENS8_21KnownUnknownClassPairERKNS_6vectorINS_12basic_stringIcNS_11char_traitsIcEENS_9allocatorIcEEEENSH_ISJ_EEEEENSH_ISP_EESO_ED0Ev, symObjAddr: 0x26A4, symBinAddr: 0x70F44, symSize: 0xA }
  - { offsetInCU: 0x2BCFD, offset: 0x4D6B7E, size: 0x8, addend: 0x0, symName: __ZNKSt3__110__function6__funcIPFN2v85LocalINS2_16FunctionTemplateEEENS3_INS2_7ContextEEEPKN3tns13BaseClassMetaENS8_21KnownUnknownClassPairERKNS_6vectorINS_12basic_stringIcNS_11char_traitsIcEENS_9allocatorIcEEEENSH_ISJ_EEEEENSH_ISP_EESO_E7__cloneEv, symObjAddr: 0x26AE, symBinAddr: 0x70F4E, symSize: 0x30 }
  - { offsetInCU: 0x2C01D, offset: 0x4D6E9E, size: 0x8, addend: 0x0, symName: __ZNKSt3__110__function6__funcIPFN2v85LocalINS2_16FunctionTemplateEEENS3_INS2_7ContextEEEPKN3tns13BaseClassMetaENS8_21KnownUnknownClassPairERKNS_6vectorINS_12basic_stringIcNS_11char_traitsIcEENS_9allocatorIcEEEENSH_ISJ_EEEEENSH_ISP_EESO_E7__cloneEPNS0_6__baseISO_EE, symObjAddr: 0x26DE, symBinAddr: 0x70F7E, symSize: 0x1C }
  - { offsetInCU: 0x2C198, offset: 0x4D7019, size: 0x8, addend: 0x0, symName: __ZNSt3__110__function6__funcIPFN2v85LocalINS2_16FunctionTemplateEEENS3_INS2_7ContextEEEPKN3tns13BaseClassMetaENS8_21KnownUnknownClassPairERKNS_6vectorINS_12basic_stringIcNS_11char_traitsIcEENS_9allocatorIcEEEENSH_ISJ_EEEEENSH_ISP_EESO_E7destroyEv, symObjAddr: 0x26FA, symBinAddr: 0x70F9A, symSize: 0x6 }
  - { offsetInCU: 0x2C1EB, offset: 0x4D706C, size: 0x8, addend: 0x0, symName: __ZNSt3__110__function6__funcIPFN2v85LocalINS2_16FunctionTemplateEEENS3_INS2_7ContextEEEPKN3tns13BaseClassMetaENS8_21KnownUnknownClassPairERKNS_6vectorINS_12basic_stringIcNS_11char_traitsIcEENS_9allocatorIcEEEENSH_ISJ_EEEEENSH_ISP_EESO_E18destroy_deallocateEv, symObjAddr: 0x2700, symBinAddr: 0x70FA0, symSize: 0xA }
  - { offsetInCU: 0x2C362, offset: 0x4D71E3, size: 0x8, addend: 0x0, symName: __ZNSt3__110__function6__funcIPFN2v85LocalINS2_16FunctionTemplateEEENS3_INS2_7ContextEEEPKN3tns13BaseClassMetaENS8_21KnownUnknownClassPairERKNS_6vectorINS_12basic_stringIcNS_11char_traitsIcEENS_9allocatorIcEEEENSH_ISJ_EEEEENSH_ISP_EESO_EclEOS7_OSB_OSC_SN_, symObjAddr: 0x270A, symBinAddr: 0x70FAA, symSize: 0x18 }
  - { offsetInCU: 0x2C49D, offset: 0x4D731E, size: 0x8, addend: 0x0, symName: __ZNSt3__110__function6__funcIPFN2v85LocalINS2_8FunctionEEENS3_INS2_7ContextEEEN3tns10StructInfoEENS_9allocatorISB_EESA_ED1Ev, symObjAddr: 0x2836, symBinAddr: 0x710D6, symSize: 0x6 }
  - { offsetInCU: 0x2C4C9, offset: 0x4D734A, size: 0x8, addend: 0x0, symName: __ZNSt3__110__function6__funcIPFN2v85LocalINS2_8FunctionEEENS3_INS2_7ContextEEEN3tns10StructInfoEENS_9allocatorISB_EESA_ED0Ev, symObjAddr: 0x283C, symBinAddr: 0x710DC, symSize: 0xA }
  - { offsetInCU: 0x2C6CF, offset: 0x4D7550, size: 0x8, addend: 0x0, symName: __ZNKSt3__110__function6__funcIPFN2v85LocalINS2_8FunctionEEENS3_INS2_7ContextEEEN3tns10StructInfoEENS_9allocatorISB_EESA_E7__cloneEv, symObjAddr: 0x2846, symBinAddr: 0x710E6, symSize: 0x30 }
  - { offsetInCU: 0x2C9EF, offset: 0x4D7870, size: 0x8, addend: 0x0, symName: __ZNKSt3__110__function6__funcIPFN2v85LocalINS2_8FunctionEEENS3_INS2_7ContextEEEN3tns10StructInfoEENS_9allocatorISB_EESA_E7__cloneEPNS0_6__baseISA_EE, symObjAddr: 0x2876, symBinAddr: 0x71116, symSize: 0x1C }
  - { offsetInCU: 0x2CB6A, offset: 0x4D79EB, size: 0x8, addend: 0x0, symName: __ZNSt3__110__function6__funcIPFN2v85LocalINS2_8FunctionEEENS3_INS2_7ContextEEEN3tns10StructInfoEENS_9allocatorISB_EESA_E7destroyEv, symObjAddr: 0x2892, symBinAddr: 0x71132, symSize: 0x6 }
  - { offsetInCU: 0x2CBBD, offset: 0x4D7A3E, size: 0x8, addend: 0x0, symName: __ZNSt3__110__function6__funcIPFN2v85LocalINS2_8FunctionEEENS3_INS2_7ContextEEEN3tns10StructInfoEENS_9allocatorISB_EESA_E18destroy_deallocateEv, symObjAddr: 0x2898, symBinAddr: 0x71138, symSize: 0xA }
  - { offsetInCU: 0x2CCBB, offset: 0x4D7B3C, size: 0x8, addend: 0x0, symName: __ZNSt3__110__function6__funcIPFN2v85LocalINS2_8FunctionEEENS3_INS2_7ContextEEEN3tns10StructInfoEENS_9allocatorISB_EESA_EclEOS7_OS9_, symObjAddr: 0x28A2, symBinAddr: 0x71142, symSize: 0xE }
  - { offsetInCU: 0x2CD38, offset: 0x4D7BB9, size: 0x8, addend: 0x0, symName: __ZNSt3__128__invoke_void_return_wrapperIN2v85LocalINS1_8FunctionEEELb0EE6__callB8ue170006IJRPFS4_NS2_INS1_7ContextEEEN3tns10StructInfoEES8_SA_EEES4_DpOT_, symObjAddr: 0x28B0, symBinAddr: 0x71150, symSize: 0xA2 }
  - { offsetInCU: 0x2D754, offset: 0x4D85D5, size: 0x8, addend: 0x0, symName: __GLOBAL__sub_I_Runtime.mm, symObjAddr: 0x2EF8, symBinAddr: 0x7132A, symSize: 0x74 }
  - { offsetInCU: 0x3E, offset: 0x4D8969, size: 0x8, addend: 0x0, symName: __ZN4rnv89V8Runtime10s_platformE, symObjAddr: 0x1BE528, symBinAddr: 0x16C3AE0, symSize: 0x0 }
  - { offsetInCU: 0xCAF, offset: 0x4D95DA, size: 0x8, addend: 0x0, symName: __ZN4rnv816s_platform_mutexE, symObjAddr: 0x9180, symBinAddr: 0xE38258, symSize: 0x0 }
  - { offsetInCU: 0xCCB, offset: 0x4D95F6, size: 0x8, addend: 0x0, symName: __ZN4rnv812_GLOBAL__N_122kHostFunctionProxyPropE, symObjAddr: 0x96B0, symBinAddr: 0xCB4E60, symSize: 0x0 }
  - { offsetInCU: 0x7085, offset: 0x4DF9B0, size: 0x8, addend: 0x0, symName: __ZNSt3__1lsB8ue170006IcNS_11char_traitsIcEENS_9allocatorIcEEEERNS_13basic_ostreamIT_T0_EES9_RKNS_12basic_stringIS6_S7_T1_EE, symObjAddr: 0x852, symBinAddr: 0x71B32, symSize: 0x22 }
  - { offsetInCU: 0x7141, offset: 0x4DFA6C, size: 0x8, addend: 0x0, symName: __ZNSt3__14endlB8ue170006IcNS_11char_traitsIcEEEERNS_13basic_ostreamIT_T0_EES7_, symObjAddr: 0x874, symBinAddr: 0x71B54, symSize: 0x82 }
  - { offsetInCU: 0x7503, offset: 0x4DFE2E, size: 0x8, addend: 0x0, symName: __ZN4rnv89V8RuntimeC2Ev.cold.1, symObjAddr: 0x785C, symBinAddr: 0xC72C0C, symSize: 0x1B }
  - { offsetInCU: 0xACB4, offset: 0x4E35DF, size: 0x8, addend: 0x0, symName: __ZNSt3__110unique_ptrIN2v88PlatformENS_14default_deleteIS2_EEED1B8ue170006Ev, symObjAddr: 0x0, symBinAddr: 0x713A0, symSize: 0x20 }
  - { offsetInCU: 0xB10B, offset: 0x4E3A36, size: 0x8, addend: 0x0, symName: __ZN4rnv89V8RuntimeC2Ev, symObjAddr: 0x20, symBinAddr: 0x713C0, symSize: 0x148 }
  - { offsetInCU: 0xB4F3, offset: 0x4E3E1E, size: 0x8, addend: 0x0, symName: __ZN4rnv89V8RuntimeC2Ev.cold.1, symObjAddr: 0x785C, symBinAddr: 0xC72C0C, symSize: 0x1B }
  - { offsetInCU: 0xB579, offset: 0x4E3EA4, size: 0x8, addend: 0x0, symName: __ZN4rnv89V8RuntimeC1Ev, symObjAddr: 0x168, symBinAddr: 0x71508, symSize: 0xA }
  - { offsetInCU: 0xB5B1, offset: 0x4E3EDC, size: 0x8, addend: 0x0, symName: __ZN4rnv89V8Runtime10GetIsolateEv, symObjAddr: 0x172, symBinAddr: 0x71512, symSize: 0x12 }
  - { offsetInCU: 0xB608, offset: 0x4E3F33, size: 0x8, addend: 0x0, symName: __ZN4rnv89V8RuntimeD2Ev, symObjAddr: 0x184, symBinAddr: 0x71524, symSize: 0xBC }
  - { offsetInCU: 0xB87C, offset: 0x4E41A7, size: 0x8, addend: 0x0, symName: __ZN4rnv89V8RuntimeD1Ev, symObjAddr: 0x24C, symBinAddr: 0x715EC, symSize: 0xA }
  - { offsetInCU: 0xB8CB, offset: 0x4E41F6, size: 0x8, addend: 0x0, symName: __ZN4rnv89V8RuntimeD0Ev, symObjAddr: 0x256, symBinAddr: 0x715F6, symSize: 0x1C }
  - { offsetInCU: 0xB940, offset: 0x4E426B, size: 0x8, addend: 0x0, symName: __ZN4rnv89V8Runtime14OnMainLoopIdleEv, symObjAddr: 0x272, symBinAddr: 0x71612, symSize: 0x6 }
  - { offsetInCU: 0xBDB4, offset: 0x4E46DF, size: 0x8, addend: 0x0, symName: __ZNK4rnv89V8Runtime15ReportExceptionEPN2v87IsolateEPNS1_8TryCatchE, symObjAddr: 0x278, symBinAddr: 0x71618, symSize: 0x516 }
  - { offsetInCU: 0xD482, offset: 0x4E5DAD, size: 0x8, addend: 0x0, symName: __ZN4rnv89V8Runtime11GetPlatformEv, symObjAddr: 0x96C, symBinAddr: 0x71BDC, symSize: 0xE }
  - { offsetInCU: 0xD519, offset: 0x4E5E44, size: 0x8, addend: 0x0, symName: __ZN4rnv89V8Runtime18evaluateJavaScriptERKNSt3__110shared_ptrIKN8facebook3jsi6BufferEEERKNS1_12basic_stringIcNS1_11char_traitsIcEENS1_9allocatorIcEEEE, symObjAddr: 0x97A, symBinAddr: 0x71BEA, symSize: 0x10 }
  - { offsetInCU: 0xD602, offset: 0x4E5F2D, size: 0x8, addend: 0x0, symName: __ZN4rnv89V8Runtime17prepareJavaScriptERKNSt3__110shared_ptrIKN8facebook3jsi6BufferEEENS1_12basic_stringIcNS1_11char_traitsIcEENS1_9allocatorIcEEEE, symObjAddr: 0x98A, symBinAddr: 0x71BFA, symSize: 0x10 }
  - { offsetInCU: 0xD766, offset: 0x4E6091, size: 0x8, addend: 0x0, symName: __ZN4rnv89V8Runtime26evaluatePreparedJavaScriptERKNSt3__110shared_ptrIKN8facebook3jsi18PreparedJavaScriptEEE, symObjAddr: 0x99A, symBinAddr: 0x71C0A, symSize: 0xA6 }
  - { offsetInCU: 0xDD9A, offset: 0x4E66C5, size: 0x8, addend: 0x0, symName: __ZNSt3__110shared_ptrIKN8facebook3jsi6BufferEED2B8ue170006Ev, symObjAddr: 0x738A, symBinAddr: 0x77F3A, symSize: 0x3F }
  - { offsetInCU: 0xDF12, offset: 0x4E683D, size: 0x8, addend: 0x0, symName: __ZN4rnv89V8Runtime15drainMicrotasksEi, symObjAddr: 0xA40, symBinAddr: 0x71CB0, symSize: 0xF6 }
  - { offsetInCU: 0xE261, offset: 0x4E6B8C, size: 0x8, addend: 0x0, symName: __ZN4rnv89V8Runtime6globalEv, symObjAddr: 0xB36, symBinAddr: 0x71DA6, symSize: 0x140 }
  - { offsetInCU: 0xE5F7, offset: 0x4E6F22, size: 0x8, addend: 0x0, symName: __ZN4rnv89V8Runtime11descriptionEv, symObjAddr: 0xC76, symBinAddr: 0x71EE6, symSize: 0xF8 }
  - { offsetInCU: 0xE854, offset: 0x4E717F, size: 0x8, addend: 0x0, symName: __ZN4rnv89V8Runtime13isInspectableEv, symObjAddr: 0xD6E, symBinAddr: 0x71FDE, symSize: 0x8 }
  - { offsetInCU: 0xE879, offset: 0x4E71A4, size: 0x8, addend: 0x0, symName: __ZN4rnv89V8Runtime11cloneSymbolEPKN8facebook3jsi7Runtime12PointerValueE, symObjAddr: 0xD76, symBinAddr: 0x71FE6, symSize: 0x166 }
  - { offsetInCU: 0xEADA, offset: 0x4E7405, size: 0x8, addend: 0x0, symName: __ZN4rnv89V8Runtime11cloneBigIntEPKN8facebook3jsi7Runtime12PointerValueE, symObjAddr: 0xEDC, symBinAddr: 0x7214C, symSize: 0x166 }
  - { offsetInCU: 0xED70, offset: 0x4E769B, size: 0x8, addend: 0x0, symName: __ZN4rnv89V8Runtime11cloneStringEPKN8facebook3jsi7Runtime12PointerValueE, symObjAddr: 0x1042, symBinAddr: 0x722B2, symSize: 0x17A }
  - { offsetInCU: 0xF0D7, offset: 0x4E7A02, size: 0x8, addend: 0x0, symName: __ZN4rnv89V8Runtime11cloneObjectEPKN8facebook3jsi7Runtime12PointerValueE, symObjAddr: 0x11BC, symBinAddr: 0x7242C, symSize: 0x166 }
  - { offsetInCU: 0xF338, offset: 0x4E7C63, size: 0x8, addend: 0x0, symName: __ZN4rnv89V8Runtime15clonePropNameIDEPKN8facebook3jsi7Runtime12PointerValueE, symObjAddr: 0x1322, symBinAddr: 0x72592, symSize: 0xE }
  - { offsetInCU: 0xF3D8, offset: 0x4E7D03, size: 0x8, addend: 0x0, symName: __ZN4rnv89V8Runtime25createPropNameIDFromAsciiEPKcm, symObjAddr: 0x1330, symBinAddr: 0x725A0, symSize: 0x14C }
  - { offsetInCU: 0xF70E, offset: 0x4E8039, size: 0x8, addend: 0x0, symName: __ZN8facebook3jsi7JSErrorC1ERNS0_7RuntimeEPKc, symObjAddr: 0x147C, symBinAddr: 0x726EC, symSize: 0x64 }
  - { offsetInCU: 0xF9EE, offset: 0x4E8319, size: 0x8, addend: 0x0, symName: __ZN4rnv89V8Runtime24createPropNameIDFromUtf8EPKhm, symObjAddr: 0x14E0, symBinAddr: 0x72750, symSize: 0x14C }
  - { offsetInCU: 0xFD48, offset: 0x4E8673, size: 0x8, addend: 0x0, symName: __ZN4rnv89V8Runtime26createPropNameIDFromStringERKN8facebook3jsi6StringE, symObjAddr: 0x162C, symBinAddr: 0x7289C, symSize: 0x18C }
  - { offsetInCU: 0x1012D, offset: 0x4E8A58, size: 0x8, addend: 0x0, symName: __ZN4rnv89V8Runtime26createPropNameIDFromSymbolERKN8facebook3jsi6SymbolE, symObjAddr: 0x17B8, symBinAddr: 0x72A28, symSize: 0x122 }
  - { offsetInCU: 0x10452, offset: 0x4E8D7D, size: 0x8, addend: 0x0, symName: __ZN4rnv89V8Runtime4utf8ERKN8facebook3jsi10PropNameIDE, symObjAddr: 0x18DA, symBinAddr: 0x72B4A, symSize: 0x12A }
  - { offsetInCU: 0x106E4, offset: 0x4E900F, size: 0x8, addend: 0x0, symName: __ZN4rnv89V8Runtime7compareERKN8facebook3jsi10PropNameIDES5_, symObjAddr: 0x1A04, symBinAddr: 0x72C74, symSize: 0x114 }
  - { offsetInCU: 0x10ABF, offset: 0x4E93EA, size: 0x8, addend: 0x0, symName: __ZN4rnv89V8Runtime14symbolToStringERKN8facebook3jsi6SymbolE, symObjAddr: 0x1B18, symBinAddr: 0x72D88, symSize: 0xA2 }
  - { offsetInCU: 0x10D23, offset: 0x4E964E, size: 0x8, addend: 0x0, symName: __ZN4rnv89V8Runtime21createStringFromAsciiEPKcm, symObjAddr: 0x1BBA, symBinAddr: 0x72E2A, symSize: 0x14C }
  - { offsetInCU: 0x1102B, offset: 0x4E9956, size: 0x8, addend: 0x0, symName: __ZN4rnv89V8Runtime20createStringFromUtf8EPKhm, symObjAddr: 0x1D06, symBinAddr: 0x72F76, symSize: 0x14C }
  - { offsetInCU: 0x11333, offset: 0x4E9C5E, size: 0x8, addend: 0x0, symName: __ZN4rnv89V8Runtime4utf8ERKN8facebook3jsi6StringE, symObjAddr: 0x1E52, symBinAddr: 0x730C2, symSize: 0x17A }
  - { offsetInCU: 0x116CC, offset: 0x4E9FF7, size: 0x8, addend: 0x0, symName: __ZN4rnv89V8Runtime12createObjectEv, symObjAddr: 0x1FCC, symBinAddr: 0x7323C, symSize: 0x122 }
  - { offsetInCU: 0x11BDC, offset: 0x4EA507, size: 0x8, addend: 0x0, symName: __ZN4rnv89V8Runtime12createObjectENSt3__110shared_ptrIN8facebook3jsi10HostObjectEEE, symObjAddr: 0x20EE, symBinAddr: 0x7335E, symSize: 0x2A4 }
  - { offsetInCU: 0x121C9, offset: 0x4EAAF4, size: 0x8, addend: 0x0, symName: __ZN4rnv815HostObjectProxyD1Ev, symObjAddr: 0x2392, symBinAddr: 0x73602, symSize: 0x3A }
  - { offsetInCU: 0x123FF, offset: 0x4EAD2A, size: 0x8, addend: 0x0, symName: __ZN4rnv89V8Runtime13getHostObjectERKN8facebook3jsi6ObjectE, symObjAddr: 0x23CC, symBinAddr: 0x7363C, symSize: 0x184 }
  - { offsetInCU: 0x127DF, offset: 0x4EB10A, size: 0x8, addend: 0x0, symName: __ZN4rnv89V8Runtime13getHostObjectERKN8facebook3jsi6ObjectE.cold.1, symObjAddr: 0x7877, symBinAddr: 0xC72C27, symSize: 0x23 }
  - { offsetInCU: 0x12813, offset: 0x4EB13E, size: 0x8, addend: 0x0, symName: __ZN4rnv89V8Runtime15getHostFunctionERKN8facebook3jsi8FunctionE, symObjAddr: 0x2550, symBinAddr: 0x737C0, symSize: 0x1E6 }
  - { offsetInCU: 0x12B20, offset: 0x4EB44B, size: 0x8, addend: 0x0, symName: __ZN4rnv89V8Runtime15getHostFunctionERKN8facebook3jsi8FunctionE.cold.1, symObjAddr: 0x789A, symBinAddr: 0xC72C4A, symSize: 0x23 }
  - { offsetInCU: 0x12B3F, offset: 0x4EB46A, size: 0x8, addend: 0x0, symName: __ZN4rnv89V8Runtime11getPropertyERKN8facebook3jsi6ObjectERKNS2_10PropNameIDE, symObjAddr: 0x2736, symBinAddr: 0x739A6, symSize: 0x1AA }
  - { offsetInCU: 0x12E73, offset: 0x4EB79E, size: 0x8, addend: 0x0, symName: __ZN4rnv89V8Runtime11getPropertyERKN8facebook3jsi6ObjectERKNS2_6StringE, symObjAddr: 0x28E0, symBinAddr: 0x73B50, symSize: 0x1AA }
  - { offsetInCU: 0x131C3, offset: 0x4EBAEE, size: 0x8, addend: 0x0, symName: __ZN4rnv89V8Runtime11hasPropertyERKN8facebook3jsi6ObjectERKNS2_10PropNameIDE, symObjAddr: 0x2A8A, symBinAddr: 0x73CFA, symSize: 0x188 }
  - { offsetInCU: 0x13478, offset: 0x4EBDA3, size: 0x8, addend: 0x0, symName: __ZN4rnv89V8Runtime11hasPropertyERKN8facebook3jsi6ObjectERKNS2_6StringE, symObjAddr: 0x2C12, symBinAddr: 0x73E82, symSize: 0x188 }
  - { offsetInCU: 0x1372D, offset: 0x4EC058, size: 0x8, addend: 0x0, symName: __ZN4rnv89V8Runtime16setPropertyValueERN8facebook3jsi6ObjectERKNS2_10PropNameIDERKNS2_5ValueE, symObjAddr: 0x2D9A, symBinAddr: 0x7400A, symSize: 0x176 }
  - { offsetInCU: 0x139D9, offset: 0x4EC304, size: 0x8, addend: 0x0, symName: __ZN4rnv89V8Runtime16setPropertyValueERN8facebook3jsi6ObjectERKNS2_6StringERKNS2_5ValueE, symObjAddr: 0x2F10, symBinAddr: 0x74180, symSize: 0x176 }
  - { offsetInCU: 0x140FE, offset: 0x4ECA29, size: 0x8, addend: 0x0, symName: __ZN4rnv89V8Runtime17createArrayBufferENSt3__110shared_ptrIN8facebook3jsi13MutableBufferEEE, symObjAddr: 0x3086, symBinAddr: 0x742F6, symSize: 0x2AC }
  - { offsetInCU: 0x14A7D, offset: 0x4ED3A8, size: 0x8, addend: 0x0, symName: __ZNK4rnv89V8Runtime11uint64ValueERKN8facebook3jsi6BigIntEPb, symObjAddr: 0x3332, symBinAddr: 0x745A2, symSize: 0x120 }
  - { offsetInCU: 0x14D00, offset: 0x4ED62B, size: 0x8, addend: 0x0, symName: __ZNK4rnv89V8Runtime10int64ValueERKN8facebook3jsi6BigIntEPb, symObjAddr: 0x3452, symBinAddr: 0x746C2, symSize: 0x120 }
  - { offsetInCU: 0x14F83, offset: 0x4ED8AE, size: 0x8, addend: 0x0, symName: __ZNK4rnv89V8Runtime7isArrayERKN8facebook3jsi6ObjectE, symObjAddr: 0x3572, symBinAddr: 0x747E2, symSize: 0xF2 }
  - { offsetInCU: 0x151E6, offset: 0x4EDB11, size: 0x8, addend: 0x0, symName: __ZNK4rnv89V8Runtime13isArrayBufferERKN8facebook3jsi6ObjectE, symObjAddr: 0x3664, symBinAddr: 0x748D4, symSize: 0xF2 }
  - { offsetInCU: 0x15449, offset: 0x4EDD74, size: 0x8, addend: 0x0, symName: __ZNK4rnv89V8Runtime17isArrayBufferViewERKN8facebook3jsi6ObjectE, symObjAddr: 0x3756, symBinAddr: 0x749C6, symSize: 0xF2 }
  - { offsetInCU: 0x156AC, offset: 0x4EDFD7, size: 0x8, addend: 0x0, symName: __ZNK4rnv89V8Runtime12isTypedArrayERKN8facebook3jsi6ObjectE, symObjAddr: 0x3848, symBinAddr: 0x74AB8, symSize: 0xF2 }
  - { offsetInCU: 0x1590F, offset: 0x4EE23A, size: 0x8, addend: 0x0, symName: __ZNK4rnv89V8Runtime12isUint8ArrayERKN8facebook3jsi6ObjectE, symObjAddr: 0x393A, symBinAddr: 0x74BAA, symSize: 0xF2 }
  - { offsetInCU: 0x15B72, offset: 0x4EE49D, size: 0x8, addend: 0x0, symName: __ZNK4rnv89V8Runtime19isUint8ClampedArrayERKN8facebook3jsi6ObjectE, symObjAddr: 0x3A2C, symBinAddr: 0x74C9C, symSize: 0xF2 }
  - { offsetInCU: 0x15DD5, offset: 0x4EE700, size: 0x8, addend: 0x0, symName: __ZNK4rnv89V8Runtime11isInt8ArrayERKN8facebook3jsi6ObjectE, symObjAddr: 0x3B1E, symBinAddr: 0x74D8E, symSize: 0xF2 }
  - { offsetInCU: 0x16038, offset: 0x4EE963, size: 0x8, addend: 0x0, symName: __ZNK4rnv89V8Runtime13isUint16ArrayERKN8facebook3jsi6ObjectE, symObjAddr: 0x3C10, symBinAddr: 0x74E80, symSize: 0xF2 }
  - { offsetInCU: 0x1629B, offset: 0x4EEBC6, size: 0x8, addend: 0x0, symName: __ZNK4rnv89V8Runtime12isInt16ArrayERKN8facebook3jsi6ObjectE, symObjAddr: 0x3D02, symBinAddr: 0x74F72, symSize: 0xF2 }
  - { offsetInCU: 0x164FE, offset: 0x4EEE29, size: 0x8, addend: 0x0, symName: __ZNK4rnv89V8Runtime13isUint32ArrayERKN8facebook3jsi6ObjectE, symObjAddr: 0x3DF4, symBinAddr: 0x75064, symSize: 0xF2 }
  - { offsetInCU: 0x16761, offset: 0x4EF08C, size: 0x8, addend: 0x0, symName: __ZNK4rnv89V8Runtime12isInt32ArrayERKN8facebook3jsi6ObjectE, symObjAddr: 0x3EE6, symBinAddr: 0x75156, symSize: 0xF2 }
  - { offsetInCU: 0x169C4, offset: 0x4EF2EF, size: 0x8, addend: 0x0, symName: __ZNK4rnv89V8Runtime14isFloat32ArrayERKN8facebook3jsi6ObjectE, symObjAddr: 0x3FD8, symBinAddr: 0x75248, symSize: 0xF2 }
  - { offsetInCU: 0x16C27, offset: 0x4EF552, size: 0x8, addend: 0x0, symName: __ZNK4rnv89V8Runtime16isBigUint64ArrayERKN8facebook3jsi6ObjectE, symObjAddr: 0x40CA, symBinAddr: 0x7533A, symSize: 0xF2 }
  - { offsetInCU: 0x16E8A, offset: 0x4EF7B5, size: 0x8, addend: 0x0, symName: __ZNK4rnv89V8Runtime15isBigInt64ArrayERKN8facebook3jsi6ObjectE, symObjAddr: 0x41BC, symBinAddr: 0x7542C, symSize: 0xF2 }
  - { offsetInCU: 0x170ED, offset: 0x4EFA18, size: 0x8, addend: 0x0, symName: __ZNK4rnv89V8Runtime14isFloat64ArrayERKN8facebook3jsi6ObjectE, symObjAddr: 0x42AE, symBinAddr: 0x7551E, symSize: 0xF2 }
  - { offsetInCU: 0x17350, offset: 0x4EFC7B, size: 0x8, addend: 0x0, symName: __ZNK4rnv89V8Runtime10isFunctionERKN8facebook3jsi6ObjectE, symObjAddr: 0x43A0, symBinAddr: 0x75610, symSize: 0xF2 }
  - { offsetInCU: 0x175B3, offset: 0x4EFEDE, size: 0x8, addend: 0x0, symName: __ZNK4rnv89V8Runtime12isHostObjectERKN8facebook3jsi6ObjectE, symObjAddr: 0x4492, symBinAddr: 0x75702, symSize: 0xF8 }
  - { offsetInCU: 0x17858, offset: 0x4F0183, size: 0x8, addend: 0x0, symName: __ZNK4rnv89V8Runtime14isHostFunctionERKN8facebook3jsi8FunctionE, symObjAddr: 0x458A, symBinAddr: 0x757FA, symSize: 0x14A }
  - { offsetInCU: 0x17C4A, offset: 0x4F0575, size: 0x8, addend: 0x0, symName: __ZN4rnv89V8Runtime16getPropertyNamesERKN8facebook3jsi6ObjectE, symObjAddr: 0x46D4, symBinAddr: 0x75944, symSize: 0x1BA }
  - { offsetInCU: 0x182B9, offset: 0x4F0BE4, size: 0x8, addend: 0x0, symName: __ZN4rnv89V8Runtime16createWeakObjectERKN8facebook3jsi6ObjectE, symObjAddr: 0x488E, symBinAddr: 0x75AFE, symSize: 0x1B2 }
  - { offsetInCU: 0x187F5, offset: 0x4F1120, size: 0x8, addend: 0x0, symName: __ZN4rnv89V8Runtime14lockWeakObjectERN8facebook3jsi10WeakObjectE, symObjAddr: 0x4A40, symBinAddr: 0x75CB0, symSize: 0x14A }
  - { offsetInCU: 0x18A75, offset: 0x4F13A0, size: 0x8, addend: 0x0, symName: __ZN4rnv89V8Runtime11createArrayEm, symObjAddr: 0x4B8A, symBinAddr: 0x75DFA, symSize: 0x180 }
  - { offsetInCU: 0x18EF2, offset: 0x4F181D, size: 0x8, addend: 0x0, symName: __ZN4rnv89V8Runtime4sizeERKN8facebook3jsi5ArrayE, symObjAddr: 0x4D0A, symBinAddr: 0x75F7A, symSize: 0xF6 }
  - { offsetInCU: 0x19155, offset: 0x4F1A80, size: 0x8, addend: 0x0, symName: __ZN4rnv89V8Runtime4sizeERKN8facebook3jsi11ArrayBufferE, symObjAddr: 0x4E00, symBinAddr: 0x76070, symSize: 0x128 }
  - { offsetInCU: 0x193C8, offset: 0x4F1CF3, size: 0x8, addend: 0x0, symName: __ZN4rnv89V8Runtime4sizeERKN8facebook3jsi10TypedArrayE, symObjAddr: 0x4F28, symBinAddr: 0x76198, symSize: 0x128 }
  - { offsetInCU: 0x1963B, offset: 0x4F1F66, size: 0x8, addend: 0x0, symName: __ZN4rnv89V8Runtime6offsetERKN8facebook3jsi10TypedArrayE, symObjAddr: 0x5050, symBinAddr: 0x762C0, symSize: 0x128 }
  - { offsetInCU: 0x198CA, offset: 0x4F21F5, size: 0x8, addend: 0x0, symName: __ZN4rnv89V8Runtime4dataERKN8facebook3jsi11ArrayBufferE, symObjAddr: 0x5178, symBinAddr: 0x763E8, symSize: 0x172 }
  - { offsetInCU: 0x19C29, offset: 0x4F2554, size: 0x8, addend: 0x0, symName: __ZN4rnv89V8Runtime4dataERKN8facebook3jsi10TypedArrayE, symObjAddr: 0x52EA, symBinAddr: 0x7655A, symSize: 0x17E }
  - { offsetInCU: 0x19F88, offset: 0x4F28B3, size: 0x8, addend: 0x0, symName: __ZN4rnv89V8Runtime15getValueAtIndexERKN8facebook3jsi5ArrayEm, symObjAddr: 0x5468, symBinAddr: 0x766D8, symSize: 0x174 }
  - { offsetInCU: 0x1A22F, offset: 0x4F2B5A, size: 0x8, addend: 0x0, symName: __ZN4rnv89V8Runtime19setValueAtIndexImplERN8facebook3jsi5ArrayEmRKNS2_5ValueE, symObjAddr: 0x55DC, symBinAddr: 0x7684C, symSize: 0x168 }
  - { offsetInCU: 0x1A655, offset: 0x4F2F80, size: 0x8, addend: 0x0, symName: __ZN4rnv89V8Runtime30createFunctionFromHostFunctionERKN8facebook3jsi10PropNameIDEjNSt3__18functionIFNS2_5ValueERNS2_7RuntimeERKS8_PSB_mEEE, symObjAddr: 0x5744, symBinAddr: 0x769B4, symSize: 0x2B6 }
  - { offsetInCU: 0x1B1D2, offset: 0x4F3AFD, size: 0x8, addend: 0x0, symName: __ZN4rnv89V8Runtime30OnHostFuncionContainerCallbackERKN2v820FunctionCallbackInfoINS1_5ValueEEE, symObjAddr: 0x59FA, symBinAddr: 0x76C6A, symSize: 0x1E2 }
  - { offsetInCU: 0x1BD67, offset: 0x4F4692, size: 0x8, addend: 0x0, symName: __ZN4rnv89V8Runtime4callERKN8facebook3jsi8FunctionERKNS2_5ValueEPS7_m, symObjAddr: 0x5BDC, symBinAddr: 0x76E4C, symSize: 0x350 }
  - { offsetInCU: 0x1C990, offset: 0x4F52BB, size: 0x8, addend: 0x0, symName: __ZN4rnv89V8Runtime17callAsConstructorERKN8facebook3jsi8FunctionEPKNS2_5ValueEm, symObjAddr: 0x5F2C, symBinAddr: 0x7719C, symSize: 0x336 }
  - { offsetInCU: 0x1D4D8, offset: 0x4F5E03, size: 0x8, addend: 0x0, symName: __ZNK4rnv89V8Runtime12strictEqualsERKN8facebook3jsi6SymbolES5_, symObjAddr: 0x6262, symBinAddr: 0x774D2, symSize: 0x152 }
  - { offsetInCU: 0x1D788, offset: 0x4F60B3, size: 0x8, addend: 0x0, symName: __ZNK4rnv89V8Runtime12strictEqualsERKN8facebook3jsi6BigIntES5_, symObjAddr: 0x63B4, symBinAddr: 0x77624, symSize: 0x156 }
  - { offsetInCU: 0x1DA72, offset: 0x4F639D, size: 0x8, addend: 0x0, symName: __ZNK4rnv89V8Runtime12strictEqualsERKN8facebook3jsi6StringES5_, symObjAddr: 0x650A, symBinAddr: 0x7777A, symSize: 0x152 }
  - { offsetInCU: 0x1DD22, offset: 0x4F664D, size: 0x8, addend: 0x0, symName: __ZNK4rnv89V8Runtime12strictEqualsERKN8facebook3jsi6ObjectES5_, symObjAddr: 0x665C, symBinAddr: 0x778CC, symSize: 0x152 }
  - { offsetInCU: 0x1DFD2, offset: 0x4F68FD, size: 0x8, addend: 0x0, symName: __ZN4rnv89V8Runtime10instanceOfERKN8facebook3jsi6ObjectERKNS2_8FunctionE, symObjAddr: 0x67AE, symBinAddr: 0x77A1E, symSize: 0x17A }
  - { offsetInCU: 0x1E31E, offset: 0x4F6C49, size: 0x8, addend: 0x0, symName: __ZN4rnv89V8Runtime14GetRuntimeInfoERKN2v820FunctionCallbackInfoINS1_5ValueEEE, symObjAddr: 0x6928, symBinAddr: 0x77B98, symSize: 0x2FE }
  - { offsetInCU: 0x1E5F8, offset: 0x4F6F23, size: 0x8, addend: 0x0, symName: __ZNSt3__115basic_stringbufIcNS_11char_traitsIcEENS_9allocatorIcEEED1Ev, symObjAddr: 0x6DB8, symBinAddr: 0x77E98, symSize: 0x34 }
  - { offsetInCU: 0x1E866, offset: 0x4F7191, size: 0x8, addend: 0x0, symName: '__ZZN4rnv89V8Runtime17createArrayBufferENSt3__110shared_ptrIN8facebook3jsi13MutableBufferEEEEN3$_08__invokeEPvmS8_', symObjAddr: 0x7144, symBinAddr: 0x77ED4, symSize: 0x26 }
  - { offsetInCU: 0x1E89C, offset: 0x4F71C7, size: 0x8, addend: 0x0, symName: '__ZZN4rnv89V8Runtime17createArrayBufferENSt3__110shared_ptrIN8facebook3jsi13MutableBufferEEEEN3$_08__invokeEPvmS8_', symObjAddr: 0x7144, symBinAddr: 0x77ED4, symSize: 0x26 }
  - { offsetInCU: 0x1E8F0, offset: 0x4F721B, size: 0x8, addend: 0x0, symName: __ZNSt3__110shared_ptrIN8facebook3jsi13MutableBufferEED2B8ue170006Ev, symObjAddr: 0x716A, symBinAddr: 0x77EFA, symSize: 0x40 }
  - { offsetInCU: 0x1F287, offset: 0x4F7BB2, size: 0x8, addend: 0x0, symName: __GLOBAL__sub_I_V8Runtime.cpp, symObjAddr: 0x9140, symBinAddr: 0x77F79, symSize: 0x3F }
  - { offsetInCU: 0x3136, offset: 0x4FAD4D, size: 0x8, addend: 0x0, symName: __ZN8facebook3jsi12_GLOBAL__N_119throwFormattedErrorEPKcz, symObjAddr: 0x1DB, symBinAddr: 0x7819B, symSize: 0x203 }
  - { offsetInCU: 0x56FA, offset: 0x4FD311, size: 0x8, addend: 0x0, symName: __ZN8facebook3jsi10FileBufferC2ERKNSt3__112basic_stringIcNS2_11char_traitsIcEENS2_9allocatorIcEEEE, symObjAddr: 0x0, symBinAddr: 0x77FC0, symSize: 0x14E }
  - { offsetInCU: 0x5A7E, offset: 0x4FD695, size: 0x8, addend: 0x0, symName: __ZN8facebook3jsi10FileBufferC1ERKNSt3__112basic_stringIcNS2_11char_traitsIcEENS2_9allocatorIcEEEE, symObjAddr: 0x14E, symBinAddr: 0x7810E, symSize: 0xA }
  - { offsetInCU: 0x5AC3, offset: 0x4FD6DA, size: 0x8, addend: 0x0, symName: __ZN8facebook3jsi10FileBufferD2Ev, symObjAddr: 0x158, symBinAddr: 0x78118, symSize: 0x78 }
  - { offsetInCU: 0x5F42, offset: 0x4FDB59, size: 0x8, addend: 0x0, symName: __ZN8facebook3jsi10FileBufferD1Ev, symObjAddr: 0x3DE, symBinAddr: 0x7839E, symSize: 0xA }
  - { offsetInCU: 0x5F91, offset: 0x4FDBA8, size: 0x8, addend: 0x0, symName: __ZN8facebook3jsi10FileBufferD0Ev, symObjAddr: 0x3E8, symBinAddr: 0x783A8, symSize: 0x1C }
  - { offsetInCU: 0x5FE7, offset: 0x4FDBFE, size: 0x8, addend: 0x0, symName: __ZNK8facebook3jsi10FileBuffer4sizeEv, symObjAddr: 0x404, symBinAddr: 0x783C4, symSize: 0xA }
  - { offsetInCU: 0x600C, offset: 0x4FDC23, size: 0x8, addend: 0x0, symName: __ZNK8facebook3jsi10FileBuffer4dataEv, symObjAddr: 0x40E, symBinAddr: 0x783CE, symSize: 0xA }
  - { offsetInCU: 0x51, offset: 0x4FDF23, size: 0x8, addend: 0x0, symName: __ZN3tns16ParametrizedCall11callsCache_E, symObjAddr: 0x192AA8, symBinAddr: 0x16C3B30, symSize: 0x0 }
  - { offsetInCU: 0xE5, offset: 0x4FDFB7, size: 0x8, addend: 0x0, symName: __ZN3tns7FFICall17structInfosCache_E, symObjAddr: 0x192A60, symBinAddr: 0x16C3AE8, symSize: 0x0 }
  - { offsetInCU: 0x8FAA, offset: 0x506E7C, size: 0x8, addend: 0x0, symName: __ZNSt3__119__allocate_at_leastB8ue170006INS_9allocatorIP9_ffi_typeEEEENS_19__allocation_resultINS_16allocator_traitsIT_E7pointerEEERS7_m, symObjAddr: 0x2FF6, symBinAddr: 0x7A2B6, symSize: 0x2E }
  - { offsetInCU: 0x9046, offset: 0x506F18, size: 0x8, addend: 0x0, symName: __ZN10robin_hood6detail5TableILb0ELm80ENSt3__112basic_stringIcNS2_11char_traitsIcEENS2_9allocatorIcEEEEN3tns10StructInfoENS_4hashIS8_vEENS2_8equal_toIS8_EEE25insertKeyPrepareEmptySpotIRKS8_EENS2_4pairImNSF_14InsertionStateEEEOT_, symObjAddr: 0x3024, symBinAddr: 0x7A2E4, symSize: 0x146 }
  - { offsetInCU: 0x96B3, offset: 0x507585, size: 0x8, addend: 0x0, symName: __ZNSt3__119__allocate_at_leastB8ue170006INS_9allocatorImEEEENS_19__allocation_resultINS_16allocator_traitsIT_E7pointerEEERS5_m, symObjAddr: 0x228B, symBinAddr: 0x79E7B, symSize: 0x2E }
  - { offsetInCU: 0xA2EE, offset: 0x5081C0, size: 0x8, addend: 0x0, symName: __ZNSt3__142__uninitialized_allocator_move_if_noexceptB8ue170006INS_9allocatorIN3tns11StructFieldEEENS_16reverse_iteratorIPS3_EES7_S7_EET2_RT_T0_T1_S8_, symObjAddr: 0x2D41, symBinAddr: 0x7A001, symSize: 0x9B }
  - { offsetInCU: 0xCB4F, offset: 0x50AA21, size: 0x8, addend: 0x0, symName: __ZNSt3__16vectorIN3tns11StructFieldENS_9allocatorIS2_EEE26__swap_out_circular_bufferERNS_14__split_bufferIS2_RS4_EE, symObjAddr: 0x2CC8, symBinAddr: 0x79F88, symSize: 0x79 }
  - { offsetInCU: 0xF0AE, offset: 0x50CF80, size: 0x8, addend: 0x0, symName: __ZN3tns7FFICall15GetArgumentTypeEPKNS_12TypeEncodingEb, symObjAddr: 0x0, symBinAddr: 0x783E0, symSize: 0x464 }
  - { offsetInCU: 0x10034, offset: 0x50DF06, size: 0x8, addend: 0x0, symName: __ZN3tns7FFICall13GetStructInfoEmPKNS_12TypeEncodingEPKNS_5PtrToIcEENSt3__112basic_stringIcNS8_11char_traitsIcEENS8_9allocatorIcEEEE, symObjAddr: 0x728, symBinAddr: 0x78AE8, symSize: 0xAE0 }
  - { offsetInCU: 0x132BF, offset: 0x511191, size: 0x8, addend: 0x0, symName: __ZN3tns7FFICall13GetStructInfoEPKNS_10StructMetaENSt3__112basic_stringIcNS4_11char_traitsIcEENS4_9allocatorIcEEEE, symObjAddr: 0x464, symBinAddr: 0x78844, symSize: 0x296 }
  - { offsetInCU: 0x15682, offset: 0x513554, size: 0x8, addend: 0x0, symName: __ZNK10robin_hood6detail5TableILb0ELm80ENSt3__112basic_stringIcNS2_11char_traitsIcEENS2_9allocatorIcEEEEN3tns10StructInfoENS_4hashIS8_vEENS2_8equal_toIS8_EEE7findIdxIS8_EEmRKT_, symObjAddr: 0x2A4A, symBinAddr: 0x79EAA, symSize: 0xD6 }
  - { offsetInCU: 0x157ED, offset: 0x5136BF, size: 0x8, addend: 0x0, symName: __ZNSt3__16vectorIN3tns11StructFieldENS_9allocatorIS2_EEE7reserveEm, symObjAddr: 0x14D4, symBinAddr: 0x79634, symSize: 0xB0 }
  - { offsetInCU: 0x15980, offset: 0x513852, size: 0x8, addend: 0x0, symName: __ZNSt3__16vectorIN3tns11StructFieldENS_9allocatorIS2_EEE21__push_back_slow_pathIRKS2_EEvOT_, symObjAddr: 0x2E92, symBinAddr: 0x7A152, symSize: 0x108 }
  - { offsetInCU: 0x15D71, offset: 0x513C43, size: 0x8, addend: 0x0, symName: __ZN3tns10StructInfoC2ENSt3__112basic_stringIcNS1_11char_traitsIcEENS1_9allocatorIcEEEEP9_ffi_typeNS1_6vectorINS_11StructFieldENS5_ISB_EEEE, symObjAddr: 0x1EF2, symBinAddr: 0x79B42, symSize: 0x98 }
  - { offsetInCU: 0x15FF3, offset: 0x513EC5, size: 0x8, addend: 0x0, symName: __ZN10robin_hood6detail5TableILb0ELm80ENSt3__112basic_stringIcNS2_11char_traitsIcEENS2_9allocatorIcEEEEN3tns10StructInfoENS_4hashIS8_vEENS2_8equal_toIS8_EEE7emplaceIJRS8_RSA_EEENS2_4pairINSF_4IterILb0EEEbEEDpOT_, symObjAddr: 0x1584, symBinAddr: 0x796E4, symSize: 0xBC }
  - { offsetInCU: 0x16172, offset: 0x514044, size: 0x8, addend: 0x0, symName: __ZNKSt3__16vectorIP9_ffi_typeNS_9allocatorIS2_EEE20__throw_length_errorB8ue170006Ev, symObjAddr: 0x2FE6, symBinAddr: 0x7A2A6, symSize: 0x10 }
  - { offsetInCU: 0x1619B, offset: 0x51406D, size: 0x8, addend: 0x0, symName: __ZNSt3__119__allocate_at_leastB8ue170006INS_9allocatorIP9_ffi_typeEEEENS_19__allocation_resultINS_16allocator_traitsIT_E7pointerEEERS7_m, symObjAddr: 0x2FF6, symBinAddr: 0x7A2B6, symSize: 0x2E }
  - { offsetInCU: 0x1627B, offset: 0x51414D, size: 0x8, addend: 0x0, symName: __ZN3tns7FFICall14DisposeFFITypeEP9_ffi_typePKNS_12TypeEncodingE, symObjAddr: 0x1208, symBinAddr: 0x795C8, symSize: 0x60 }
  - { offsetInCU: 0x16534, offset: 0x514406, size: 0x8, addend: 0x0, symName: __ZNSt3__114__split_bufferIN3tns11StructFieldERNS_9allocatorIS2_EEED2Ev, symObjAddr: 0x2E2C, symBinAddr: 0x7A0EC, symSize: 0x28 }
  - { offsetInCU: 0x1676E, offset: 0x514640, size: 0x8, addend: 0x0, symName: __ZN10robin_hood6detail5TableILb0ELm80ENSt3__112basic_stringIcNS2_11char_traitsIcEENS2_9allocatorIcEEEEN3tns10StructInfoENS_4hashIS8_vEENS2_8equal_toIS8_EEE8DataNodeISF_Lb0EEC2IJRS8_RSA_EEERSF_DpOT_, symObjAddr: 0x3210, symBinAddr: 0x7A4D0, symSize: 0x48 }
  - { offsetInCU: 0x16867, offset: 0x514739, size: 0x8, addend: 0x0, symName: __ZN10robin_hood6detail5TableILb0ELm80ENSt3__112basic_stringIcNS2_11char_traitsIcEENS2_9allocatorIcEEEEN3tns10StructInfoENS_4hashIS8_vEENS2_8equal_toIS8_EEE25insertKeyPrepareEmptySpotIRKS8_EENS2_4pairImNSF_14InsertionStateEEEOT_, symObjAddr: 0x3024, symBinAddr: 0x7A2E4, symSize: 0x146 }
  - { offsetInCU: 0x169D3, offset: 0x5148A5, size: 0x8, addend: 0x0, symName: __ZN10robin_hood6detail5TableILb0ELm80ENSt3__112basic_stringIcNS2_11char_traitsIcEENS2_9allocatorIcEEEEN3tns10StructInfoENS_4hashIS8_vEENS2_8equal_toIS8_EEE8DataNodeISF_Lb0EE7destroyERSF_, symObjAddr: 0x316A, symBinAddr: 0x7A42A, symSize: 0x5A }
  - { offsetInCU: 0x16D60, offset: 0x514C32, size: 0x8, addend: 0x0, symName: __ZNK10robin_hood6detail5TableILb0ELm80ENSt3__112basic_stringIcNS2_11char_traitsIcEENS2_9allocatorIcEEEEN3tns10StructInfoENS_4hashIS8_vEENS2_8equal_toIS8_EEE18throwOverflowErrorEv, symObjAddr: 0x31C4, symBinAddr: 0x7A484, symSize: 0x4C }
  - { offsetInCU: 0x16E25, offset: 0x514CF7, size: 0x8, addend: 0x0, symName: __ZN3tns16ParametrizedCall3GetEPKNS_12TypeEncodingEii, symObjAddr: 0x1640, symBinAddr: 0x797A0, symSize: 0x1AA }
  - { offsetInCU: 0x171ED, offset: 0x5150BF, size: 0x8, addend: 0x0, symName: __ZNK10robin_hood6detail5TableILb1ELm80EPKN3tns12TypeEncodingEPNS2_16ParametrizedCallENS_4hashIS5_vEENSt3__18equal_toIS5_EEE7findIdxIS5_EEmRKT_, symObjAddr: 0x3992, symBinAddr: 0x7AC02, symSize: 0xD0 }
  - { offsetInCU: 0x17399, offset: 0x51526B, size: 0x8, addend: 0x0, symName: __ZN3tns16ParametrizedCallC2EP7ffi_cif, symObjAddr: 0x1F8A, symBinAddr: 0x79BDA, symSize: 0x1E2 }
  - { offsetInCU: 0x17AD7, offset: 0x5159A9, size: 0x8, addend: 0x0, symName: __ZN10robin_hood6detail5TableILb1ELm80EPKN3tns12TypeEncodingEPNS2_16ParametrizedCallENS_4hashIS5_vEENSt3__18equal_toIS5_EEE7emplaceIJRS5_RS7_EEENSA_4pairINSD_4IterILb0EEEbEEDpOT_, symObjAddr: 0x17EA, symBinAddr: 0x7994A, symSize: 0x92 }
  - { offsetInCU: 0x17E51, offset: 0x515D23, size: 0x8, addend: 0x0, symName: __ZN10robin_hood6detail5TableILb1ELm80EPKN3tns12TypeEncodingEPNS2_16ParametrizedCallENS_4hashIS5_vEENSt3__18equal_toIS5_EEE25insertKeyPrepareEmptySpotIRKS5_EENSA_4pairImNSD_14InsertionStateEEEOT_, symObjAddr: 0x3A62, symBinAddr: 0x7ACD2, symSize: 0x160 }
  - { offsetInCU: 0x17FEB, offset: 0x515EBD, size: 0x8, addend: 0x0, symName: __ZNK10robin_hood6detail5TableILb1ELm80EPKN3tns12TypeEncodingEPNS2_16ParametrizedCallENS_4hashIS5_vEENSt3__18equal_toIS5_EEE18throwOverflowErrorEv, symObjAddr: 0x3BC2, symBinAddr: 0x7AE32, symSize: 0x4C }
  - { offsetInCU: 0x18082, offset: 0x515F54, size: 0x8, addend: 0x0, symName: __ZN10robin_hood6detail5TableILb1ELm80EPKN3tns12TypeEncodingEPNS2_16ParametrizedCallENS_4hashIS5_vEENSt3__18equal_toIS5_EEED1Ev, symObjAddr: 0x187C, symBinAddr: 0x799DC, symSize: 0x28 }
  - { offsetInCU: 0x18108, offset: 0x515FDA, size: 0x8, addend: 0x0, symName: __ZN10robin_hood6detail5TableILb0ELm80ENSt3__112basic_stringIcNS2_11char_traitsIcEENS2_9allocatorIcEEEEN3tns10StructInfoENS_4hashIS8_vEENS2_8equal_toIS8_EEED1Ev, symObjAddr: 0x18A4, symBinAddr: 0x79A04, symSize: 0xA }
  - { offsetInCU: 0x1813E, offset: 0x516010, size: 0x8, addend: 0x0, symName: __ZN10robin_hood6detail5TableILb0ELm80ENSt3__112basic_stringIcNS2_11char_traitsIcEENS2_9allocatorIcEEEEN3tns10StructInfoENS_4hashIS8_vEENS2_8equal_toIS8_EEED2Ev, symObjAddr: 0x4170, symBinAddr: 0x7B3E0, symSize: 0x40 }
  - { offsetInCU: 0x18200, offset: 0x5160D2, size: 0x8, addend: 0x0, symName: __ZThn16_NSt3__118basic_stringstreamIcNS_11char_traitsIcEENS_9allocatorIcEEED0Ev, symObjAddr: 0x1A48, symBinAddr: 0x79A18, symSize: 0x88 }
  - { offsetInCU: 0x183AD, offset: 0x51627F, size: 0x8, addend: 0x0, symName: __ZTv0_n24_NSt3__118basic_stringstreamIcNS_11char_traitsIcEENS_9allocatorIcEEED0Ev, symObjAddr: 0x1AD0, symBinAddr: 0x79AA0, symSize: 0x96 }
  - { offsetInCU: 0x18AE7, offset: 0x5169B9, size: 0x8, addend: 0x0, symName: __ZNSt3__16vectorImNS_9allocatorImEEE7reserveEm, symObjAddr: 0x216C, symBinAddr: 0x79DBC, symSize: 0x94 }
  - { offsetInCU: 0x18EAB, offset: 0x516D7D, size: 0x8, addend: 0x0, symName: __ZNKSt3__16vectorImNS_9allocatorImEEE20__throw_length_errorB8ue170006Ev, symObjAddr: 0x220C, symBinAddr: 0x79E5C, symSize: 0x10 }
  - { offsetInCU: 0x1A324, offset: 0x5181F6, size: 0x8, addend: 0x0, symName: __ZNSt3__128__exception_guard_exceptionsINS_29_AllocatorDestroyRangeReverseINS_9allocatorIN3tns11StructFieldEEENS_16reverse_iteratorIPS4_EEEEED2B8ue170006Ev, symObjAddr: 0x2DDC, symBinAddr: 0x7A09C, symSize: 0x1A }
  - { offsetInCU: 0x1A35C, offset: 0x51822E, size: 0x8, addend: 0x0, symName: __ZNKSt3__129_AllocatorDestroyRangeReverseINS_9allocatorIN3tns11StructFieldEEENS_16reverse_iteratorIPS3_EEEclB8ue170006Ev, symObjAddr: 0x2DF6, symBinAddr: 0x7A0B6, symSize: 0x36 }
  - { offsetInCU: 0x1A5D9, offset: 0x5184AB, size: 0x8, addend: 0x0, symName: __ZNSt3__114__split_bufferIN3tns11StructFieldERNS_9allocatorIS2_EEE17__destruct_at_endB8ue170006EPS2_, symObjAddr: 0x2E54, symBinAddr: 0x7A114, symSize: 0x3E }
  - { offsetInCU: 0x1A81B, offset: 0x5186ED, size: 0x8, addend: 0x0, symName: __ZNSt3__19allocatorIN3tns11StructFieldEE9constructB8ue170006IS2_JRKS2_EEEvPT_DpOT0_, symObjAddr: 0x2F9A, symBinAddr: 0x7A25A, symSize: 0x4C }
  - { offsetInCU: 0x1A95E, offset: 0x518830, size: 0x8, addend: 0x0, symName: __ZN10robin_hood6detail5TableILb0ELm80ENSt3__112basic_stringIcNS2_11char_traitsIcEENS2_9allocatorIcEEEEN3tns10StructInfoENS_4hashIS8_vEENS2_8equal_toIS8_EEE13increase_sizeEv, symObjAddr: 0x342A, symBinAddr: 0x7A6BA, symSize: 0x108 }
  - { offsetInCU: 0x1AA19, offset: 0x5188EB, size: 0x8, addend: 0x0, symName: __ZN10robin_hood6detail5TableILb0ELm80ENSt3__112basic_stringIcNS2_11char_traitsIcEENS2_9allocatorIcEEEEN3tns10StructInfoENS_4hashIS8_vEENS2_8equal_toIS8_EEE7shiftUpEmm, symObjAddr: 0x3532, symBinAddr: 0x7A7C2, symSize: 0x70 }
  - { offsetInCU: 0x1AB88, offset: 0x518A5A, size: 0x8, addend: 0x0, symName: __ZN10robin_hood6detail17BulkPoolAllocatorINS_4pairIKNSt3__112basic_stringIcNS3_11char_traitsIcEENS3_9allocatorIcEEEEN3tns10StructInfoEEELm4ELm16384EE17performAllocationEv, symObjAddr: 0x3258, symBinAddr: 0x7A518, symSize: 0x60 }
  - { offsetInCU: 0x1AC31, offset: 0x518B03, size: 0x8, addend: 0x0, symName: __ZN10robin_hood4pairIKNSt3__112basic_stringIcNS1_11char_traitsIcEENS1_9allocatorIcEEEEN3tns10StructInfoEEC2IRS7_RSA_EEOT_OT0_, symObjAddr: 0x3350, symBinAddr: 0x7A5E0, symSize: 0xDA }
  - { offsetInCU: 0x1B0DA, offset: 0x518FAC, size: 0x8, addend: 0x0, symName: __ZN10robin_hood6detail17BulkPoolAllocatorINS_4pairIKNSt3__112basic_stringIcNS3_11char_traitsIcEENS3_9allocatorIcEEEEN3tns10StructInfoEEELm4ELm16384EE3addEPvm, symObjAddr: 0x32B8, symBinAddr: 0x7A578, symSize: 0x67 }
  - { offsetInCU: 0x1B1C5, offset: 0x519097, size: 0x8, addend: 0x0, symName: __ZN10robin_hood6detail5TableILb0ELm80ENSt3__112basic_stringIcNS2_11char_traitsIcEENS2_9allocatorIcEEEEN3tns10StructInfoENS_4hashIS8_vEENS2_8equal_toIS8_EEE17try_increase_infoEv, symObjAddr: 0x3674, symBinAddr: 0x7A904, symSize: 0xE8 }
  - { offsetInCU: 0x1B2B4, offset: 0x519186, size: 0x8, addend: 0x0, symName: __ZN10robin_hood6detail5TableILb0ELm80ENSt3__112basic_stringIcNS2_11char_traitsIcEENS2_9allocatorIcEEEEN3tns10StructInfoENS_4hashIS8_vEENS2_8equal_toIS8_EEE8initDataEm, symObjAddr: 0x35A2, symBinAddr: 0x7A832, symSize: 0xD2 }
  - { offsetInCU: 0x1B393, offset: 0x519265, size: 0x8, addend: 0x0, symName: __ZN10robin_hood6detail5TableILb0ELm80ENSt3__112basic_stringIcNS2_11char_traitsIcEENS2_9allocatorIcEEEEN3tns10StructInfoENS_4hashIS8_vEENS2_8equal_toIS8_EEE17try_increase_infoEv, symObjAddr: 0x3674, symBinAddr: 0x7A904, symSize: 0xE8 }
  - { offsetInCU: 0x1B39E, offset: 0x519270, size: 0x8, addend: 0x0, symName: __ZN10robin_hood6detail5TableILb0ELm80ENSt3__112basic_stringIcNS2_11char_traitsIcEENS2_9allocatorIcEEEEN3tns10StructInfoENS_4hashIS8_vEENS2_8equal_toIS8_EEE16rehashPowerOfTwoEmb, symObjAddr: 0x375C, symBinAddr: 0x7A9EC, symSize: 0x12A }
  - { offsetInCU: 0x1B56C, offset: 0x51943E, size: 0x8, addend: 0x0, symName: __ZN10robin_hood6detail5TableILb0ELm80ENSt3__112basic_stringIcNS2_11char_traitsIcEENS2_9allocatorIcEEEEN3tns10StructInfoENS_4hashIS8_vEENS2_8equal_toIS8_EEE11insert_moveEONSF_8DataNodeISF_Lb0EEE, symObjAddr: 0x3886, symBinAddr: 0x7AB16, symSize: 0xE8 }
  - { offsetInCU: 0x1B7AB, offset: 0x51967D, size: 0x8, addend: 0x0, symName: __ZN10robin_hood6detail5TableILb1ELm80EPKN3tns12TypeEncodingEPNS2_16ParametrizedCallENS_4hashIS5_vEENSt3__18equal_toIS5_EEE13increase_sizeEv, symObjAddr: 0x3C0E, symBinAddr: 0x7AE7E, symSize: 0x108 }
  - { offsetInCU: 0x1B866, offset: 0x519738, size: 0x8, addend: 0x0, symName: __ZN10robin_hood6detail5TableILb1ELm80EPKN3tns12TypeEncodingEPNS2_16ParametrizedCallENS_4hashIS5_vEENSt3__18equal_toIS5_EEE7shiftUpEmm, symObjAddr: 0x3D16, symBinAddr: 0x7AF86, symSize: 0x8E }
  - { offsetInCU: 0x1B8F1, offset: 0x5197C3, size: 0x8, addend: 0x0, symName: __ZN10robin_hood6detail5TableILb1ELm80EPKN3tns12TypeEncodingEPNS2_16ParametrizedCallENS_4hashIS5_vEENSt3__18equal_toIS5_EEE17try_increase_infoEv, symObjAddr: 0x3E8C, symBinAddr: 0x7B0FC, symSize: 0xE8 }
  - { offsetInCU: 0x1B9E0, offset: 0x5198B2, size: 0x8, addend: 0x0, symName: __ZN10robin_hood6detail5TableILb1ELm80EPKN3tns12TypeEncodingEPNS2_16ParametrizedCallENS_4hashIS5_vEENSt3__18equal_toIS5_EEE8initDataEm, symObjAddr: 0x3DA4, symBinAddr: 0x7B014, symSize: 0xE8 }
  - { offsetInCU: 0x1BABF, offset: 0x519991, size: 0x8, addend: 0x0, symName: __ZN10robin_hood6detail5TableILb1ELm80EPKN3tns12TypeEncodingEPNS2_16ParametrizedCallENS_4hashIS5_vEENSt3__18equal_toIS5_EEE17try_increase_infoEv, symObjAddr: 0x3E8C, symBinAddr: 0x7B0FC, symSize: 0xE8 }
  - { offsetInCU: 0x1BACA, offset: 0x51999C, size: 0x8, addend: 0x0, symName: __ZN10robin_hood6detail5TableILb1ELm80EPKN3tns12TypeEncodingEPNS2_16ParametrizedCallENS_4hashIS5_vEENSt3__18equal_toIS5_EEE16rehashPowerOfTwoEmb, symObjAddr: 0x3F74, symBinAddr: 0x7B1E4, symSize: 0xF2 }
  - { offsetInCU: 0x1BC10, offset: 0x519AE2, size: 0x8, addend: 0x0, symName: __ZN10robin_hood6detail5TableILb1ELm80EPKN3tns12TypeEncodingEPNS2_16ParametrizedCallENS_4hashIS5_vEENSt3__18equal_toIS5_EEE11insert_moveEONSD_8DataNodeISD_Lb1EEE, symObjAddr: 0x4066, symBinAddr: 0x7B2D6, symSize: 0x10A }
  - { offsetInCU: 0x1BDE6, offset: 0x519CB8, size: 0x8, addend: 0x0, symName: __ZN10robin_hood6detail5TableILb0ELm80ENSt3__112basic_stringIcNS2_11char_traitsIcEENS2_9allocatorIcEEEEN3tns10StructInfoENS_4hashIS8_vEENS2_8equal_toIS8_EEE7destroyEv, symObjAddr: 0x41B0, symBinAddr: 0x7B420, symSize: 0x3C }
  - { offsetInCU: 0x1BE25, offset: 0x519CF7, size: 0x8, addend: 0x0, symName: __ZNK10robin_hood6detail5TableILb0ELm80ENSt3__112basic_stringIcNS2_11char_traitsIcEENS2_9allocatorIcEEEEN3tns10StructInfoENS_4hashIS8_vEENS2_8equal_toIS8_EEE9DestroyerISF_Lb0EE20nodesDoNotDeallocateERSF_, symObjAddr: 0x41EC, symBinAddr: 0x7B45C, symSize: 0xB2 }
  - { offsetInCU: 0x1BEFA, offset: 0x519DCC, size: 0x8, addend: 0x0, symName: __ZN10robin_hood6detail5TableILb0ELm80ENSt3__112basic_stringIcNS2_11char_traitsIcEENS2_9allocatorIcEEEEN3tns10StructInfoENS_4hashIS8_vEENS2_8equal_toIS8_EEE8DataNodeISF_Lb0EE22destroyDoNotDeallocateEv, symObjAddr: 0x429E, symBinAddr: 0x7B50E, symSize: 0x3D }
  - { offsetInCU: 0x1C300, offset: 0x51A1D2, size: 0x8, addend: 0x0, symName: __GLOBAL__sub_I_FFICall.cpp, symObjAddr: 0x4580, symBinAddr: 0x7B54B, symSize: 0xC5 }
  - { offsetInCU: 0xB1A6, offset: 0x5254A2, size: 0x8, addend: 0x0, symName: __ZNSt3__115allocate_sharedB8ue170006IN3tns6CachesENS_9allocatorIS2_EEJRPN2v87IsolateEEvEENS_10shared_ptrIT_EERKT0_DpOT1_, symObjAddr: 0x3220, symBinAddr: 0x7E780, symSize: 0x58 }
  - { offsetInCU: 0xF971, offset: 0x529C6D, size: 0x8, addend: 0x0, symName: __ZN3tns14ModuleInternalC2EN2v85LocalINS1_7ContextEEE, symObjAddr: 0x0, symBinAddr: 0x7B610, symSize: 0x478 }
  - { offsetInCU: 0x10E49, offset: 0x52B145, size: 0x8, addend: 0x0, symName: __ZN3tns14ModuleInternal18GetRequireFunctionEPN2v87IsolateERKNSt3__112basic_stringIcNS4_11char_traitsIcEENS4_9allocatorIcEEEE, symObjAddr: 0xA52, symBinAddr: 0x7C062, symSize: 0x184 }
  - { offsetInCU: 0x114F7, offset: 0x52B7F3, size: 0x8, addend: 0x0, symName: __ZN3tns14ModuleInternalC2EN2v85LocalINS1_7ContextEEE.cold.1, symObjAddr: 0x484A, symBinAddr: 0xC72C7A, symSize: 0x35 }
  - { offsetInCU: 0x1184F, offset: 0x52BB4B, size: 0x8, addend: 0x0, symName: __ZN3tns14ModuleInternal15RequireCallbackERKN2v820FunctionCallbackInfoINS1_5ValueEEE, symObjAddr: 0x478, symBinAddr: 0x7BA88, symSize: 0x5DA }
  - { offsetInCU: 0x12E97, offset: 0x52D193, size: 0x8, addend: 0x0, symName: __ZN3tns14ModuleInternal8LoadImplEPN2v87IsolateERKNSt3__112basic_stringIcNS4_11char_traitsIcEENS4_9allocatorIcEEEESC_Rb, symObjAddr: 0xE92, symBinAddr: 0x7C3F2, symSize: 0x39E }
  - { offsetInCU: 0x14406, offset: 0x52E702, size: 0x8, addend: 0x0, symName: __ZN3tns14ModuleInternalC1EN2v85LocalINS1_7ContextEEE, symObjAddr: 0xBD6, symBinAddr: 0x7C1E6, symSize: 0xA }
